
kernel.sys:     file format elf32-i386


Disassembly of section .text:

000186d0 <entry>:
   186d0:	bc 00 60 02 00       	mov    $0x26000,%esp
   186d5:	50                   	push   %eax
   186d6:	0f 20 e0             	mov    %cr4,%eax
   186d9:	0d 00 06 00 00       	or     $0x600,%eax
   186de:	0f 22 e0             	mov    %eax,%cr4
   186e1:	53                   	push   %ebx
   186e2:	e8 50 23 00 00       	call   1aa37 <kmain>
   186e7:	fa                   	cli    
   186e8:	f4                   	hlt    
   186e9:	66 90                	xchg   %ax,%ax
   186eb:	66 90                	xchg   %ax,%ax
   186ed:	66 90                	xchg   %ax,%ax
   186ef:	90                   	nop

000186f0 <gdt_flush>:
   186f0:	8b 44 24 04          	mov    0x4(%esp),%eax
   186f4:	0f 01 10             	lgdtl  (%eax)
   186f7:	66 b8 10 00          	mov    $0x10,%ax
   186fb:	8e d8                	mov    %eax,%ds
   186fd:	8e c0                	mov    %eax,%es
   186ff:	8e e0                	mov    %eax,%fs
   18701:	8e e8                	mov    %eax,%gs
   18703:	8e d0                	mov    %eax,%ss
   18705:	ea 0c 87 01 00 08 00 	ljmp   $0x8,$0x1870c

0001870c <gdt_flush.return>:
   1870c:	c3                   	ret    
   1870d:	66 90                	xchg   %ax,%ax
   1870f:	90                   	nop

00018710 <idt_flush>:
   18710:	0f 01 1d 00 6a 02 00 	lidtl  0x26a00
   18717:	c3                   	ret    

00018718 <isr_common_stub>:
   18718:	60                   	pusha  
   18719:	1e                   	push   %ds
   1871a:	06                   	push   %es
   1871b:	0f a0                	push   %fs
   1871d:	0f a8                	push   %gs
   1871f:	66 b8 10 00          	mov    $0x10,%ax
   18723:	8e d8                	mov    %eax,%ds
   18725:	8e c0                	mov    %eax,%es
   18727:	8e e0                	mov    %eax,%fs
   18729:	8e e8                	mov    %eax,%gs
   1872b:	89 e0                	mov    %esp,%eax
   1872d:	50                   	push   %eax
   1872e:	b8 88 a6 01 00       	mov    $0x1a688,%eax
   18733:	ff d0                	call   *%eax
   18735:	58                   	pop    %eax
   18736:	0f a9                	pop    %gs
   18738:	0f a1                	pop    %fs
   1873a:	07                   	pop    %es
   1873b:	1f                   	pop    %ds
   1873c:	61                   	popa   
   1873d:	83 c4 08             	add    $0x8,%esp
   18740:	cf                   	iret   

00018741 <irq_common_stub>:
   18741:	60                   	pusha  
   18742:	1e                   	push   %ds
   18743:	06                   	push   %es
   18744:	0f a0                	push   %fs
   18746:	0f a8                	push   %gs
   18748:	66 b8 10 00          	mov    $0x10,%ax
   1874c:	8e d8                	mov    %eax,%ds
   1874e:	8e c0                	mov    %eax,%es
   18750:	8e e0                	mov    %eax,%fs
   18752:	8e e8                	mov    %eax,%gs
   18754:	89 e0                	mov    %esp,%eax
   18756:	50                   	push   %eax
   18757:	b8 ff a6 01 00       	mov    $0x1a6ff,%eax
   1875c:	ff d0                	call   *%eax
   1875e:	58                   	pop    %eax
   1875f:	0f a9                	pop    %gs
   18761:	0f a1                	pop    %fs
   18763:	07                   	pop    %es
   18764:	1f                   	pop    %ds
   18765:	61                   	popa   
   18766:	83 c4 08             	add    $0x8,%esp
   18769:	cf                   	iret   

0001876a <isr0>:
   1876a:	fa                   	cli    
   1876b:	6a 00                	push   $0x0
   1876d:	6a 00                	push   $0x0
   1876f:	eb a7                	jmp    18718 <isr_common_stub>

00018771 <isr1>:
   18771:	fa                   	cli    
   18772:	6a 00                	push   $0x0
   18774:	6a 01                	push   $0x1
   18776:	eb a0                	jmp    18718 <isr_common_stub>

00018778 <isr2>:
   18778:	fa                   	cli    
   18779:	6a 00                	push   $0x0
   1877b:	6a 02                	push   $0x2
   1877d:	eb 99                	jmp    18718 <isr_common_stub>

0001877f <isr3>:
   1877f:	fa                   	cli    
   18780:	6a 00                	push   $0x0
   18782:	6a 03                	push   $0x3
   18784:	eb 92                	jmp    18718 <isr_common_stub>

00018786 <isr4>:
   18786:	fa                   	cli    
   18787:	6a 00                	push   $0x0
   18789:	6a 04                	push   $0x4
   1878b:	eb 8b                	jmp    18718 <isr_common_stub>

0001878d <isr5>:
   1878d:	fa                   	cli    
   1878e:	6a 00                	push   $0x0
   18790:	6a 05                	push   $0x5
   18792:	eb 84                	jmp    18718 <isr_common_stub>

00018794 <isr6>:
   18794:	fa                   	cli    
   18795:	6a 00                	push   $0x0
   18797:	6a 06                	push   $0x6
   18799:	e9 7a ff ff ff       	jmp    18718 <isr_common_stub>

0001879e <isr7>:
   1879e:	fa                   	cli    
   1879f:	6a 00                	push   $0x0
   187a1:	6a 07                	push   $0x7
   187a3:	e9 70 ff ff ff       	jmp    18718 <isr_common_stub>

000187a8 <isr8>:
   187a8:	fa                   	cli    
   187a9:	6a 08                	push   $0x8
   187ab:	e9 68 ff ff ff       	jmp    18718 <isr_common_stub>

000187b0 <isr9>:
   187b0:	fa                   	cli    
   187b1:	6a 00                	push   $0x0
   187b3:	6a 09                	push   $0x9
   187b5:	e9 5e ff ff ff       	jmp    18718 <isr_common_stub>

000187ba <isr10>:
   187ba:	fa                   	cli    
   187bb:	6a 0a                	push   $0xa
   187bd:	e9 56 ff ff ff       	jmp    18718 <isr_common_stub>

000187c2 <isr11>:
   187c2:	fa                   	cli    
   187c3:	6a 0b                	push   $0xb
   187c5:	e9 4e ff ff ff       	jmp    18718 <isr_common_stub>

000187ca <isr12>:
   187ca:	fa                   	cli    
   187cb:	6a 0c                	push   $0xc
   187cd:	e9 46 ff ff ff       	jmp    18718 <isr_common_stub>

000187d2 <isr13>:
   187d2:	fa                   	cli    
   187d3:	6a 0d                	push   $0xd
   187d5:	e9 3e ff ff ff       	jmp    18718 <isr_common_stub>

000187da <isr14>:
   187da:	fa                   	cli    
   187db:	6a 0e                	push   $0xe
   187dd:	e9 36 ff ff ff       	jmp    18718 <isr_common_stub>

000187e2 <isr15>:
   187e2:	fa                   	cli    
   187e3:	6a 00                	push   $0x0
   187e5:	6a 0f                	push   $0xf
   187e7:	e9 2c ff ff ff       	jmp    18718 <isr_common_stub>

000187ec <isr16>:
   187ec:	fa                   	cli    
   187ed:	6a 00                	push   $0x0
   187ef:	6a 10                	push   $0x10
   187f1:	e9 22 ff ff ff       	jmp    18718 <isr_common_stub>

000187f6 <isr17>:
   187f6:	fa                   	cli    
   187f7:	6a 11                	push   $0x11
   187f9:	e9 1a ff ff ff       	jmp    18718 <isr_common_stub>

000187fe <isr18>:
   187fe:	fa                   	cli    
   187ff:	6a 00                	push   $0x0
   18801:	6a 12                	push   $0x12
   18803:	e9 10 ff ff ff       	jmp    18718 <isr_common_stub>

00018808 <isr19>:
   18808:	fa                   	cli    
   18809:	6a 00                	push   $0x0
   1880b:	6a 13                	push   $0x13
   1880d:	e9 06 ff ff ff       	jmp    18718 <isr_common_stub>

00018812 <isr20>:
   18812:	fa                   	cli    
   18813:	6a 00                	push   $0x0
   18815:	6a 14                	push   $0x14
   18817:	e9 fc fe ff ff       	jmp    18718 <isr_common_stub>

0001881c <isr21>:
   1881c:	fa                   	cli    
   1881d:	6a 00                	push   $0x0
   1881f:	6a 15                	push   $0x15
   18821:	e9 f2 fe ff ff       	jmp    18718 <isr_common_stub>

00018826 <isr22>:
   18826:	fa                   	cli    
   18827:	6a 00                	push   $0x0
   18829:	6a 16                	push   $0x16
   1882b:	e9 e8 fe ff ff       	jmp    18718 <isr_common_stub>

00018830 <isr23>:
   18830:	fa                   	cli    
   18831:	6a 00                	push   $0x0
   18833:	6a 17                	push   $0x17
   18835:	e9 de fe ff ff       	jmp    18718 <isr_common_stub>

0001883a <isr24>:
   1883a:	fa                   	cli    
   1883b:	6a 00                	push   $0x0
   1883d:	6a 18                	push   $0x18
   1883f:	e9 d4 fe ff ff       	jmp    18718 <isr_common_stub>

00018844 <isr25>:
   18844:	fa                   	cli    
   18845:	6a 00                	push   $0x0
   18847:	6a 19                	push   $0x19
   18849:	e9 ca fe ff ff       	jmp    18718 <isr_common_stub>

0001884e <isr26>:
   1884e:	fa                   	cli    
   1884f:	6a 00                	push   $0x0
   18851:	6a 1a                	push   $0x1a
   18853:	e9 c0 fe ff ff       	jmp    18718 <isr_common_stub>

00018858 <isr27>:
   18858:	fa                   	cli    
   18859:	6a 00                	push   $0x0
   1885b:	6a 1b                	push   $0x1b
   1885d:	e9 b6 fe ff ff       	jmp    18718 <isr_common_stub>

00018862 <isr28>:
   18862:	fa                   	cli    
   18863:	6a 00                	push   $0x0
   18865:	6a 1c                	push   $0x1c
   18867:	e9 ac fe ff ff       	jmp    18718 <isr_common_stub>

0001886c <isr29>:
   1886c:	fa                   	cli    
   1886d:	6a 00                	push   $0x0
   1886f:	6a 1d                	push   $0x1d
   18871:	e9 a2 fe ff ff       	jmp    18718 <isr_common_stub>

00018876 <isr30>:
   18876:	fa                   	cli    
   18877:	6a 1e                	push   $0x1e
   18879:	e9 9a fe ff ff       	jmp    18718 <isr_common_stub>

0001887e <isr31>:
   1887e:	fa                   	cli    
   1887f:	6a 00                	push   $0x0
   18881:	6a 1f                	push   $0x1f
   18883:	e9 90 fe ff ff       	jmp    18718 <isr_common_stub>

00018888 <isr32>:
   18888:	fa                   	cli    
   18889:	6a 00                	push   $0x0
   1888b:	6a 20                	push   $0x20
   1888d:	e9 86 fe ff ff       	jmp    18718 <isr_common_stub>

00018892 <isr0x69>:
   18892:	fa                   	cli    
   18893:	6a 00                	push   $0x0
   18895:	6a 69                	push   $0x69
   18897:	e9 7c fe ff ff       	jmp    18718 <isr_common_stub>

0001889c <irq0>:
   1889c:	fa                   	cli    
   1889d:	6a 00                	push   $0x0
   1889f:	6a 20                	push   $0x20
   188a1:	e9 9b fe ff ff       	jmp    18741 <irq_common_stub>

000188a6 <irq1>:
   188a6:	fa                   	cli    
   188a7:	6a 00                	push   $0x0
   188a9:	6a 21                	push   $0x21
   188ab:	e9 91 fe ff ff       	jmp    18741 <irq_common_stub>

000188b0 <irq2>:
   188b0:	fa                   	cli    
   188b1:	6a 00                	push   $0x0
   188b3:	6a 22                	push   $0x22
   188b5:	e9 87 fe ff ff       	jmp    18741 <irq_common_stub>

000188ba <irq3>:
   188ba:	fa                   	cli    
   188bb:	6a 00                	push   $0x0
   188bd:	6a 23                	push   $0x23
   188bf:	e9 7d fe ff ff       	jmp    18741 <irq_common_stub>

000188c4 <irq4>:
   188c4:	fa                   	cli    
   188c5:	6a 00                	push   $0x0
   188c7:	6a 24                	push   $0x24
   188c9:	e9 73 fe ff ff       	jmp    18741 <irq_common_stub>

000188ce <irq5>:
   188ce:	fa                   	cli    
   188cf:	6a 00                	push   $0x0
   188d1:	6a 25                	push   $0x25
   188d3:	e9 69 fe ff ff       	jmp    18741 <irq_common_stub>

000188d8 <irq6>:
   188d8:	fa                   	cli    
   188d9:	6a 00                	push   $0x0
   188db:	6a 26                	push   $0x26
   188dd:	e9 5f fe ff ff       	jmp    18741 <irq_common_stub>

000188e2 <irq7>:
   188e2:	fa                   	cli    
   188e3:	6a 00                	push   $0x0
   188e5:	6a 27                	push   $0x27
   188e7:	e9 55 fe ff ff       	jmp    18741 <irq_common_stub>

000188ec <irq8>:
   188ec:	fa                   	cli    
   188ed:	6a 00                	push   $0x0
   188ef:	6a 28                	push   $0x28
   188f1:	e9 4b fe ff ff       	jmp    18741 <irq_common_stub>

000188f6 <irq9>:
   188f6:	fa                   	cli    
   188f7:	6a 00                	push   $0x0
   188f9:	6a 29                	push   $0x29
   188fb:	e9 41 fe ff ff       	jmp    18741 <irq_common_stub>

00018900 <irq10>:
   18900:	fa                   	cli    
   18901:	6a 00                	push   $0x0
   18903:	6a 2a                	push   $0x2a
   18905:	e9 37 fe ff ff       	jmp    18741 <irq_common_stub>

0001890a <irq11>:
   1890a:	fa                   	cli    
   1890b:	6a 00                	push   $0x0
   1890d:	6a 2b                	push   $0x2b
   1890f:	e9 2d fe ff ff       	jmp    18741 <irq_common_stub>

00018914 <irq12>:
   18914:	fa                   	cli    
   18915:	6a 00                	push   $0x0
   18917:	6a 2c                	push   $0x2c
   18919:	e9 23 fe ff ff       	jmp    18741 <irq_common_stub>

0001891e <irq13>:
   1891e:	fa                   	cli    
   1891f:	6a 00                	push   $0x0
   18921:	6a 2d                	push   $0x2d
   18923:	e9 19 fe ff ff       	jmp    18741 <irq_common_stub>

00018928 <irq14>:
   18928:	fa                   	cli    
   18929:	6a 00                	push   $0x0
   1892b:	6a 2e                	push   $0x2e
   1892d:	e9 0f fe ff ff       	jmp    18741 <irq_common_stub>

00018932 <irq15>:
   18932:	fa                   	cli    
   18933:	6a 00                	push   $0x0
   18935:	6a 2f                	push   $0x2f
   18937:	e9 05 fe ff ff       	jmp    18741 <irq_common_stub>
   1893c:	66 90                	xchg   %ax,%ax
   1893e:	66 90                	xchg   %ax,%ax

00018940 <memcpy_sse2_internal>:
   18940:	55                   	push   %ebp
   18941:	89 e5                	mov    %esp,%ebp
   18943:	8b 45 08             	mov    0x8(%ebp),%eax
   18946:	8b 5d 0c             	mov    0xc(%ebp),%ebx
   18949:	8b 4d 10             	mov    0x10(%ebp),%ecx

0001894c <memcpy_sse2_internal.loop>:
   1894c:	66 0f 6f 03          	movdqa (%ebx),%xmm0
   18950:	66 0f 7f 00          	movdqa %xmm0,(%eax)
   18954:	83 c0 10             	add    $0x10,%eax
   18957:	83 c3 10             	add    $0x10,%ebx
   1895a:	e2 f0                	loop   1894c <memcpy_sse2_internal.loop>
   1895c:	89 ec                	mov    %ebp,%esp
   1895e:	5d                   	pop    %ebp
   1895f:	c3                   	ret    

00018960 <read_eip>:
   18960:	58                   	pop    %eax
   18961:	ff e0                	jmp    *%eax

00018963 <task_switch>:
   18963:	fa                   	cli    
   18964:	8b 0d 7c 6e 02 00    	mov    0x26e7c,%ecx
   1896a:	8b 25 78 6e 02 00    	mov    0x26e78,%esp
   18970:	8b 2d 74 6e 02 00    	mov    0x26e74,%ebp
   18976:	b8 69 69 00 00       	mov    $0x6969,%eax
   1897b:	fb                   	sti    
   1897c:	ff e1                	jmp    *%ecx
   1897e:	66 90                	xchg   %ax,%ax

00018980 <enter_usermode>:
   18980:	fa                   	cli    
   18981:	66 b8 23 00          	mov    $0x23,%ax
   18985:	8e d8                	mov    %eax,%ds
   18987:	8e c0                	mov    %eax,%es
   18989:	8e e0                	mov    %eax,%fs
   1898b:	8e e8                	mov    %eax,%gs
   1898d:	6a 23                	push   $0x23
   1898f:	54                   	push   %esp
   18990:	9c                   	pushf  
   18991:	6a 1b                	push   $0x1b
   18993:	8d 05 9b 89 01 00    	lea    0x1899b,%eax
   18999:	50                   	push   %eax
   1899a:	cf                   	iret   

0001899b <stk>:
   1899b:	83 c4 04             	add    $0x4,%esp

0001899e <liballoc_memset>:
   1899e:	55                   	push   %ebp
   1899f:	89 e5                	mov    %esp,%ebp
   189a1:	83 ec 10             	sub    $0x10,%esp
   189a4:	c7 45 fc 00 00 00 00 	movl   $0x0,-0x4(%ebp)
   189ab:	eb 11                	jmp    189be <liballoc_memset+0x20>
   189ad:	8b 55 08             	mov    0x8(%ebp),%edx
   189b0:	8b 45 fc             	mov    -0x4(%ebp),%eax
   189b3:	01 d0                	add    %edx,%eax
   189b5:	8b 55 0c             	mov    0xc(%ebp),%edx
   189b8:	88 10                	mov    %dl,(%eax)
   189ba:	83 45 fc 01          	addl   $0x1,-0x4(%ebp)
   189be:	8b 45 fc             	mov    -0x4(%ebp),%eax
   189c1:	3b 45 10             	cmp    0x10(%ebp),%eax
   189c4:	72 e7                	jb     189ad <liballoc_memset+0xf>
   189c6:	8b 45 08             	mov    0x8(%ebp),%eax
   189c9:	c9                   	leave  
   189ca:	c3                   	ret    

000189cb <liballoc_memcpy>:
   189cb:	55                   	push   %ebp
   189cc:	89 e5                	mov    %esp,%ebp
   189ce:	83 ec 10             	sub    $0x10,%esp
   189d1:	8b 45 08             	mov    0x8(%ebp),%eax
   189d4:	89 45 f4             	mov    %eax,-0xc(%ebp)
   189d7:	8b 45 0c             	mov    0xc(%ebp),%eax
   189da:	89 45 f0             	mov    %eax,-0x10(%ebp)
   189dd:	eb 1a                	jmp    189f9 <liballoc_memcpy+0x2e>
   189df:	8b 45 f4             	mov    -0xc(%ebp),%eax
   189e2:	8d 50 04             	lea    0x4(%eax),%edx
   189e5:	89 55 f4             	mov    %edx,-0xc(%ebp)
   189e8:	8b 55 f0             	mov    -0x10(%ebp),%edx
   189eb:	8d 4a 04             	lea    0x4(%edx),%ecx
   189ee:	89 4d f0             	mov    %ecx,-0x10(%ebp)
   189f1:	8b 12                	mov    (%edx),%edx
   189f3:	89 10                	mov    %edx,(%eax)
   189f5:	83 6d 10 04          	subl   $0x4,0x10(%ebp)
   189f9:	83 7d 10 03          	cmpl   $0x3,0x10(%ebp)
   189fd:	77 e0                	ja     189df <liballoc_memcpy+0x14>
   189ff:	8b 45 f4             	mov    -0xc(%ebp),%eax
   18a02:	89 45 fc             	mov    %eax,-0x4(%ebp)
   18a05:	8b 45 f0             	mov    -0x10(%ebp),%eax
   18a08:	89 45 f8             	mov    %eax,-0x8(%ebp)
   18a0b:	eb 1b                	jmp    18a28 <liballoc_memcpy+0x5d>
   18a0d:	8b 45 fc             	mov    -0x4(%ebp),%eax
   18a10:	8d 50 01             	lea    0x1(%eax),%edx
   18a13:	89 55 fc             	mov    %edx,-0x4(%ebp)
   18a16:	8b 55 f8             	mov    -0x8(%ebp),%edx
   18a19:	8d 4a 01             	lea    0x1(%edx),%ecx
   18a1c:	89 4d f8             	mov    %ecx,-0x8(%ebp)
   18a1f:	0f b6 12             	movzbl (%edx),%edx
   18a22:	88 10                	mov    %dl,(%eax)
   18a24:	83 6d 10 01          	subl   $0x1,0x10(%ebp)
   18a28:	83 7d 10 00          	cmpl   $0x0,0x10(%ebp)
   18a2c:	75 df                	jne    18a0d <liballoc_memcpy+0x42>
   18a2e:	8b 45 08             	mov    0x8(%ebp),%eax
   18a31:	c9                   	leave  
   18a32:	c3                   	ret    

00018a33 <allocate_new_page>:
   18a33:	55                   	push   %ebp
   18a34:	89 e5                	mov    %esp,%ebp
   18a36:	53                   	push   %ebx
   18a37:	83 ec 14             	sub    $0x14,%esp
   18a3a:	8b 45 08             	mov    0x8(%ebp),%eax
   18a3d:	83 c0 18             	add    $0x18,%eax
   18a40:	89 45 f4             	mov    %eax,-0xc(%ebp)
   18a43:	83 45 f4 18          	addl   $0x18,-0xc(%ebp)
   18a47:	8b 0d 80 11 02 00    	mov    0x21180,%ecx
   18a4d:	8b 45 f4             	mov    -0xc(%ebp),%eax
   18a50:	ba 00 00 00 00       	mov    $0x0,%edx
   18a55:	f7 f1                	div    %ecx
   18a57:	89 d0                	mov    %edx,%eax
   18a59:	85 c0                	test   %eax,%eax
   18a5b:	75 15                	jne    18a72 <allocate_new_page+0x3f>
   18a5d:	8b 1d 80 11 02 00    	mov    0x21180,%ebx
   18a63:	8b 45 f4             	mov    -0xc(%ebp),%eax
   18a66:	ba 00 00 00 00       	mov    $0x0,%edx
   18a6b:	f7 f3                	div    %ebx
   18a6d:	89 45 f4             	mov    %eax,-0xc(%ebp)
   18a70:	eb 16                	jmp    18a88 <allocate_new_page+0x55>
   18a72:	8b 1d 80 11 02 00    	mov    0x21180,%ebx
   18a78:	8b 45 f4             	mov    -0xc(%ebp),%eax
   18a7b:	ba 00 00 00 00       	mov    $0x0,%edx
   18a80:	f7 f3                	div    %ebx
   18a82:	83 c0 01             	add    $0x1,%eax
   18a85:	89 45 f4             	mov    %eax,-0xc(%ebp)
   18a88:	a1 84 11 02 00       	mov    0x21184,%eax
   18a8d:	39 45 f4             	cmp    %eax,-0xc(%ebp)
   18a90:	73 08                	jae    18a9a <allocate_new_page+0x67>
   18a92:	a1 84 11 02 00       	mov    0x21184,%eax
   18a97:	89 45 f4             	mov    %eax,-0xc(%ebp)
   18a9a:	83 ec 0c             	sub    $0xc,%esp
   18a9d:	ff 75 f4             	pushl  -0xc(%ebp)
   18aa0:	e8 df 0b 00 00       	call   19684 <liballoc_alloc>
   18aa5:	83 c4 10             	add    $0x10,%esp
   18aa8:	89 45 f0             	mov    %eax,-0x10(%ebp)
   18aab:	83 7d f0 00          	cmpl   $0x0,-0x10(%ebp)
   18aaf:	75 23                	jne    18ad4 <allocate_new_page+0xa1>
   18ab1:	a1 20 60 02 00       	mov    0x26020,%eax
   18ab6:	8b 15 24 60 02 00    	mov    0x26024,%edx
   18abc:	83 c0 01             	add    $0x1,%eax
   18abf:	83 d2 00             	adc    $0x0,%edx
   18ac2:	a3 20 60 02 00       	mov    %eax,0x26020
   18ac7:	89 15 24 60 02 00    	mov    %edx,0x26024
   18acd:	b8 00 00 00 00       	mov    $0x0,%eax
   18ad2:	eb 6b                	jmp    18b3f <allocate_new_page+0x10c>
   18ad4:	8b 45 f0             	mov    -0x10(%ebp),%eax
   18ad7:	c7 00 00 00 00 00    	movl   $0x0,(%eax)
   18add:	8b 45 f0             	mov    -0x10(%ebp),%eax
   18ae0:	c7 40 04 00 00 00 00 	movl   $0x0,0x4(%eax)
   18ae7:	8b 45 f0             	mov    -0x10(%ebp),%eax
   18aea:	8b 55 f4             	mov    -0xc(%ebp),%edx
   18aed:	89 50 08             	mov    %edx,0x8(%eax)
   18af0:	a1 80 11 02 00       	mov    0x21180,%eax
   18af5:	0f af 45 f4          	imul   -0xc(%ebp),%eax
   18af9:	89 c2                	mov    %eax,%edx
   18afb:	8b 45 f0             	mov    -0x10(%ebp),%eax
   18afe:	89 50 0c             	mov    %edx,0xc(%eax)
   18b01:	8b 45 f0             	mov    -0x10(%ebp),%eax
   18b04:	c7 40 10 18 00 00 00 	movl   $0x18,0x10(%eax)
   18b0b:	8b 45 f0             	mov    -0x10(%ebp),%eax
   18b0e:	c7 40 14 00 00 00 00 	movl   $0x0,0x14(%eax)
   18b15:	8b 45 f0             	mov    -0x10(%ebp),%eax
   18b18:	8b 40 0c             	mov    0xc(%eax),%eax
   18b1b:	89 c1                	mov    %eax,%ecx
   18b1d:	bb 00 00 00 00       	mov    $0x0,%ebx
   18b22:	a1 00 60 02 00       	mov    0x26000,%eax
   18b27:	8b 15 04 60 02 00    	mov    0x26004,%edx
   18b2d:	01 c8                	add    %ecx,%eax
   18b2f:	11 da                	adc    %ebx,%edx
   18b31:	a3 00 60 02 00       	mov    %eax,0x26000
   18b36:	89 15 04 60 02 00    	mov    %edx,0x26004
   18b3c:	8b 45 f0             	mov    -0x10(%ebp),%eax
   18b3f:	8b 5d fc             	mov    -0x4(%ebp),%ebx
   18b42:	c9                   	leave  
   18b43:	c3                   	ret    

00018b44 <kmalloc>:
   18b44:	55                   	push   %ebp
   18b45:	89 e5                	mov    %esp,%ebp
   18b47:	53                   	push   %ebx
   18b48:	83 ec 44             	sub    $0x44,%esp
   18b4b:	c7 45 f4 00 00 00 00 	movl   $0x0,-0xc(%ebp)
   18b52:	c7 45 e8 00 00 00 00 	movl   $0x0,-0x18(%ebp)
   18b59:	c7 45 ec 00 00 00 00 	movl   $0x0,-0x14(%ebp)
   18b60:	c7 45 e4 00 00 00 00 	movl   $0x0,-0x1c(%ebp)
   18b67:	8b 45 08             	mov    0x8(%ebp),%eax
   18b6a:	89 45 c8             	mov    %eax,-0x38(%ebp)
   18b6d:	83 45 c8 20          	addl   $0x20,-0x38(%ebp)
   18b71:	e8 f8 0a 00 00       	call   1966e <liballoc_lock>
   18b76:	83 7d c8 00          	cmpl   $0x0,-0x38(%ebp)
   18b7a:	75 33                	jne    18baf <kmalloc+0x6b>
   18b7c:	a1 20 60 02 00       	mov    0x26020,%eax
   18b81:	8b 15 24 60 02 00    	mov    0x26024,%edx
   18b87:	83 c0 01             	add    $0x1,%eax
   18b8a:	83 d2 00             	adc    $0x0,%edx
   18b8d:	a3 20 60 02 00       	mov    %eax,0x26020
   18b92:	89 15 24 60 02 00    	mov    %edx,0x26024
   18b98:	e8 dc 0a 00 00       	call   19679 <liballoc_unlock>
   18b9d:	83 ec 0c             	sub    $0xc,%esp
   18ba0:	6a 01                	push   $0x1
   18ba2:	e8 9d ff ff ff       	call   18b44 <kmalloc>
   18ba7:	83 c4 10             	add    $0x10,%esp
   18baa:	e9 cf 06 00 00       	jmp    1927e <kmalloc+0x73a>
   18baf:	a1 18 60 02 00       	mov    0x26018,%eax
   18bb4:	85 c0                	test   %eax,%eax
   18bb6:	75 2b                	jne    18be3 <kmalloc+0x9f>
   18bb8:	83 ec 0c             	sub    $0xc,%esp
   18bbb:	ff 75 c8             	pushl  -0x38(%ebp)
   18bbe:	e8 70 fe ff ff       	call   18a33 <allocate_new_page>
   18bc3:	83 c4 10             	add    $0x10,%esp
   18bc6:	a3 18 60 02 00       	mov    %eax,0x26018
   18bcb:	a1 18 60 02 00       	mov    0x26018,%eax
   18bd0:	85 c0                	test   %eax,%eax
   18bd2:	75 0f                	jne    18be3 <kmalloc+0x9f>
   18bd4:	e8 a0 0a 00 00       	call   19679 <liballoc_unlock>
   18bd9:	b8 00 00 00 00       	mov    $0x0,%eax
   18bde:	e9 9b 06 00 00       	jmp    1927e <kmalloc+0x73a>
   18be3:	a1 18 60 02 00       	mov    0x26018,%eax
   18be8:	89 45 e0             	mov    %eax,-0x20(%ebp)
   18beb:	c7 45 f4 00 00 00 00 	movl   $0x0,-0xc(%ebp)
   18bf2:	a1 1c 60 02 00       	mov    0x2601c,%eax
   18bf7:	85 c0                	test   %eax,%eax
   18bf9:	0f 84 65 06 00 00    	je     19264 <kmalloc+0x720>
   18bff:	a1 1c 60 02 00       	mov    0x2601c,%eax
   18c04:	8b 50 0c             	mov    0xc(%eax),%edx
   18c07:	a1 1c 60 02 00       	mov    0x2601c,%eax
   18c0c:	8b 40 10             	mov    0x10(%eax),%eax
   18c0f:	29 c2                	sub    %eax,%edx
   18c11:	89 d0                	mov    %edx,%eax
   18c13:	89 45 e8             	mov    %eax,-0x18(%ebp)
   18c16:	c7 45 ec 00 00 00 00 	movl   $0x0,-0x14(%ebp)
   18c1d:	8b 45 c8             	mov    -0x38(%ebp),%eax
   18c20:	83 c0 18             	add    $0x18,%eax
   18c23:	ba 00 00 00 00       	mov    $0x0,%edx
   18c28:	3b 55 ec             	cmp    -0x14(%ebp),%edx
   18c2b:	0f 87 33 06 00 00    	ja     19264 <kmalloc+0x720>
   18c31:	3b 55 ec             	cmp    -0x14(%ebp),%edx
   18c34:	72 09                	jb     18c3f <kmalloc+0xfb>
   18c36:	3b 45 e8             	cmp    -0x18(%ebp),%eax
   18c39:	0f 83 25 06 00 00    	jae    19264 <kmalloc+0x720>
   18c3f:	a1 1c 60 02 00       	mov    0x2601c,%eax
   18c44:	89 45 e0             	mov    %eax,-0x20(%ebp)
   18c47:	c7 45 f4 01 00 00 00 	movl   $0x1,-0xc(%ebp)
   18c4e:	e9 11 06 00 00       	jmp    19264 <kmalloc+0x720>
   18c53:	8b 45 e0             	mov    -0x20(%ebp),%eax
   18c56:	8b 50 0c             	mov    0xc(%eax),%edx
   18c59:	8b 45 e0             	mov    -0x20(%ebp),%eax
   18c5c:	8b 40 10             	mov    0x10(%eax),%eax
   18c5f:	29 c2                	sub    %eax,%edx
   18c61:	89 d0                	mov    %edx,%eax
   18c63:	89 45 c4             	mov    %eax,-0x3c(%ebp)
   18c66:	8b 45 c4             	mov    -0x3c(%ebp),%eax
   18c69:	ba 00 00 00 00       	mov    $0x0,%edx
   18c6e:	3b 55 ec             	cmp    -0x14(%ebp),%edx
   18c71:	72 1f                	jb     18c92 <kmalloc+0x14e>
   18c73:	3b 55 ec             	cmp    -0x14(%ebp),%edx
   18c76:	77 05                	ja     18c7d <kmalloc+0x139>
   18c78:	3b 45 e8             	cmp    -0x18(%ebp),%eax
   18c7b:	76 15                	jbe    18c92 <kmalloc+0x14e>
   18c7d:	8b 45 e0             	mov    -0x20(%ebp),%eax
   18c80:	a3 1c 60 02 00       	mov    %eax,0x2601c
   18c85:	8b 45 c4             	mov    -0x3c(%ebp),%eax
   18c88:	89 45 e8             	mov    %eax,-0x18(%ebp)
   18c8b:	c7 45 ec 00 00 00 00 	movl   $0x0,-0x14(%ebp)
   18c92:	8b 45 c8             	mov    -0x38(%ebp),%eax
   18c95:	83 c0 18             	add    $0x18,%eax
   18c98:	3b 45 c4             	cmp    -0x3c(%ebp),%eax
   18c9b:	76 6a                	jbe    18d07 <kmalloc+0x1c3>
   18c9d:	8b 45 e0             	mov    -0x20(%ebp),%eax
   18ca0:	8b 40 04             	mov    0x4(%eax),%eax
   18ca3:	85 c0                	test   %eax,%eax
   18ca5:	74 0e                	je     18cb5 <kmalloc+0x171>
   18ca7:	8b 45 e0             	mov    -0x20(%ebp),%eax
   18caa:	8b 40 04             	mov    0x4(%eax),%eax
   18cad:	89 45 e0             	mov    %eax,-0x20(%ebp)
   18cb0:	e9 af 05 00 00       	jmp    19264 <kmalloc+0x720>
   18cb5:	83 7d f4 01          	cmpl   $0x1,-0xc(%ebp)
   18cb9:	75 14                	jne    18ccf <kmalloc+0x18b>
   18cbb:	a1 18 60 02 00       	mov    0x26018,%eax
   18cc0:	89 45 e0             	mov    %eax,-0x20(%ebp)
   18cc3:	c7 45 f4 00 00 00 00 	movl   $0x0,-0xc(%ebp)
   18cca:	e9 95 05 00 00       	jmp    19264 <kmalloc+0x720>
   18ccf:	83 ec 0c             	sub    $0xc,%esp
   18cd2:	ff 75 c8             	pushl  -0x38(%ebp)
   18cd5:	e8 59 fd ff ff       	call   18a33 <allocate_new_page>
   18cda:	83 c4 10             	add    $0x10,%esp
   18cdd:	89 c2                	mov    %eax,%edx
   18cdf:	8b 45 e0             	mov    -0x20(%ebp),%eax
   18ce2:	89 50 04             	mov    %edx,0x4(%eax)
   18ce5:	8b 45 e0             	mov    -0x20(%ebp),%eax
   18ce8:	8b 40 04             	mov    0x4(%eax),%eax
   18ceb:	85 c0                	test   %eax,%eax
   18ced:	0f 84 7d 05 00 00    	je     19270 <kmalloc+0x72c>
   18cf3:	8b 45 e0             	mov    -0x20(%ebp),%eax
   18cf6:	8b 40 04             	mov    0x4(%eax),%eax
   18cf9:	8b 55 e0             	mov    -0x20(%ebp),%edx
   18cfc:	89 10                	mov    %edx,(%eax)
   18cfe:	8b 45 e0             	mov    -0x20(%ebp),%eax
   18d01:	8b 40 04             	mov    0x4(%eax),%eax
   18d04:	89 45 e0             	mov    %eax,-0x20(%ebp)
   18d07:	8b 45 e0             	mov    -0x20(%ebp),%eax
   18d0a:	8b 40 14             	mov    0x14(%eax),%eax
   18d0d:	85 c0                	test   %eax,%eax
   18d0f:	0f 85 18 01 00 00    	jne    18e2d <kmalloc+0x2e9>
   18d15:	8b 45 e0             	mov    -0x20(%ebp),%eax
   18d18:	83 c0 18             	add    $0x18,%eax
   18d1b:	89 c2                	mov    %eax,%edx
   18d1d:	8b 45 e0             	mov    -0x20(%ebp),%eax
   18d20:	89 50 14             	mov    %edx,0x14(%eax)
   18d23:	8b 45 e0             	mov    -0x20(%ebp),%eax
   18d26:	8b 40 14             	mov    0x14(%eax),%eax
   18d29:	c7 40 0c de c0 01 c0 	movl   $0xc001c0de,0xc(%eax)
   18d30:	8b 45 e0             	mov    -0x20(%ebp),%eax
   18d33:	8b 40 14             	mov    0x14(%eax),%eax
   18d36:	c7 00 00 00 00 00    	movl   $0x0,(%eax)
   18d3c:	8b 45 e0             	mov    -0x20(%ebp),%eax
   18d3f:	8b 40 14             	mov    0x14(%eax),%eax
   18d42:	c7 40 04 00 00 00 00 	movl   $0x0,0x4(%eax)
   18d49:	8b 45 e0             	mov    -0x20(%ebp),%eax
   18d4c:	8b 40 14             	mov    0x14(%eax),%eax
   18d4f:	8b 55 e0             	mov    -0x20(%ebp),%edx
   18d52:	89 50 08             	mov    %edx,0x8(%eax)
   18d55:	8b 45 e0             	mov    -0x20(%ebp),%eax
   18d58:	8b 40 14             	mov    0x14(%eax),%eax
   18d5b:	8b 55 c8             	mov    -0x38(%ebp),%edx
   18d5e:	89 50 10             	mov    %edx,0x10(%eax)
   18d61:	8b 45 e0             	mov    -0x20(%ebp),%eax
   18d64:	8b 40 14             	mov    0x14(%eax),%eax
   18d67:	8b 55 08             	mov    0x8(%ebp),%edx
   18d6a:	89 50 14             	mov    %edx,0x14(%eax)
   18d6d:	8b 45 e0             	mov    -0x20(%ebp),%eax
   18d70:	8b 50 10             	mov    0x10(%eax),%edx
   18d73:	8b 45 c8             	mov    -0x38(%ebp),%eax
   18d76:	01 d0                	add    %edx,%eax
   18d78:	8d 50 18             	lea    0x18(%eax),%edx
   18d7b:	8b 45 e0             	mov    -0x20(%ebp),%eax
   18d7e:	89 50 10             	mov    %edx,0x10(%eax)
   18d81:	8b 4d c8             	mov    -0x38(%ebp),%ecx
   18d84:	bb 00 00 00 00       	mov    $0x0,%ebx
   18d89:	a1 08 60 02 00       	mov    0x26008,%eax
   18d8e:	8b 15 0c 60 02 00    	mov    0x2600c,%edx
   18d94:	01 c8                	add    %ecx,%eax
   18d96:	11 da                	adc    %ebx,%edx
   18d98:	a3 08 60 02 00       	mov    %eax,0x26008
   18d9d:	89 15 0c 60 02 00    	mov    %edx,0x2600c
   18da3:	8b 0d 10 60 02 00    	mov    0x26010,%ecx
   18da9:	8b 1d 14 60 02 00    	mov    0x26014,%ebx
   18daf:	a1 08 60 02 00       	mov    0x26008,%eax
   18db4:	8b 15 0c 60 02 00    	mov    0x2600c,%edx
   18dba:	39 d3                	cmp    %edx,%ebx
   18dbc:	77 0c                	ja     18dca <kmalloc+0x286>
   18dbe:	39 d3                	cmp    %edx,%ebx
   18dc0:	72 04                	jb     18dc6 <kmalloc+0x282>
   18dc2:	39 c1                	cmp    %eax,%ecx
   18dc4:	73 04                	jae    18dca <kmalloc+0x286>
   18dc6:	89 c1                	mov    %eax,%ecx
   18dc8:	89 d3                	mov    %edx,%ebx
   18dca:	89 0d 10 60 02 00    	mov    %ecx,0x26010
   18dd0:	89 1d 14 60 02 00    	mov    %ebx,0x26014
   18dd6:	8b 45 e0             	mov    -0x20(%ebp),%eax
   18dd9:	8b 40 14             	mov    0x14(%eax),%eax
   18ddc:	83 c0 18             	add    $0x18,%eax
   18ddf:	89 45 e4             	mov    %eax,-0x1c(%ebp)
   18de2:	8b 45 e4             	mov    -0x1c(%ebp),%eax
   18de5:	83 c0 10             	add    $0x10,%eax
   18de8:	89 45 e4             	mov    %eax,-0x1c(%ebp)
   18deb:	8b 45 e4             	mov    -0x1c(%ebp),%eax
   18dee:	83 e0 0f             	and    $0xf,%eax
   18df1:	89 45 d8             	mov    %eax,-0x28(%ebp)
   18df4:	83 7d d8 00          	cmpl   $0x0,-0x28(%ebp)
   18df8:	74 16                	je     18e10 <kmalloc+0x2cc>
   18dfa:	b8 10 00 00 00       	mov    $0x10,%eax
   18dff:	2b 45 d8             	sub    -0x28(%ebp),%eax
   18e02:	89 45 d8             	mov    %eax,-0x28(%ebp)
   18e05:	8b 55 e4             	mov    -0x1c(%ebp),%edx
   18e08:	8b 45 d8             	mov    -0x28(%ebp),%eax
   18e0b:	01 d0                	add    %edx,%eax
   18e0d:	89 45 e4             	mov    %eax,-0x1c(%ebp)
   18e10:	8b 45 e4             	mov    -0x1c(%ebp),%eax
   18e13:	83 e8 10             	sub    $0x10,%eax
   18e16:	89 c2                	mov    %eax,%edx
   18e18:	8b 45 d8             	mov    -0x28(%ebp),%eax
   18e1b:	83 c0 10             	add    $0x10,%eax
   18e1e:	88 02                	mov    %al,(%edx)
   18e20:	e8 54 08 00 00       	call   19679 <liballoc_unlock>
   18e25:	8b 45 e4             	mov    -0x1c(%ebp),%eax
   18e28:	e9 51 04 00 00       	jmp    1927e <kmalloc+0x73a>
   18e2d:	8b 45 e0             	mov    -0x20(%ebp),%eax
   18e30:	8b 40 14             	mov    0x14(%eax),%eax
   18e33:	89 45 c4             	mov    %eax,-0x3c(%ebp)
   18e36:	8b 45 e0             	mov    -0x20(%ebp),%eax
   18e39:	29 45 c4             	sub    %eax,-0x3c(%ebp)
   18e3c:	83 6d c4 18          	subl   $0x18,-0x3c(%ebp)
   18e40:	8b 45 c8             	mov    -0x38(%ebp),%eax
   18e43:	83 c0 18             	add    $0x18,%eax
   18e46:	3b 45 c4             	cmp    -0x3c(%ebp),%eax
   18e49:	0f 87 2a 01 00 00    	ja     18f79 <kmalloc+0x435>
   18e4f:	8b 45 e0             	mov    -0x20(%ebp),%eax
   18e52:	8b 40 14             	mov    0x14(%eax),%eax
   18e55:	8b 55 e0             	mov    -0x20(%ebp),%edx
   18e58:	83 c2 18             	add    $0x18,%edx
   18e5b:	89 10                	mov    %edx,(%eax)
   18e5d:	8b 45 e0             	mov    -0x20(%ebp),%eax
   18e60:	8b 40 14             	mov    0x14(%eax),%eax
   18e63:	8b 00                	mov    (%eax),%eax
   18e65:	8b 55 e0             	mov    -0x20(%ebp),%edx
   18e68:	8b 52 14             	mov    0x14(%edx),%edx
   18e6b:	89 50 04             	mov    %edx,0x4(%eax)
   18e6e:	8b 45 e0             	mov    -0x20(%ebp),%eax
   18e71:	8b 40 14             	mov    0x14(%eax),%eax
   18e74:	8b 10                	mov    (%eax),%edx
   18e76:	8b 45 e0             	mov    -0x20(%ebp),%eax
   18e79:	89 50 14             	mov    %edx,0x14(%eax)
   18e7c:	8b 45 e0             	mov    -0x20(%ebp),%eax
   18e7f:	8b 40 14             	mov    0x14(%eax),%eax
   18e82:	c7 40 0c de c0 01 c0 	movl   $0xc001c0de,0xc(%eax)
   18e89:	8b 45 e0             	mov    -0x20(%ebp),%eax
   18e8c:	8b 40 14             	mov    0x14(%eax),%eax
   18e8f:	c7 00 00 00 00 00    	movl   $0x0,(%eax)
   18e95:	8b 45 e0             	mov    -0x20(%ebp),%eax
   18e98:	8b 40 14             	mov    0x14(%eax),%eax
   18e9b:	8b 55 e0             	mov    -0x20(%ebp),%edx
   18e9e:	89 50 08             	mov    %edx,0x8(%eax)
   18ea1:	8b 45 e0             	mov    -0x20(%ebp),%eax
   18ea4:	8b 40 14             	mov    0x14(%eax),%eax
   18ea7:	8b 55 c8             	mov    -0x38(%ebp),%edx
   18eaa:	89 50 10             	mov    %edx,0x10(%eax)
   18ead:	8b 45 e0             	mov    -0x20(%ebp),%eax
   18eb0:	8b 40 14             	mov    0x14(%eax),%eax
   18eb3:	8b 55 08             	mov    0x8(%ebp),%edx
   18eb6:	89 50 14             	mov    %edx,0x14(%eax)
   18eb9:	8b 45 e0             	mov    -0x20(%ebp),%eax
   18ebc:	8b 50 10             	mov    0x10(%eax),%edx
   18ebf:	8b 45 c8             	mov    -0x38(%ebp),%eax
   18ec2:	01 d0                	add    %edx,%eax
   18ec4:	8d 50 18             	lea    0x18(%eax),%edx
   18ec7:	8b 45 e0             	mov    -0x20(%ebp),%eax
   18eca:	89 50 10             	mov    %edx,0x10(%eax)
   18ecd:	8b 4d c8             	mov    -0x38(%ebp),%ecx
   18ed0:	bb 00 00 00 00       	mov    $0x0,%ebx
   18ed5:	a1 08 60 02 00       	mov    0x26008,%eax
   18eda:	8b 15 0c 60 02 00    	mov    0x2600c,%edx
   18ee0:	01 c8                	add    %ecx,%eax
   18ee2:	11 da                	adc    %ebx,%edx
   18ee4:	a3 08 60 02 00       	mov    %eax,0x26008
   18ee9:	89 15 0c 60 02 00    	mov    %edx,0x2600c
   18eef:	8b 0d 10 60 02 00    	mov    0x26010,%ecx
   18ef5:	8b 1d 14 60 02 00    	mov    0x26014,%ebx
   18efb:	a1 08 60 02 00       	mov    0x26008,%eax
   18f00:	8b 15 0c 60 02 00    	mov    0x2600c,%edx
   18f06:	39 d3                	cmp    %edx,%ebx
   18f08:	77 0c                	ja     18f16 <kmalloc+0x3d2>
   18f0a:	39 d3                	cmp    %edx,%ebx
   18f0c:	72 04                	jb     18f12 <kmalloc+0x3ce>
   18f0e:	39 c1                	cmp    %eax,%ecx
   18f10:	73 04                	jae    18f16 <kmalloc+0x3d2>
   18f12:	89 c1                	mov    %eax,%ecx
   18f14:	89 d3                	mov    %edx,%ebx
   18f16:	89 0d 10 60 02 00    	mov    %ecx,0x26010
   18f1c:	89 1d 14 60 02 00    	mov    %ebx,0x26014
   18f22:	8b 45 e0             	mov    -0x20(%ebp),%eax
   18f25:	8b 40 14             	mov    0x14(%eax),%eax
   18f28:	83 c0 18             	add    $0x18,%eax
   18f2b:	89 45 e4             	mov    %eax,-0x1c(%ebp)
   18f2e:	8b 45 e4             	mov    -0x1c(%ebp),%eax
   18f31:	83 c0 10             	add    $0x10,%eax
   18f34:	89 45 e4             	mov    %eax,-0x1c(%ebp)
   18f37:	8b 45 e4             	mov    -0x1c(%ebp),%eax
   18f3a:	83 e0 0f             	and    $0xf,%eax
   18f3d:	89 45 d4             	mov    %eax,-0x2c(%ebp)
   18f40:	83 7d d4 00          	cmpl   $0x0,-0x2c(%ebp)
   18f44:	74 16                	je     18f5c <kmalloc+0x418>
   18f46:	b8 10 00 00 00       	mov    $0x10,%eax
   18f4b:	2b 45 d4             	sub    -0x2c(%ebp),%eax
   18f4e:	89 45 d4             	mov    %eax,-0x2c(%ebp)
   18f51:	8b 55 e4             	mov    -0x1c(%ebp),%edx
   18f54:	8b 45 d4             	mov    -0x2c(%ebp),%eax
   18f57:	01 d0                	add    %edx,%eax
   18f59:	89 45 e4             	mov    %eax,-0x1c(%ebp)
   18f5c:	8b 45 e4             	mov    -0x1c(%ebp),%eax
   18f5f:	83 e8 10             	sub    $0x10,%eax
   18f62:	89 c2                	mov    %eax,%edx
   18f64:	8b 45 d4             	mov    -0x2c(%ebp),%eax
   18f67:	83 c0 10             	add    $0x10,%eax
   18f6a:	88 02                	mov    %al,(%edx)
   18f6c:	e8 08 07 00 00       	call   19679 <liballoc_unlock>
   18f71:	8b 45 e4             	mov    -0x1c(%ebp),%eax
   18f74:	e9 05 03 00 00       	jmp    1927e <kmalloc+0x73a>
   18f79:	8b 45 e0             	mov    -0x20(%ebp),%eax
   18f7c:	8b 40 14             	mov    0x14(%eax),%eax
   18f7f:	89 45 dc             	mov    %eax,-0x24(%ebp)
   18f82:	e9 7e 02 00 00       	jmp    19205 <kmalloc+0x6c1>
   18f87:	8b 45 dc             	mov    -0x24(%ebp),%eax
   18f8a:	8b 40 04             	mov    0x4(%eax),%eax
   18f8d:	85 c0                	test   %eax,%eax
   18f8f:	0f 85 46 01 00 00    	jne    190db <kmalloc+0x597>
   18f95:	8b 45 e0             	mov    -0x20(%ebp),%eax
   18f98:	8b 50 0c             	mov    0xc(%eax),%edx
   18f9b:	8b 45 e0             	mov    -0x20(%ebp),%eax
   18f9e:	01 d0                	add    %edx,%eax
   18fa0:	89 45 c4             	mov    %eax,-0x3c(%ebp)
   18fa3:	8b 45 dc             	mov    -0x24(%ebp),%eax
   18fa6:	29 45 c4             	sub    %eax,-0x3c(%ebp)
   18fa9:	83 6d c4 18          	subl   $0x18,-0x3c(%ebp)
   18fad:	8b 45 dc             	mov    -0x24(%ebp),%eax
   18fb0:	8b 40 10             	mov    0x10(%eax),%eax
   18fb3:	29 45 c4             	sub    %eax,-0x3c(%ebp)
   18fb6:	8b 45 c8             	mov    -0x38(%ebp),%eax
   18fb9:	83 c0 18             	add    $0x18,%eax
   18fbc:	3b 45 c4             	cmp    -0x3c(%ebp),%eax
   18fbf:	0f 87 16 01 00 00    	ja     190db <kmalloc+0x597>
   18fc5:	8b 45 dc             	mov    -0x24(%ebp),%eax
   18fc8:	8b 50 10             	mov    0x10(%eax),%edx
   18fcb:	8b 45 dc             	mov    -0x24(%ebp),%eax
   18fce:	01 d0                	add    %edx,%eax
   18fd0:	83 c0 18             	add    $0x18,%eax
   18fd3:	89 c2                	mov    %eax,%edx
   18fd5:	8b 45 dc             	mov    -0x24(%ebp),%eax
   18fd8:	89 50 04             	mov    %edx,0x4(%eax)
   18fdb:	8b 45 dc             	mov    -0x24(%ebp),%eax
   18fde:	8b 40 04             	mov    0x4(%eax),%eax
   18fe1:	8b 55 dc             	mov    -0x24(%ebp),%edx
   18fe4:	89 10                	mov    %edx,(%eax)
   18fe6:	8b 45 dc             	mov    -0x24(%ebp),%eax
   18fe9:	8b 40 04             	mov    0x4(%eax),%eax
   18fec:	89 45 dc             	mov    %eax,-0x24(%ebp)
   18fef:	8b 45 dc             	mov    -0x24(%ebp),%eax
   18ff2:	c7 40 04 00 00 00 00 	movl   $0x0,0x4(%eax)
   18ff9:	8b 45 dc             	mov    -0x24(%ebp),%eax
   18ffc:	c7 40 0c de c0 01 c0 	movl   $0xc001c0de,0xc(%eax)
   19003:	8b 45 dc             	mov    -0x24(%ebp),%eax
   19006:	8b 55 e0             	mov    -0x20(%ebp),%edx
   19009:	89 50 08             	mov    %edx,0x8(%eax)
   1900c:	8b 45 dc             	mov    -0x24(%ebp),%eax
   1900f:	8b 55 c8             	mov    -0x38(%ebp),%edx
   19012:	89 50 10             	mov    %edx,0x10(%eax)
   19015:	8b 45 dc             	mov    -0x24(%ebp),%eax
   19018:	8b 55 08             	mov    0x8(%ebp),%edx
   1901b:	89 50 14             	mov    %edx,0x14(%eax)
   1901e:	8b 45 e0             	mov    -0x20(%ebp),%eax
   19021:	8b 50 10             	mov    0x10(%eax),%edx
   19024:	8b 45 c8             	mov    -0x38(%ebp),%eax
   19027:	01 d0                	add    %edx,%eax
   19029:	8d 50 18             	lea    0x18(%eax),%edx
   1902c:	8b 45 e0             	mov    -0x20(%ebp),%eax
   1902f:	89 50 10             	mov    %edx,0x10(%eax)
   19032:	8b 4d c8             	mov    -0x38(%ebp),%ecx
   19035:	bb 00 00 00 00       	mov    $0x0,%ebx
   1903a:	a1 08 60 02 00       	mov    0x26008,%eax
   1903f:	8b 15 0c 60 02 00    	mov    0x2600c,%edx
   19045:	01 c8                	add    %ecx,%eax
   19047:	11 da                	adc    %ebx,%edx
   19049:	a3 08 60 02 00       	mov    %eax,0x26008
   1904e:	89 15 0c 60 02 00    	mov    %edx,0x2600c
   19054:	8b 0d 10 60 02 00    	mov    0x26010,%ecx
   1905a:	8b 1d 14 60 02 00    	mov    0x26014,%ebx
   19060:	a1 08 60 02 00       	mov    0x26008,%eax
   19065:	8b 15 0c 60 02 00    	mov    0x2600c,%edx
   1906b:	39 d3                	cmp    %edx,%ebx
   1906d:	77 0c                	ja     1907b <kmalloc+0x537>
   1906f:	39 d3                	cmp    %edx,%ebx
   19071:	72 04                	jb     19077 <kmalloc+0x533>
   19073:	39 c1                	cmp    %eax,%ecx
   19075:	73 04                	jae    1907b <kmalloc+0x537>
   19077:	89 c1                	mov    %eax,%ecx
   19079:	89 d3                	mov    %edx,%ebx
   1907b:	89 0d 10 60 02 00    	mov    %ecx,0x26010
   19081:	89 1d 14 60 02 00    	mov    %ebx,0x26014
   19087:	8b 45 dc             	mov    -0x24(%ebp),%eax
   1908a:	83 c0 18             	add    $0x18,%eax
   1908d:	89 45 e4             	mov    %eax,-0x1c(%ebp)
   19090:	8b 45 e4             	mov    -0x1c(%ebp),%eax
   19093:	83 c0 10             	add    $0x10,%eax
   19096:	89 45 e4             	mov    %eax,-0x1c(%ebp)
   19099:	8b 45 e4             	mov    -0x1c(%ebp),%eax
   1909c:	83 e0 0f             	and    $0xf,%eax
   1909f:	89 45 d0             	mov    %eax,-0x30(%ebp)
   190a2:	83 7d d0 00          	cmpl   $0x0,-0x30(%ebp)
   190a6:	74 16                	je     190be <kmalloc+0x57a>
   190a8:	b8 10 00 00 00       	mov    $0x10,%eax
   190ad:	2b 45 d0             	sub    -0x30(%ebp),%eax
   190b0:	89 45 d0             	mov    %eax,-0x30(%ebp)
   190b3:	8b 55 e4             	mov    -0x1c(%ebp),%edx
   190b6:	8b 45 d0             	mov    -0x30(%ebp),%eax
   190b9:	01 d0                	add    %edx,%eax
   190bb:	89 45 e4             	mov    %eax,-0x1c(%ebp)
   190be:	8b 45 e4             	mov    -0x1c(%ebp),%eax
   190c1:	83 e8 10             	sub    $0x10,%eax
   190c4:	89 c2                	mov    %eax,%edx
   190c6:	8b 45 d0             	mov    -0x30(%ebp),%eax
   190c9:	83 c0 10             	add    $0x10,%eax
   190cc:	88 02                	mov    %al,(%edx)
   190ce:	e8 a6 05 00 00       	call   19679 <liballoc_unlock>
   190d3:	8b 45 e4             	mov    -0x1c(%ebp),%eax
   190d6:	e9 a3 01 00 00       	jmp    1927e <kmalloc+0x73a>
   190db:	8b 45 dc             	mov    -0x24(%ebp),%eax
   190de:	8b 40 04             	mov    0x4(%eax),%eax
   190e1:	85 c0                	test   %eax,%eax
   190e3:	0f 84 13 01 00 00    	je     191fc <kmalloc+0x6b8>
   190e9:	8b 45 dc             	mov    -0x24(%ebp),%eax
   190ec:	8b 40 04             	mov    0x4(%eax),%eax
   190ef:	89 45 c4             	mov    %eax,-0x3c(%ebp)
   190f2:	8b 45 dc             	mov    -0x24(%ebp),%eax
   190f5:	29 45 c4             	sub    %eax,-0x3c(%ebp)
   190f8:	83 6d c4 18          	subl   $0x18,-0x3c(%ebp)
   190fc:	8b 45 dc             	mov    -0x24(%ebp),%eax
   190ff:	8b 40 10             	mov    0x10(%eax),%eax
   19102:	29 45 c4             	sub    %eax,-0x3c(%ebp)
   19105:	8b 45 c8             	mov    -0x38(%ebp),%eax
   19108:	83 c0 18             	add    $0x18,%eax
   1910b:	3b 45 c4             	cmp    -0x3c(%ebp),%eax
   1910e:	0f 87 e8 00 00 00    	ja     191fc <kmalloc+0x6b8>
   19114:	8b 45 dc             	mov    -0x24(%ebp),%eax
   19117:	8b 50 10             	mov    0x10(%eax),%edx
   1911a:	8b 45 dc             	mov    -0x24(%ebp),%eax
   1911d:	01 d0                	add    %edx,%eax
   1911f:	83 c0 18             	add    $0x18,%eax
   19122:	89 45 c0             	mov    %eax,-0x40(%ebp)
   19125:	8b 45 c0             	mov    -0x40(%ebp),%eax
   19128:	c7 40 0c de c0 01 c0 	movl   $0xc001c0de,0xc(%eax)
   1912f:	8b 45 dc             	mov    -0x24(%ebp),%eax
   19132:	8b 50 04             	mov    0x4(%eax),%edx
   19135:	8b 45 c0             	mov    -0x40(%ebp),%eax
   19138:	89 50 04             	mov    %edx,0x4(%eax)
   1913b:	8b 45 c0             	mov    -0x40(%ebp),%eax
   1913e:	8b 55 dc             	mov    -0x24(%ebp),%edx
   19141:	89 10                	mov    %edx,(%eax)
   19143:	8b 45 c0             	mov    -0x40(%ebp),%eax
   19146:	8b 55 c8             	mov    -0x38(%ebp),%edx
   19149:	89 50 10             	mov    %edx,0x10(%eax)
   1914c:	8b 45 c0             	mov    -0x40(%ebp),%eax
   1914f:	8b 55 08             	mov    0x8(%ebp),%edx
   19152:	89 50 14             	mov    %edx,0x14(%eax)
   19155:	8b 45 c0             	mov    -0x40(%ebp),%eax
   19158:	8b 55 e0             	mov    -0x20(%ebp),%edx
   1915b:	89 50 08             	mov    %edx,0x8(%eax)
   1915e:	8b 45 dc             	mov    -0x24(%ebp),%eax
   19161:	8b 40 04             	mov    0x4(%eax),%eax
   19164:	8b 55 c0             	mov    -0x40(%ebp),%edx
   19167:	89 10                	mov    %edx,(%eax)
   19169:	8b 45 dc             	mov    -0x24(%ebp),%eax
   1916c:	8b 55 c0             	mov    -0x40(%ebp),%edx
   1916f:	89 50 04             	mov    %edx,0x4(%eax)
   19172:	8b 45 e0             	mov    -0x20(%ebp),%eax
   19175:	8b 50 10             	mov    0x10(%eax),%edx
   19178:	8b 45 c8             	mov    -0x38(%ebp),%eax
   1917b:	01 d0                	add    %edx,%eax
   1917d:	8d 50 18             	lea    0x18(%eax),%edx
   19180:	8b 45 e0             	mov    -0x20(%ebp),%eax
   19183:	89 50 10             	mov    %edx,0x10(%eax)
   19186:	8b 4d c8             	mov    -0x38(%ebp),%ecx
   19189:	bb 00 00 00 00       	mov    $0x0,%ebx
   1918e:	a1 08 60 02 00       	mov    0x26008,%eax
   19193:	8b 15 0c 60 02 00    	mov    0x2600c,%edx
   19199:	01 c8                	add    %ecx,%eax
   1919b:	11 da                	adc    %ebx,%edx
   1919d:	a3 08 60 02 00       	mov    %eax,0x26008
   191a2:	89 15 0c 60 02 00    	mov    %edx,0x2600c
   191a8:	8b 45 c0             	mov    -0x40(%ebp),%eax
   191ab:	83 c0 18             	add    $0x18,%eax
   191ae:	89 45 e4             	mov    %eax,-0x1c(%ebp)
   191b1:	8b 45 e4             	mov    -0x1c(%ebp),%eax
   191b4:	83 c0 10             	add    $0x10,%eax
   191b7:	89 45 e4             	mov    %eax,-0x1c(%ebp)
   191ba:	8b 45 e4             	mov    -0x1c(%ebp),%eax
   191bd:	83 e0 0f             	and    $0xf,%eax
   191c0:	89 45 cc             	mov    %eax,-0x34(%ebp)
   191c3:	83 7d cc 00          	cmpl   $0x0,-0x34(%ebp)
   191c7:	74 16                	je     191df <kmalloc+0x69b>
   191c9:	b8 10 00 00 00       	mov    $0x10,%eax
   191ce:	2b 45 cc             	sub    -0x34(%ebp),%eax
   191d1:	89 45 cc             	mov    %eax,-0x34(%ebp)
   191d4:	8b 55 e4             	mov    -0x1c(%ebp),%edx
   191d7:	8b 45 cc             	mov    -0x34(%ebp),%eax
   191da:	01 d0                	add    %edx,%eax
   191dc:	89 45 e4             	mov    %eax,-0x1c(%ebp)
   191df:	8b 45 e4             	mov    -0x1c(%ebp),%eax
   191e2:	83 e8 10             	sub    $0x10,%eax
   191e5:	89 c2                	mov    %eax,%edx
   191e7:	8b 45 cc             	mov    -0x34(%ebp),%eax
   191ea:	83 c0 10             	add    $0x10,%eax
   191ed:	88 02                	mov    %al,(%edx)
   191ef:	e8 85 04 00 00       	call   19679 <liballoc_unlock>
   191f4:	8b 45 e4             	mov    -0x1c(%ebp),%eax
   191f7:	e9 82 00 00 00       	jmp    1927e <kmalloc+0x73a>
   191fc:	8b 45 dc             	mov    -0x24(%ebp),%eax
   191ff:	8b 40 04             	mov    0x4(%eax),%eax
   19202:	89 45 dc             	mov    %eax,-0x24(%ebp)
   19205:	83 7d dc 00          	cmpl   $0x0,-0x24(%ebp)
   19209:	0f 85 78 fd ff ff    	jne    18f87 <kmalloc+0x443>
   1920f:	8b 45 e0             	mov    -0x20(%ebp),%eax
   19212:	8b 40 04             	mov    0x4(%eax),%eax
   19215:	85 c0                	test   %eax,%eax
   19217:	75 42                	jne    1925b <kmalloc+0x717>
   19219:	83 7d f4 01          	cmpl   $0x1,-0xc(%ebp)
   1921d:	75 11                	jne    19230 <kmalloc+0x6ec>
   1921f:	a1 18 60 02 00       	mov    0x26018,%eax
   19224:	89 45 e0             	mov    %eax,-0x20(%ebp)
   19227:	c7 45 f4 00 00 00 00 	movl   $0x0,-0xc(%ebp)
   1922e:	eb 34                	jmp    19264 <kmalloc+0x720>
   19230:	83 ec 0c             	sub    $0xc,%esp
   19233:	ff 75 c8             	pushl  -0x38(%ebp)
   19236:	e8 f8 f7 ff ff       	call   18a33 <allocate_new_page>
   1923b:	83 c4 10             	add    $0x10,%esp
   1923e:	89 c2                	mov    %eax,%edx
   19240:	8b 45 e0             	mov    -0x20(%ebp),%eax
   19243:	89 50 04             	mov    %edx,0x4(%eax)
   19246:	8b 45 e0             	mov    -0x20(%ebp),%eax
   19249:	8b 40 04             	mov    0x4(%eax),%eax
   1924c:	85 c0                	test   %eax,%eax
   1924e:	74 23                	je     19273 <kmalloc+0x72f>
   19250:	8b 45 e0             	mov    -0x20(%ebp),%eax
   19253:	8b 40 04             	mov    0x4(%eax),%eax
   19256:	8b 55 e0             	mov    -0x20(%ebp),%edx
   19259:	89 10                	mov    %edx,(%eax)
   1925b:	8b 45 e0             	mov    -0x20(%ebp),%eax
   1925e:	8b 40 04             	mov    0x4(%eax),%eax
   19261:	89 45 e0             	mov    %eax,-0x20(%ebp)
   19264:	83 7d e0 00          	cmpl   $0x0,-0x20(%ebp)
   19268:	0f 85 e5 f9 ff ff    	jne    18c53 <kmalloc+0x10f>
   1926e:	eb 04                	jmp    19274 <kmalloc+0x730>
   19270:	90                   	nop
   19271:	eb 01                	jmp    19274 <kmalloc+0x730>
   19273:	90                   	nop
   19274:	e8 00 04 00 00       	call   19679 <liballoc_unlock>
   19279:	b8 00 00 00 00       	mov    $0x0,%eax
   1927e:	8b 5d fc             	mov    -0x4(%ebp),%ebx
   19281:	c9                   	leave  
   19282:	c3                   	ret    

00019283 <kfree>:
   19283:	55                   	push   %ebp
   19284:	89 e5                	mov    %esp,%ebp
   19286:	53                   	push   %ebx
   19287:	83 ec 24             	sub    $0x24,%esp
   1928a:	83 7d 08 00          	cmpl   $0x0,0x8(%ebp)
   1928e:	75 21                	jne    192b1 <kfree+0x2e>
   19290:	a1 20 60 02 00       	mov    0x26020,%eax
   19295:	8b 15 24 60 02 00    	mov    0x26024,%edx
   1929b:	83 c0 01             	add    $0x1,%eax
   1929e:	83 d2 00             	adc    $0x0,%edx
   192a1:	a3 20 60 02 00       	mov    %eax,0x26020
   192a6:	89 15 24 60 02 00    	mov    %edx,0x26024
   192ac:	e9 2a 02 00 00       	jmp    194db <kfree+0x258>
   192b1:	8b 45 08             	mov    0x8(%ebp),%eax
   192b4:	83 e8 10             	sub    $0x10,%eax
   192b7:	0f b6 00             	movzbl (%eax),%eax
   192ba:	0f be c0             	movsbl %al,%eax
   192bd:	89 45 f4             	mov    %eax,-0xc(%ebp)
   192c0:	83 7d f4 1f          	cmpl   $0x1f,-0xc(%ebp)
   192c4:	77 09                	ja     192cf <kfree+0x4c>
   192c6:	8b 45 08             	mov    0x8(%ebp),%eax
   192c9:	2b 45 f4             	sub    -0xc(%ebp),%eax
   192cc:	89 45 08             	mov    %eax,0x8(%ebp)
   192cf:	e8 9a 03 00 00       	call   1966e <liballoc_lock>
   192d4:	8b 45 08             	mov    0x8(%ebp),%eax
   192d7:	83 e8 18             	sub    $0x18,%eax
   192da:	89 45 f0             	mov    %eax,-0x10(%ebp)
   192dd:	8b 45 f0             	mov    -0x10(%ebp),%eax
   192e0:	8b 40 0c             	mov    0xc(%eax),%eax
   192e3:	3d de c0 01 c0       	cmp    $0xc001c0de,%eax
   192e8:	74 74                	je     1935e <kfree+0xdb>
   192ea:	a1 28 60 02 00       	mov    0x26028,%eax
   192ef:	8b 15 2c 60 02 00    	mov    0x2602c,%edx
   192f5:	83 c0 01             	add    $0x1,%eax
   192f8:	83 d2 00             	adc    $0x0,%edx
   192fb:	a3 28 60 02 00       	mov    %eax,0x26028
   19300:	89 15 2c 60 02 00    	mov    %edx,0x2602c
   19306:	8b 45 f0             	mov    -0x10(%ebp),%eax
   19309:	8b 40 0c             	mov    0xc(%eax),%eax
   1930c:	25 ff ff ff 00       	and    $0xffffff,%eax
   19311:	3d de c0 01 00       	cmp    $0x1c0de,%eax
   19316:	74 20                	je     19338 <kfree+0xb5>
   19318:	8b 45 f0             	mov    -0x10(%ebp),%eax
   1931b:	8b 40 0c             	mov    0xc(%eax),%eax
   1931e:	0f b7 c0             	movzwl %ax,%eax
   19321:	3d de c0 00 00       	cmp    $0xc0de,%eax
   19326:	74 10                	je     19338 <kfree+0xb5>
   19328:	8b 45 f0             	mov    -0x10(%ebp),%eax
   1932b:	8b 40 0c             	mov    0xc(%eax),%eax
   1932e:	0f b6 c0             	movzbl %al,%eax
   19331:	3d de 00 00 00       	cmp    $0xde,%eax
   19336:	75 1c                	jne    19354 <kfree+0xd1>
   19338:	a1 30 60 02 00       	mov    0x26030,%eax
   1933d:	8b 15 34 60 02 00    	mov    0x26034,%edx
   19343:	83 c0 01             	add    $0x1,%eax
   19346:	83 d2 00             	adc    $0x0,%edx
   19349:	a3 30 60 02 00       	mov    %eax,0x26030
   1934e:	89 15 34 60 02 00    	mov    %edx,0x26034
   19354:	e8 20 03 00 00       	call   19679 <liballoc_unlock>
   19359:	e9 7d 01 00 00       	jmp    194db <kfree+0x258>
   1935e:	8b 45 f0             	mov    -0x10(%ebp),%eax
   19361:	8b 40 08             	mov    0x8(%eax),%eax
   19364:	89 45 ec             	mov    %eax,-0x14(%ebp)
   19367:	a1 08 60 02 00       	mov    0x26008,%eax
   1936c:	8b 15 0c 60 02 00    	mov    0x2600c,%edx
   19372:	8b 4d f0             	mov    -0x10(%ebp),%ecx
   19375:	8b 49 10             	mov    0x10(%ecx),%ecx
   19378:	bb 00 00 00 00       	mov    $0x0,%ebx
   1937d:	29 c8                	sub    %ecx,%eax
   1937f:	19 da                	sbb    %ebx,%edx
   19381:	a3 08 60 02 00       	mov    %eax,0x26008
   19386:	89 15 0c 60 02 00    	mov    %edx,0x2600c
   1938c:	8b 45 ec             	mov    -0x14(%ebp),%eax
   1938f:	8b 50 10             	mov    0x10(%eax),%edx
   19392:	8b 45 f0             	mov    -0x10(%ebp),%eax
   19395:	8b 40 10             	mov    0x10(%eax),%eax
   19398:	29 c2                	sub    %eax,%edx
   1939a:	89 d0                	mov    %edx,%eax
   1939c:	8d 50 e8             	lea    -0x18(%eax),%edx
   1939f:	8b 45 ec             	mov    -0x14(%ebp),%eax
   193a2:	89 50 10             	mov    %edx,0x10(%eax)
   193a5:	8b 45 f0             	mov    -0x10(%ebp),%eax
   193a8:	c7 40 0c ad de ad de 	movl   $0xdeaddead,0xc(%eax)
   193af:	8b 45 f0             	mov    -0x10(%ebp),%eax
   193b2:	8b 40 04             	mov    0x4(%eax),%eax
   193b5:	85 c0                	test   %eax,%eax
   193b7:	74 0d                	je     193c6 <kfree+0x143>
   193b9:	8b 45 f0             	mov    -0x10(%ebp),%eax
   193bc:	8b 40 04             	mov    0x4(%eax),%eax
   193bf:	8b 55 f0             	mov    -0x10(%ebp),%edx
   193c2:	8b 12                	mov    (%edx),%edx
   193c4:	89 10                	mov    %edx,(%eax)
   193c6:	8b 45 f0             	mov    -0x10(%ebp),%eax
   193c9:	8b 00                	mov    (%eax),%eax
   193cb:	85 c0                	test   %eax,%eax
   193cd:	74 0e                	je     193dd <kfree+0x15a>
   193cf:	8b 45 f0             	mov    -0x10(%ebp),%eax
   193d2:	8b 00                	mov    (%eax),%eax
   193d4:	8b 55 f0             	mov    -0x10(%ebp),%edx
   193d7:	8b 52 04             	mov    0x4(%edx),%edx
   193da:	89 50 04             	mov    %edx,0x4(%eax)
   193dd:	8b 45 f0             	mov    -0x10(%ebp),%eax
   193e0:	8b 00                	mov    (%eax),%eax
   193e2:	85 c0                	test   %eax,%eax
   193e4:	75 0c                	jne    193f2 <kfree+0x16f>
   193e6:	8b 45 f0             	mov    -0x10(%ebp),%eax
   193e9:	8b 50 04             	mov    0x4(%eax),%edx
   193ec:	8b 45 ec             	mov    -0x14(%ebp),%eax
   193ef:	89 50 14             	mov    %edx,0x14(%eax)
   193f2:	8b 45 ec             	mov    -0x14(%ebp),%eax
   193f5:	8b 40 14             	mov    0x14(%eax),%eax
   193f8:	85 c0                	test   %eax,%eax
   193fa:	0f 85 93 00 00 00    	jne    19493 <kfree+0x210>
   19400:	a1 18 60 02 00       	mov    0x26018,%eax
   19405:	3b 45 ec             	cmp    -0x14(%ebp),%eax
   19408:	75 0b                	jne    19415 <kfree+0x192>
   1940a:	8b 45 ec             	mov    -0x14(%ebp),%eax
   1940d:	8b 40 04             	mov    0x4(%eax),%eax
   19410:	a3 18 60 02 00       	mov    %eax,0x26018
   19415:	a1 1c 60 02 00       	mov    0x2601c,%eax
   1941a:	3b 45 ec             	cmp    -0x14(%ebp),%eax
   1941d:	75 0a                	jne    19429 <kfree+0x1a6>
   1941f:	c7 05 1c 60 02 00 00 	movl   $0x0,0x2601c
   19426:	00 00 00 
   19429:	8b 45 ec             	mov    -0x14(%ebp),%eax
   1942c:	8b 00                	mov    (%eax),%eax
   1942e:	85 c0                	test   %eax,%eax
   19430:	74 0e                	je     19440 <kfree+0x1bd>
   19432:	8b 45 ec             	mov    -0x14(%ebp),%eax
   19435:	8b 00                	mov    (%eax),%eax
   19437:	8b 55 ec             	mov    -0x14(%ebp),%edx
   1943a:	8b 52 04             	mov    0x4(%edx),%edx
   1943d:	89 50 04             	mov    %edx,0x4(%eax)
   19440:	8b 45 ec             	mov    -0x14(%ebp),%eax
   19443:	8b 40 04             	mov    0x4(%eax),%eax
   19446:	85 c0                	test   %eax,%eax
   19448:	74 0d                	je     19457 <kfree+0x1d4>
   1944a:	8b 45 ec             	mov    -0x14(%ebp),%eax
   1944d:	8b 40 04             	mov    0x4(%eax),%eax
   19450:	8b 55 ec             	mov    -0x14(%ebp),%edx
   19453:	8b 12                	mov    (%edx),%edx
   19455:	89 10                	mov    %edx,(%eax)
   19457:	a1 00 60 02 00       	mov    0x26000,%eax
   1945c:	8b 15 04 60 02 00    	mov    0x26004,%edx
   19462:	8b 4d ec             	mov    -0x14(%ebp),%ecx
   19465:	8b 49 0c             	mov    0xc(%ecx),%ecx
   19468:	bb 00 00 00 00       	mov    $0x0,%ebx
   1946d:	29 c8                	sub    %ecx,%eax
   1946f:	19 da                	sbb    %ebx,%edx
   19471:	a3 00 60 02 00       	mov    %eax,0x26000
   19476:	89 15 04 60 02 00    	mov    %edx,0x26004
   1947c:	8b 45 ec             	mov    -0x14(%ebp),%eax
   1947f:	8b 40 08             	mov    0x8(%eax),%eax
   19482:	83 ec 08             	sub    $0x8,%esp
   19485:	50                   	push   %eax
   19486:	ff 75 ec             	pushl  -0x14(%ebp)
   19489:	e8 4e 02 00 00       	call   196dc <liballoc_free>
   1948e:	83 c4 10             	add    $0x10,%esp
   19491:	eb 43                	jmp    194d6 <kfree+0x253>
   19493:	a1 1c 60 02 00       	mov    0x2601c,%eax
   19498:	85 c0                	test   %eax,%eax
   1949a:	74 3a                	je     194d6 <kfree+0x253>
   1949c:	a1 1c 60 02 00       	mov    0x2601c,%eax
   194a1:	8b 50 0c             	mov    0xc(%eax),%edx
   194a4:	a1 1c 60 02 00       	mov    0x2601c,%eax
   194a9:	8b 40 10             	mov    0x10(%eax),%eax
   194ac:	29 c2                	sub    %eax,%edx
   194ae:	89 d0                	mov    %edx,%eax
   194b0:	89 45 e8             	mov    %eax,-0x18(%ebp)
   194b3:	8b 45 ec             	mov    -0x14(%ebp),%eax
   194b6:	8b 50 0c             	mov    0xc(%eax),%edx
   194b9:	8b 45 ec             	mov    -0x14(%ebp),%eax
   194bc:	8b 40 10             	mov    0x10(%eax),%eax
   194bf:	29 c2                	sub    %eax,%edx
   194c1:	89 d0                	mov    %edx,%eax
   194c3:	89 45 e4             	mov    %eax,-0x1c(%ebp)
   194c6:	8b 45 e4             	mov    -0x1c(%ebp),%eax
   194c9:	3b 45 e8             	cmp    -0x18(%ebp),%eax
   194cc:	7e 08                	jle    194d6 <kfree+0x253>
   194ce:	8b 45 ec             	mov    -0x14(%ebp),%eax
   194d1:	a3 1c 60 02 00       	mov    %eax,0x2601c
   194d6:	e8 9e 01 00 00       	call   19679 <liballoc_unlock>
   194db:	8b 5d fc             	mov    -0x4(%ebp),%ebx
   194de:	c9                   	leave  
   194df:	c3                   	ret    

000194e0 <kcalloc>:
   194e0:	55                   	push   %ebp
   194e1:	89 e5                	mov    %esp,%ebp
   194e3:	83 ec 18             	sub    $0x18,%esp
   194e6:	8b 45 08             	mov    0x8(%ebp),%eax
   194e9:	0f af 45 0c          	imul   0xc(%ebp),%eax
   194ed:	89 45 f4             	mov    %eax,-0xc(%ebp)
   194f0:	8b 45 f4             	mov    -0xc(%ebp),%eax
   194f3:	83 ec 0c             	sub    $0xc,%esp
   194f6:	50                   	push   %eax
   194f7:	e8 48 f6 ff ff       	call   18b44 <kmalloc>
   194fc:	83 c4 10             	add    $0x10,%esp
   194ff:	89 45 f0             	mov    %eax,-0x10(%ebp)
   19502:	8b 45 f4             	mov    -0xc(%ebp),%eax
   19505:	83 ec 04             	sub    $0x4,%esp
   19508:	50                   	push   %eax
   19509:	6a 00                	push   $0x0
   1950b:	ff 75 f0             	pushl  -0x10(%ebp)
   1950e:	e8 8b f4 ff ff       	call   1899e <liballoc_memset>
   19513:	83 c4 10             	add    $0x10,%esp
   19516:	8b 45 f0             	mov    -0x10(%ebp),%eax
   19519:	c9                   	leave  
   1951a:	c3                   	ret    

0001951b <krealloc>:
   1951b:	55                   	push   %ebp
   1951c:	89 e5                	mov    %esp,%ebp
   1951e:	83 ec 18             	sub    $0x18,%esp
   19521:	83 7d 0c 00          	cmpl   $0x0,0xc(%ebp)
   19525:	75 18                	jne    1953f <krealloc+0x24>
   19527:	83 ec 0c             	sub    $0xc,%esp
   1952a:	ff 75 08             	pushl  0x8(%ebp)
   1952d:	e8 51 fd ff ff       	call   19283 <kfree>
   19532:	83 c4 10             	add    $0x10,%esp
   19535:	b8 00 00 00 00       	mov    $0x0,%eax
   1953a:	e9 2d 01 00 00       	jmp    1966c <krealloc+0x151>
   1953f:	83 7d 08 00          	cmpl   $0x0,0x8(%ebp)
   19543:	75 13                	jne    19558 <krealloc+0x3d>
   19545:	83 ec 0c             	sub    $0xc,%esp
   19548:	ff 75 0c             	pushl  0xc(%ebp)
   1954b:	e8 f4 f5 ff ff       	call   18b44 <kmalloc>
   19550:	83 c4 10             	add    $0x10,%esp
   19553:	e9 14 01 00 00       	jmp    1966c <krealloc+0x151>
   19558:	8b 45 08             	mov    0x8(%ebp),%eax
   1955b:	89 45 f4             	mov    %eax,-0xc(%ebp)
   1955e:	8b 45 f4             	mov    -0xc(%ebp),%eax
   19561:	83 e8 10             	sub    $0x10,%eax
   19564:	0f b6 00             	movzbl (%eax),%eax
   19567:	0f be c0             	movsbl %al,%eax
   1956a:	89 45 f0             	mov    %eax,-0x10(%ebp)
   1956d:	83 7d f0 1f          	cmpl   $0x1f,-0x10(%ebp)
   19571:	77 09                	ja     1957c <krealloc+0x61>
   19573:	8b 45 f4             	mov    -0xc(%ebp),%eax
   19576:	2b 45 f0             	sub    -0x10(%ebp),%eax
   19579:	89 45 f4             	mov    %eax,-0xc(%ebp)
   1957c:	e8 ed 00 00 00       	call   1966e <liballoc_lock>
   19581:	8b 45 f4             	mov    -0xc(%ebp),%eax
   19584:	83 e8 18             	sub    $0x18,%eax
   19587:	89 45 ec             	mov    %eax,-0x14(%ebp)
   1958a:	8b 45 ec             	mov    -0x14(%ebp),%eax
   1958d:	8b 40 0c             	mov    0xc(%eax),%eax
   19590:	3d de c0 01 c0       	cmp    $0xc001c0de,%eax
   19595:	74 76                	je     1960d <krealloc+0xf2>
   19597:	a1 28 60 02 00       	mov    0x26028,%eax
   1959c:	8b 15 2c 60 02 00    	mov    0x2602c,%edx
   195a2:	83 c0 01             	add    $0x1,%eax
   195a5:	83 d2 00             	adc    $0x0,%edx
   195a8:	a3 28 60 02 00       	mov    %eax,0x26028
   195ad:	89 15 2c 60 02 00    	mov    %edx,0x2602c
   195b3:	8b 45 ec             	mov    -0x14(%ebp),%eax
   195b6:	8b 40 0c             	mov    0xc(%eax),%eax
   195b9:	25 ff ff ff 00       	and    $0xffffff,%eax
   195be:	3d de c0 01 00       	cmp    $0x1c0de,%eax
   195c3:	74 20                	je     195e5 <krealloc+0xca>
   195c5:	8b 45 ec             	mov    -0x14(%ebp),%eax
   195c8:	8b 40 0c             	mov    0xc(%eax),%eax
   195cb:	0f b7 c0             	movzwl %ax,%eax
   195ce:	3d de c0 00 00       	cmp    $0xc0de,%eax
   195d3:	74 10                	je     195e5 <krealloc+0xca>
   195d5:	8b 45 ec             	mov    -0x14(%ebp),%eax
   195d8:	8b 40 0c             	mov    0xc(%eax),%eax
   195db:	0f b6 c0             	movzbl %al,%eax
   195de:	3d de 00 00 00       	cmp    $0xde,%eax
   195e3:	75 1c                	jne    19601 <krealloc+0xe6>
   195e5:	a1 30 60 02 00       	mov    0x26030,%eax
   195ea:	8b 15 34 60 02 00    	mov    0x26034,%edx
   195f0:	83 c0 01             	add    $0x1,%eax
   195f3:	83 d2 00             	adc    $0x0,%edx
   195f6:	a3 30 60 02 00       	mov    %eax,0x26030
   195fb:	89 15 34 60 02 00    	mov    %edx,0x26034
   19601:	e8 73 00 00 00       	call   19679 <liballoc_unlock>
   19606:	b8 00 00 00 00       	mov    $0x0,%eax
   1960b:	eb 5f                	jmp    1966c <krealloc+0x151>
   1960d:	8b 45 ec             	mov    -0x14(%ebp),%eax
   19610:	8b 40 14             	mov    0x14(%eax),%eax
   19613:	89 45 e8             	mov    %eax,-0x18(%ebp)
   19616:	8b 45 e8             	mov    -0x18(%ebp),%eax
   19619:	3b 45 0c             	cmp    0xc(%ebp),%eax
   1961c:	72 13                	jb     19631 <krealloc+0x116>
   1961e:	8b 45 ec             	mov    -0x14(%ebp),%eax
   19621:	8b 55 0c             	mov    0xc(%ebp),%edx
   19624:	89 50 14             	mov    %edx,0x14(%eax)
   19627:	e8 4d 00 00 00       	call   19679 <liballoc_unlock>
   1962c:	8b 45 08             	mov    0x8(%ebp),%eax
   1962f:	eb 3b                	jmp    1966c <krealloc+0x151>
   19631:	e8 43 00 00 00       	call   19679 <liballoc_unlock>
   19636:	83 ec 0c             	sub    $0xc,%esp
   19639:	ff 75 0c             	pushl  0xc(%ebp)
   1963c:	e8 03 f5 ff ff       	call   18b44 <kmalloc>
   19641:	83 c4 10             	add    $0x10,%esp
   19644:	89 45 f4             	mov    %eax,-0xc(%ebp)
   19647:	83 ec 04             	sub    $0x4,%esp
   1964a:	ff 75 e8             	pushl  -0x18(%ebp)
   1964d:	ff 75 08             	pushl  0x8(%ebp)
   19650:	ff 75 f4             	pushl  -0xc(%ebp)
   19653:	e8 73 f3 ff ff       	call   189cb <liballoc_memcpy>
   19658:	83 c4 10             	add    $0x10,%esp
   1965b:	83 ec 0c             	sub    $0xc,%esp
   1965e:	ff 75 08             	pushl  0x8(%ebp)
   19661:	e8 1d fc ff ff       	call   19283 <kfree>
   19666:	83 c4 10             	add    $0x10,%esp
   19669:	8b 45 f4             	mov    -0xc(%ebp),%eax
   1966c:	c9                   	leave  
   1966d:	c3                   	ret    

0001966e <liballoc_lock>:
   1966e:	55                   	push   %ebp
   1966f:	89 e5                	mov    %esp,%ebp
   19671:	fa                   	cli    
   19672:	b8 00 00 00 00       	mov    $0x0,%eax
   19677:	5d                   	pop    %ebp
   19678:	c3                   	ret    

00019679 <liballoc_unlock>:
   19679:	55                   	push   %ebp
   1967a:	89 e5                	mov    %esp,%ebp
   1967c:	fb                   	sti    
   1967d:	b8 00 00 00 00       	mov    $0x0,%eax
   19682:	5d                   	pop    %ebp
   19683:	c3                   	ret    

00019684 <liballoc_alloc>:
   19684:	55                   	push   %ebp
   19685:	89 e5                	mov    %esp,%ebp
   19687:	83 ec 18             	sub    $0x18,%esp
   1968a:	8b 45 08             	mov    0x8(%ebp),%eax
   1968d:	83 ec 0c             	sub    $0xc,%esp
   19690:	50                   	push   %eax
   19691:	e8 8f 1e 00 00       	call   1b525 <_Z14pages_allocatej>
   19696:	83 c4 10             	add    $0x10,%esp
   19699:	89 45 f0             	mov    %eax,-0x10(%ebp)
   1969c:	c7 45 f4 00 00 00 00 	movl   $0x0,-0xc(%ebp)
   196a3:	8b 45 f4             	mov    -0xc(%ebp),%eax
   196a6:	3b 45 08             	cmp    0x8(%ebp),%eax
   196a9:	7d 2c                	jge    196d7 <liballoc_alloc+0x53>
   196ab:	e8 81 2d 00 00       	call   1c431 <_Z21physalloc_alloc_blockv>
   196b0:	89 45 ec             	mov    %eax,-0x14(%ebp)
   196b3:	8b 45 f4             	mov    -0xc(%ebp),%eax
   196b6:	c1 e0 0c             	shl    $0xc,%eax
   196b9:	89 c2                	mov    %eax,%edx
   196bb:	8b 45 f0             	mov    -0x10(%ebp),%eax
   196be:	01 d0                	add    %edx,%eax
   196c0:	83 ec 04             	sub    $0x4,%esp
   196c3:	6a 01                	push   $0x1
   196c5:	50                   	push   %eax
   196c6:	ff 75 ec             	pushl  -0x14(%ebp)
   196c9:	e8 d3 1f 00 00       	call   1b6a1 <_Z8map_pagejjj>
   196ce:	83 c4 10             	add    $0x10,%esp
   196d1:	83 45 f4 01          	addl   $0x1,-0xc(%ebp)
   196d5:	eb cc                	jmp    196a3 <liballoc_alloc+0x1f>
   196d7:	8b 45 f0             	mov    -0x10(%ebp),%eax
   196da:	c9                   	leave  
   196db:	c3                   	ret    

000196dc <liballoc_free>:
   196dc:	55                   	push   %ebp
   196dd:	89 e5                	mov    %esp,%ebp
   196df:	83 ec 08             	sub    $0x8,%esp
   196e2:	8b 45 08             	mov    0x8(%ebp),%eax
   196e5:	83 ec 08             	sub    $0x8,%esp
   196e8:	ff 75 0c             	pushl  0xc(%ebp)
   196eb:	50                   	push   %eax
   196ec:	e8 6c 1f 00 00       	call   1b65d <_Z10pages_freejj>
   196f1:	83 c4 10             	add    $0x10,%esp
   196f4:	b8 00 00 00 00       	mov    $0x0,%eax
   196f9:	c9                   	leave  
   196fa:	c3                   	ret    
   196fb:	90                   	nop

000196fc <_ZN7ConsoleC1Etttt>:
   196fc:	55                   	push   %ebp
   196fd:	89 e5                	mov    %esp,%ebp
   196ff:	53                   	push   %ebx
   19700:	83 ec 14             	sub    $0x14,%esp
   19703:	8b 5d 0c             	mov    0xc(%ebp),%ebx
   19706:	8b 4d 10             	mov    0x10(%ebp),%ecx
   19709:	8b 55 14             	mov    0x14(%ebp),%edx
   1970c:	8b 45 18             	mov    0x18(%ebp),%eax
   1970f:	66 89 5d f4          	mov    %bx,-0xc(%ebp)
   19713:	66 89 4d f0          	mov    %cx,-0x10(%ebp)
   19717:	66 89 55 ec          	mov    %dx,-0x14(%ebp)
   1971b:	66 89 45 e8          	mov    %ax,-0x18(%ebp)
   1971f:	8b 45 08             	mov    0x8(%ebp),%eax
   19722:	66 c7 40 04 00 00    	movw   $0x0,0x4(%eax)
   19728:	8b 45 08             	mov    0x8(%ebp),%eax
   1972b:	66 c7 40 06 00 00    	movw   $0x0,0x6(%eax)
   19731:	8b 45 08             	mov    0x8(%ebp),%eax
   19734:	66 c7 40 08 00 00    	movw   $0x0,0x8(%eax)
   1973a:	8b 45 08             	mov    0x8(%ebp),%eax
   1973d:	66 c7 40 0a 00 00    	movw   $0x0,0xa(%eax)
   19743:	8b 45 08             	mov    0x8(%ebp),%eax
   19746:	66 c7 40 0c 00 00    	movw   $0x0,0xc(%eax)
   1974c:	8b 45 08             	mov    0x8(%ebp),%eax
   1974f:	66 c7 40 0e 00 00    	movw   $0x0,0xe(%eax)
   19755:	8b 45 08             	mov    0x8(%ebp),%eax
   19758:	0f b7 55 f4          	movzwl -0xc(%ebp),%edx
   1975c:	66 89 50 08          	mov    %dx,0x8(%eax)
   19760:	8b 45 08             	mov    0x8(%ebp),%eax
   19763:	0f b7 55 f0          	movzwl -0x10(%ebp),%edx
   19767:	66 89 50 0a          	mov    %dx,0xa(%eax)
   1976b:	8b 45 08             	mov    0x8(%ebp),%eax
   1976e:	0f b7 55 ec          	movzwl -0x14(%ebp),%edx
   19772:	66 89 50 0c          	mov    %dx,0xc(%eax)
   19776:	8b 45 08             	mov    0x8(%ebp),%eax
   19779:	0f b7 55 e8          	movzwl -0x18(%ebp),%edx
   1977d:	66 89 50 0e          	mov    %dx,0xe(%eax)
   19781:	8b 45 08             	mov    0x8(%ebp),%eax
   19784:	0f b7 40 0c          	movzwl 0xc(%eax),%eax
   19788:	0f b7 c0             	movzwl %ax,%eax
   1978b:	c1 f8 03             	sar    $0x3,%eax
   1978e:	89 c2                	mov    %eax,%edx
   19790:	8b 45 08             	mov    0x8(%ebp),%eax
   19793:	66 89 10             	mov    %dx,(%eax)
   19796:	8b 45 08             	mov    0x8(%ebp),%eax
   19799:	0f b7 40 0e          	movzwl 0xe(%eax),%eax
   1979d:	0f b7 c0             	movzwl %ax,%eax
   197a0:	c1 f8 03             	sar    $0x3,%eax
   197a3:	89 c2                	mov    %eax,%edx
   197a5:	8b 45 08             	mov    0x8(%ebp),%eax
   197a8:	66 89 50 02          	mov    %dx,0x2(%eax)
   197ac:	8b 45 08             	mov    0x8(%ebp),%eax
   197af:	66 c7 40 04 00 00    	movw   $0x0,0x4(%eax)
   197b5:	8b 45 08             	mov    0x8(%ebp),%eax
   197b8:	66 c7 40 06 00 00    	movw   $0x0,0x6(%eax)
   197be:	8b 45 08             	mov    0x8(%ebp),%eax
   197c1:	0f b7 00             	movzwl (%eax),%eax
   197c4:	0f b7 d0             	movzwl %ax,%edx
   197c7:	8b 45 08             	mov    0x8(%ebp),%eax
   197ca:	0f b7 40 02          	movzwl 0x2(%eax),%eax
   197ce:	0f b7 c0             	movzwl %ax,%eax
   197d1:	0f af c2             	imul   %edx,%eax
   197d4:	c1 e0 02             	shl    $0x2,%eax
   197d7:	83 ec 0c             	sub    $0xc,%esp
   197da:	50                   	push   %eax
   197db:	e8 64 f3 ff ff       	call   18b44 <kmalloc>
   197e0:	83 c4 10             	add    $0x10,%esp
   197e3:	89 c2                	mov    %eax,%edx
   197e5:	8b 45 08             	mov    0x8(%ebp),%eax
   197e8:	89 50 10             	mov    %edx,0x10(%eax)
   197eb:	8b 45 08             	mov    0x8(%ebp),%eax
   197ee:	0f b7 00             	movzwl (%eax),%eax
   197f1:	0f b7 d0             	movzwl %ax,%edx
   197f4:	8b 45 08             	mov    0x8(%ebp),%eax
   197f7:	0f b7 40 02          	movzwl 0x2(%eax),%eax
   197fb:	0f b7 c0             	movzwl %ax,%eax
   197fe:	0f af c2             	imul   %edx,%eax
   19801:	89 c2                	mov    %eax,%edx
   19803:	8b 45 08             	mov    0x8(%ebp),%eax
   19806:	8b 40 10             	mov    0x10(%eax),%eax
   19809:	83 ec 04             	sub    $0x4,%esp
   1980c:	52                   	push   %edx
   1980d:	6a 00                	push   $0x0
   1980f:	50                   	push   %eax
   19810:	e8 60 16 00 00       	call   1ae75 <memset>
   19815:	83 c4 10             	add    $0x10,%esp
   19818:	90                   	nop
   19819:	8b 5d fc             	mov    -0x4(%ebp),%ebx
   1981c:	c9                   	leave  
   1981d:	c3                   	ret    

0001981e <_ZN7Console4putcEchhh>:
   1981e:	55                   	push   %ebp
   1981f:	89 e5                	mov    %esp,%ebp
   19821:	57                   	push   %edi
   19822:	56                   	push   %esi
   19823:	53                   	push   %ebx
   19824:	83 ec 1c             	sub    $0x1c,%esp
   19827:	8b 5d 0c             	mov    0xc(%ebp),%ebx
   1982a:	8b 4d 10             	mov    0x10(%ebp),%ecx
   1982d:	8b 55 14             	mov    0x14(%ebp),%edx
   19830:	8b 45 18             	mov    0x18(%ebp),%eax
   19833:	88 5d e4             	mov    %bl,-0x1c(%ebp)
   19836:	88 4d e0             	mov    %cl,-0x20(%ebp)
   19839:	88 55 dc             	mov    %dl,-0x24(%ebp)
   1983c:	88 45 d8             	mov    %al,-0x28(%ebp)
   1983f:	0f be 45 e4          	movsbl -0x1c(%ebp),%eax
   19843:	83 f8 09             	cmp    $0x9,%eax
   19846:	74 2b                	je     19873 <_ZN7Console4putcEchhh+0x55>
   19848:	83 f8 0a             	cmp    $0xa,%eax
   1984b:	74 07                	je     19854 <_ZN7Console4putcEchhh+0x36>
   1984d:	83 f8 08             	cmp    $0x8,%eax
   19850:	74 37                	je     19889 <_ZN7Console4putcEchhh+0x6b>
   19852:	eb 78                	jmp    198cc <_ZN7Console4putcEchhh+0xae>
   19854:	8b 45 08             	mov    0x8(%ebp),%eax
   19857:	66 c7 40 04 00 00    	movw   $0x0,0x4(%eax)
   1985d:	8b 45 08             	mov    0x8(%ebp),%eax
   19860:	0f b7 40 06          	movzwl 0x6(%eax),%eax
   19864:	8d 50 01             	lea    0x1(%eax),%edx
   19867:	8b 45 08             	mov    0x8(%ebp),%eax
   1986a:	66 89 50 06          	mov    %dx,0x6(%eax)
   1986e:	e9 c4 00 00 00       	jmp    19937 <_ZN7Console4putcEchhh+0x119>
   19873:	8b 45 08             	mov    0x8(%ebp),%eax
   19876:	0f b7 40 04          	movzwl 0x4(%eax),%eax
   1987a:	8d 50 04             	lea    0x4(%eax),%edx
   1987d:	8b 45 08             	mov    0x8(%ebp),%eax
   19880:	66 89 50 04          	mov    %dx,0x4(%eax)
   19884:	e9 ae 00 00 00       	jmp    19937 <_ZN7Console4putcEchhh+0x119>
   19889:	8b 45 08             	mov    0x8(%ebp),%eax
   1988c:	8b 50 10             	mov    0x10(%eax),%edx
   1988f:	8b 45 08             	mov    0x8(%ebp),%eax
   19892:	0f b7 40 06          	movzwl 0x6(%eax),%eax
   19896:	0f b7 c8             	movzwl %ax,%ecx
   19899:	8b 45 08             	mov    0x8(%ebp),%eax
   1989c:	0f b7 00             	movzwl (%eax),%eax
   1989f:	0f b7 c0             	movzwl %ax,%eax
   198a2:	0f af c8             	imul   %eax,%ecx
   198a5:	8b 45 08             	mov    0x8(%ebp),%eax
   198a8:	0f b7 40 04          	movzwl 0x4(%eax),%eax
   198ac:	0f b7 c0             	movzwl %ax,%eax
   198af:	01 c8                	add    %ecx,%eax
   198b1:	c1 e0 02             	shl    $0x2,%eax
   198b4:	01 d0                	add    %edx,%eax
   198b6:	c6 00 00             	movb   $0x0,(%eax)
   198b9:	8b 45 08             	mov    0x8(%ebp),%eax
   198bc:	0f b7 40 04          	movzwl 0x4(%eax),%eax
   198c0:	8d 50 ff             	lea    -0x1(%eax),%edx
   198c3:	8b 45 08             	mov    0x8(%ebp),%eax
   198c6:	66 89 50 04          	mov    %dx,0x4(%eax)
   198ca:	eb 6b                	jmp    19937 <_ZN7Console4putcEchhh+0x119>
   198cc:	0f b6 5d d8          	movzbl -0x28(%ebp),%ebx
   198d0:	0f b6 4d dc          	movzbl -0x24(%ebp),%ecx
   198d4:	0f b6 55 e0          	movzbl -0x20(%ebp),%edx
   198d8:	8b 45 08             	mov    0x8(%ebp),%eax
   198db:	0f b7 40 0a          	movzwl 0xa(%eax),%eax
   198df:	0f b7 f0             	movzwl %ax,%esi
   198e2:	8b 45 08             	mov    0x8(%ebp),%eax
   198e5:	0f b7 40 06          	movzwl 0x6(%eax),%eax
   198e9:	0f b7 c0             	movzwl %ax,%eax
   198ec:	c1 e0 03             	shl    $0x3,%eax
   198ef:	01 f0                	add    %esi,%eax
   198f1:	89 c7                	mov    %eax,%edi
   198f3:	8b 45 08             	mov    0x8(%ebp),%eax
   198f6:	0f b7 40 08          	movzwl 0x8(%eax),%eax
   198fa:	0f b7 f0             	movzwl %ax,%esi
   198fd:	8b 45 08             	mov    0x8(%ebp),%eax
   19900:	0f b7 40 04          	movzwl 0x4(%eax),%eax
   19904:	0f b7 c0             	movzwl %ax,%eax
   19907:	c1 e0 03             	shl    $0x3,%eax
   1990a:	01 f0                	add    %esi,%eax
   1990c:	89 c6                	mov    %eax,%esi
   1990e:	0f be 45 e4          	movsbl -0x1c(%ebp),%eax
   19912:	83 ec 04             	sub    $0x4,%esp
   19915:	6a 01                	push   $0x1
   19917:	53                   	push   %ebx
   19918:	51                   	push   %ecx
   19919:	52                   	push   %edx
   1991a:	57                   	push   %edi
   1991b:	56                   	push   %esi
   1991c:	50                   	push   %eax
   1991d:	e8 cc 5d 00 00       	call   1f6ee <_Z8drawcharcjjhhhi>
   19922:	83 c4 20             	add    $0x20,%esp
   19925:	8b 45 08             	mov    0x8(%ebp),%eax
   19928:	0f b7 40 04          	movzwl 0x4(%eax),%eax
   1992c:	8d 50 01             	lea    0x1(%eax),%edx
   1992f:	8b 45 08             	mov    0x8(%ebp),%eax
   19932:	66 89 50 04          	mov    %dx,0x4(%eax)
   19936:	90                   	nop
   19937:	8b 45 08             	mov    0x8(%ebp),%eax
   1993a:	8b 50 10             	mov    0x10(%eax),%edx
   1993d:	8b 45 08             	mov    0x8(%ebp),%eax
   19940:	0f b7 40 06          	movzwl 0x6(%eax),%eax
   19944:	0f b7 c8             	movzwl %ax,%ecx
   19947:	8b 45 08             	mov    0x8(%ebp),%eax
   1994a:	0f b7 00             	movzwl (%eax),%eax
   1994d:	0f b7 c0             	movzwl %ax,%eax
   19950:	0f af c8             	imul   %eax,%ecx
   19953:	8b 45 08             	mov    0x8(%ebp),%eax
   19956:	0f b7 40 04          	movzwl 0x4(%eax),%eax
   1995a:	0f b7 c0             	movzwl %ax,%eax
   1995d:	01 c8                	add    %ecx,%eax
   1995f:	c1 e0 02             	shl    $0x2,%eax
   19962:	01 d0                	add    %edx,%eax
   19964:	0f b6 55 e4          	movzbl -0x1c(%ebp),%edx
   19968:	88 10                	mov    %dl,(%eax)
   1996a:	0f b6 55 e0          	movzbl -0x20(%ebp),%edx
   1996e:	88 50 01             	mov    %dl,0x1(%eax)
   19971:	0f b6 55 dc          	movzbl -0x24(%ebp),%edx
   19975:	88 50 02             	mov    %dl,0x2(%eax)
   19978:	0f b6 55 d8          	movzbl -0x28(%ebp),%edx
   1997c:	88 50 03             	mov    %dl,0x3(%eax)
   1997f:	8b 45 08             	mov    0x8(%ebp),%eax
   19982:	0f b7 50 04          	movzwl 0x4(%eax),%edx
   19986:	8b 45 08             	mov    0x8(%ebp),%eax
   19989:	0f b7 00             	movzwl (%eax),%eax
   1998c:	66 39 c2             	cmp    %ax,%dx
   1998f:	72 1a                	jb     199ab <_ZN7Console4putcEchhh+0x18d>
   19991:	8b 45 08             	mov    0x8(%ebp),%eax
   19994:	0f b7 40 06          	movzwl 0x6(%eax),%eax
   19998:	8d 50 01             	lea    0x1(%eax),%edx
   1999b:	8b 45 08             	mov    0x8(%ebp),%eax
   1999e:	66 89 50 06          	mov    %dx,0x6(%eax)
   199a2:	8b 45 08             	mov    0x8(%ebp),%eax
   199a5:	66 c7 40 04 00 00    	movw   $0x0,0x4(%eax)
   199ab:	90                   	nop
   199ac:	8d 65 f4             	lea    -0xc(%ebp),%esp
   199af:	5b                   	pop    %ebx
   199b0:	5e                   	pop    %esi
   199b1:	5f                   	pop    %edi
   199b2:	5d                   	pop    %ebp
   199b3:	c3                   	ret    

000199b4 <_ZN7Console4putsEPchhh>:
   199b4:	55                   	push   %ebp
   199b5:	89 e5                	mov    %esp,%ebp
   199b7:	56                   	push   %esi
   199b8:	53                   	push   %ebx
   199b9:	83 ec 20             	sub    $0x20,%esp
   199bc:	8b 4d 10             	mov    0x10(%ebp),%ecx
   199bf:	8b 55 14             	mov    0x14(%ebp),%edx
   199c2:	8b 45 18             	mov    0x18(%ebp),%eax
   199c5:	88 4d e4             	mov    %cl,-0x1c(%ebp)
   199c8:	88 55 e0             	mov    %dl,-0x20(%ebp)
   199cb:	88 45 dc             	mov    %al,-0x24(%ebp)
   199ce:	c7 45 f4 00 00 00 00 	movl   $0x0,-0xc(%ebp)
   199d5:	8b 55 f4             	mov    -0xc(%ebp),%edx
   199d8:	8b 45 0c             	mov    0xc(%ebp),%eax
   199db:	01 d0                	add    %edx,%eax
   199dd:	0f b6 00             	movzbl (%eax),%eax
   199e0:	84 c0                	test   %al,%al
   199e2:	74 36                	je     19a1a <_ZN7Console4putsEPchhh+0x66>
   199e4:	0f b6 5d dc          	movzbl -0x24(%ebp),%ebx
   199e8:	0f b6 4d e0          	movzbl -0x20(%ebp),%ecx
   199ec:	0f b6 55 e4          	movzbl -0x1c(%ebp),%edx
   199f0:	8b 45 f4             	mov    -0xc(%ebp),%eax
   199f3:	8d 70 01             	lea    0x1(%eax),%esi
   199f6:	89 75 f4             	mov    %esi,-0xc(%ebp)
   199f9:	89 c6                	mov    %eax,%esi
   199fb:	8b 45 0c             	mov    0xc(%ebp),%eax
   199fe:	01 f0                	add    %esi,%eax
   19a00:	0f b6 00             	movzbl (%eax),%eax
   19a03:	0f be c0             	movsbl %al,%eax
   19a06:	83 ec 0c             	sub    $0xc,%esp
   19a09:	53                   	push   %ebx
   19a0a:	51                   	push   %ecx
   19a0b:	52                   	push   %edx
   19a0c:	50                   	push   %eax
   19a0d:	ff 75 08             	pushl  0x8(%ebp)
   19a10:	e8 09 fe ff ff       	call   1981e <_ZN7Console4putcEchhh>
   19a15:	83 c4 20             	add    $0x20,%esp
   19a18:	eb bb                	jmp    199d5 <_ZN7Console4putsEPchhh+0x21>
   19a1a:	90                   	nop
   19a1b:	8d 65 f8             	lea    -0x8(%ebp),%esp
   19a1e:	5b                   	pop    %ebx
   19a1f:	5e                   	pop    %esi
   19a20:	5d                   	pop    %ebp
   19a21:	c3                   	ret    

00019a22 <_ZN7Console5clearEhhh>:
   19a22:	55                   	push   %ebp
   19a23:	89 e5                	mov    %esp,%ebp
   19a25:	83 ec 18             	sub    $0x18,%esp
   19a28:	8b 4d 0c             	mov    0xc(%ebp),%ecx
   19a2b:	8b 55 10             	mov    0x10(%ebp),%edx
   19a2e:	8b 45 14             	mov    0x14(%ebp),%eax
   19a31:	88 4d f4             	mov    %cl,-0xc(%ebp)
   19a34:	88 55 f0             	mov    %dl,-0x10(%ebp)
   19a37:	88 45 ec             	mov    %al,-0x14(%ebp)
   19a3a:	8b 45 08             	mov    0x8(%ebp),%eax
   19a3d:	66 c7 40 04 00 00    	movw   $0x0,0x4(%eax)
   19a43:	8b 45 08             	mov    0x8(%ebp),%eax
   19a46:	66 c7 40 06 00 00    	movw   $0x0,0x6(%eax)
   19a4c:	8b 45 08             	mov    0x8(%ebp),%eax
   19a4f:	0f b7 00             	movzwl (%eax),%eax
   19a52:	0f b7 d0             	movzwl %ax,%edx
   19a55:	8b 45 08             	mov    0x8(%ebp),%eax
   19a58:	0f b7 40 02          	movzwl 0x2(%eax),%eax
   19a5c:	0f b7 c0             	movzwl %ax,%eax
   19a5f:	0f af c2             	imul   %edx,%eax
   19a62:	8d 14 85 00 00 00 00 	lea    0x0(,%eax,4),%edx
   19a69:	8b 45 08             	mov    0x8(%ebp),%eax
   19a6c:	8b 40 10             	mov    0x10(%eax),%eax
   19a6f:	83 ec 04             	sub    $0x4,%esp
   19a72:	52                   	push   %edx
   19a73:	6a 00                	push   $0x0
   19a75:	50                   	push   %eax
   19a76:	e8 fa 13 00 00       	call   1ae75 <memset>
   19a7b:	83 c4 10             	add    $0x10,%esp
   19a7e:	90                   	nop
   19a7f:	c9                   	leave  
   19a80:	c3                   	ret    
   19a81:	90                   	nop

00019a82 <_ZN7Console7refreshEv>:
   19a82:	55                   	push   %ebp
   19a83:	89 e5                	mov    %esp,%ebp
   19a85:	57                   	push   %edi
   19a86:	56                   	push   %esi
   19a87:	53                   	push   %ebx
   19a88:	83 ec 1c             	sub    $0x1c,%esp
   19a8b:	8b 45 08             	mov    0x8(%ebp),%eax
   19a8e:	0f b7 40 0e          	movzwl 0xe(%eax),%eax
   19a92:	0f b7 d8             	movzwl %ax,%ebx
   19a95:	8b 45 08             	mov    0x8(%ebp),%eax
   19a98:	0f b7 40 0c          	movzwl 0xc(%eax),%eax
   19a9c:	0f b7 c8             	movzwl %ax,%ecx
   19a9f:	8b 45 08             	mov    0x8(%ebp),%eax
   19aa2:	0f b7 40 0a          	movzwl 0xa(%eax),%eax
   19aa6:	0f b7 d0             	movzwl %ax,%edx
   19aa9:	8b 45 08             	mov    0x8(%ebp),%eax
   19aac:	0f b7 40 08          	movzwl 0x8(%eax),%eax
   19ab0:	0f b7 c0             	movzwl %ax,%eax
   19ab3:	83 ec 04             	sub    $0x4,%esp
   19ab6:	6a 00                	push   $0x0
   19ab8:	6a 00                	push   $0x0
   19aba:	6a 00                	push   $0x0
   19abc:	53                   	push   %ebx
   19abd:	51                   	push   %ecx
   19abe:	52                   	push   %edx
   19abf:	50                   	push   %eax
   19ac0:	e8 b9 5a 00 00       	call   1f57e <_Z15screen_fillrectjjjjhhh>
   19ac5:	83 c4 20             	add    $0x20,%esp
   19ac8:	c7 45 e4 00 00 00 00 	movl   $0x0,-0x1c(%ebp)
   19acf:	8b 45 08             	mov    0x8(%ebp),%eax
   19ad2:	0f b7 40 02          	movzwl 0x2(%eax),%eax
   19ad6:	0f b7 c0             	movzwl %ax,%eax
   19ad9:	3b 45 e4             	cmp    -0x1c(%ebp),%eax
   19adc:	0f 8e b6 00 00 00    	jle    19b98 <_ZN7Console7refreshEv+0x116>
   19ae2:	c7 45 e0 00 00 00 00 	movl   $0x0,-0x20(%ebp)
   19ae9:	8b 45 08             	mov    0x8(%ebp),%eax
   19aec:	0f b7 00             	movzwl (%eax),%eax
   19aef:	0f b7 c0             	movzwl %ax,%eax
   19af2:	3b 45 e0             	cmp    -0x20(%ebp),%eax
   19af5:	0f 8e 94 00 00 00    	jle    19b8f <_ZN7Console7refreshEv+0x10d>
   19afb:	8b 45 08             	mov    0x8(%ebp),%eax
   19afe:	8b 50 10             	mov    0x10(%eax),%edx
   19b01:	8b 45 08             	mov    0x8(%ebp),%eax
   19b04:	0f b7 00             	movzwl (%eax),%eax
   19b07:	0f b7 c0             	movzwl %ax,%eax
   19b0a:	0f af 45 e4          	imul   -0x1c(%ebp),%eax
   19b0e:	89 c1                	mov    %eax,%ecx
   19b10:	8b 45 e0             	mov    -0x20(%ebp),%eax
   19b13:	01 c8                	add    %ecx,%eax
   19b15:	c1 e0 02             	shl    $0x2,%eax
   19b18:	01 d0                	add    %edx,%eax
   19b1a:	8b 00                	mov    (%eax),%eax
   19b1c:	89 45 dc             	mov    %eax,-0x24(%ebp)
   19b1f:	0f b6 45 dc          	movzbl -0x24(%ebp),%eax
   19b23:	3c 0a                	cmp    $0xa,%al
   19b25:	74 5f                	je     19b86 <_ZN7Console7refreshEv+0x104>
   19b27:	0f b6 45 dc          	movzbl -0x24(%ebp),%eax
   19b2b:	84 c0                	test   %al,%al
   19b2d:	74 57                	je     19b86 <_ZN7Console7refreshEv+0x104>
   19b2f:	0f b6 45 df          	movzbl -0x21(%ebp),%eax
   19b33:	0f b6 d8             	movzbl %al,%ebx
   19b36:	0f b6 45 de          	movzbl -0x22(%ebp),%eax
   19b3a:	0f b6 c8             	movzbl %al,%ecx
   19b3d:	0f b6 45 dd          	movzbl -0x23(%ebp),%eax
   19b41:	0f b6 d0             	movzbl %al,%edx
   19b44:	8b 45 08             	mov    0x8(%ebp),%eax
   19b47:	0f b7 40 0a          	movzwl 0xa(%eax),%eax
   19b4b:	0f b7 c0             	movzwl %ax,%eax
   19b4e:	8b 75 e4             	mov    -0x1c(%ebp),%esi
   19b51:	c1 e6 03             	shl    $0x3,%esi
   19b54:	01 f0                	add    %esi,%eax
   19b56:	89 c7                	mov    %eax,%edi
   19b58:	8b 45 08             	mov    0x8(%ebp),%eax
   19b5b:	0f b7 40 08          	movzwl 0x8(%eax),%eax
   19b5f:	0f b7 c0             	movzwl %ax,%eax
   19b62:	8b 75 e0             	mov    -0x20(%ebp),%esi
   19b65:	c1 e6 03             	shl    $0x3,%esi
   19b68:	01 f0                	add    %esi,%eax
   19b6a:	89 c6                	mov    %eax,%esi
   19b6c:	0f b6 45 dc          	movzbl -0x24(%ebp),%eax
   19b70:	0f be c0             	movsbl %al,%eax
   19b73:	83 ec 04             	sub    $0x4,%esp
   19b76:	6a 01                	push   $0x1
   19b78:	53                   	push   %ebx
   19b79:	51                   	push   %ecx
   19b7a:	52                   	push   %edx
   19b7b:	57                   	push   %edi
   19b7c:	56                   	push   %esi
   19b7d:	50                   	push   %eax
   19b7e:	e8 6b 5b 00 00       	call   1f6ee <_Z8drawcharcjjhhhi>
   19b83:	83 c4 20             	add    $0x20,%esp
   19b86:	83 45 e0 01          	addl   $0x1,-0x20(%ebp)
   19b8a:	e9 5a ff ff ff       	jmp    19ae9 <_ZN7Console7refreshEv+0x67>
   19b8f:	83 45 e4 01          	addl   $0x1,-0x1c(%ebp)
   19b93:	e9 37 ff ff ff       	jmp    19acf <_ZN7Console7refreshEv+0x4d>
   19b98:	90                   	nop
   19b99:	8d 65 f4             	lea    -0xc(%ebp),%esp
   19b9c:	5b                   	pop    %ebx
   19b9d:	5e                   	pop    %esi
   19b9e:	5f                   	pop    %edi
   19b9f:	5d                   	pop    %ebp
   19ba0:	c3                   	ret    
   19ba1:	90                   	nop

00019ba2 <_ZN7Console8relocateEtt>:
   19ba2:	55                   	push   %ebp
   19ba3:	89 e5                	mov    %esp,%ebp
   19ba5:	83 ec 08             	sub    $0x8,%esp
   19ba8:	8b 55 0c             	mov    0xc(%ebp),%edx
   19bab:	8b 45 10             	mov    0x10(%ebp),%eax
   19bae:	66 89 55 fc          	mov    %dx,-0x4(%ebp)
   19bb2:	66 89 45 f8          	mov    %ax,-0x8(%ebp)
   19bb6:	8b 45 08             	mov    0x8(%ebp),%eax
   19bb9:	0f b7 55 fc          	movzwl -0x4(%ebp),%edx
   19bbd:	66 89 50 08          	mov    %dx,0x8(%eax)
   19bc1:	8b 45 08             	mov    0x8(%ebp),%eax
   19bc4:	0f b7 55 f8          	movzwl -0x8(%ebp),%edx
   19bc8:	66 89 50 0a          	mov    %dx,0xa(%eax)
   19bcc:	90                   	nop
   19bcd:	c9                   	leave  
   19bce:	c3                   	ret    

00019bcf <_Z14cpuid_get_infov>:
   19bcf:	55                   	push   %ebp
   19bd0:	89 e5                	mov    %esp,%ebp
   19bd2:	53                   	push   %ebx
   19bd3:	83 ec 24             	sub    $0x24,%esp
   19bd6:	83 ec 0c             	sub    $0xc,%esp
   19bd9:	ff 75 08             	pushl  0x8(%ebp)
   19bdc:	e8 89 6f 00 00       	call   20b6a <_ZN12cpuid_info_tC1Ev>
   19be1:	83 c4 10             	add    $0x10,%esp
   19be4:	b8 00 00 00 00       	mov    $0x0,%eax
   19be9:	0f a2                	cpuid  
   19beb:	89 c8                	mov    %ecx,%eax
   19bed:	89 5d e8             	mov    %ebx,-0x18(%ebp)
   19bf0:	89 55 e4             	mov    %edx,-0x1c(%ebp)
   19bf3:	89 45 e0             	mov    %eax,-0x20(%ebp)
   19bf6:	c7 45 f4 00 00 00 00 	movl   $0x0,-0xc(%ebp)
   19bfd:	83 7d f4 03          	cmpl   $0x3,-0xc(%ebp)
   19c01:	7f 21                	jg     19c24 <_Z14cpuid_get_infov+0x55>
   19c03:	8b 45 f4             	mov    -0xc(%ebp),%eax
   19c06:	c1 e0 03             	shl    $0x3,%eax
   19c09:	8b 55 e8             	mov    -0x18(%ebp),%edx
   19c0c:	89 c1                	mov    %eax,%ecx
   19c0e:	d3 ea                	shr    %cl,%edx
   19c10:	89 d0                	mov    %edx,%eax
   19c12:	89 c1                	mov    %eax,%ecx
   19c14:	8b 55 08             	mov    0x8(%ebp),%edx
   19c17:	8b 45 f4             	mov    -0xc(%ebp),%eax
   19c1a:	01 d0                	add    %edx,%eax
   19c1c:	88 08                	mov    %cl,(%eax)
   19c1e:	83 45 f4 01          	addl   $0x1,-0xc(%ebp)
   19c22:	eb d9                	jmp    19bfd <_Z14cpuid_get_infov+0x2e>
   19c24:	c7 45 f0 00 00 00 00 	movl   $0x0,-0x10(%ebp)
   19c2b:	83 7d f0 03          	cmpl   $0x3,-0x10(%ebp)
   19c2f:	7f 23                	jg     19c54 <_Z14cpuid_get_infov+0x85>
   19c31:	8b 45 f0             	mov    -0x10(%ebp),%eax
   19c34:	8d 50 04             	lea    0x4(%eax),%edx
   19c37:	8b 45 f0             	mov    -0x10(%ebp),%eax
   19c3a:	c1 e0 03             	shl    $0x3,%eax
   19c3d:	8b 5d e4             	mov    -0x1c(%ebp),%ebx
   19c40:	89 c1                	mov    %eax,%ecx
   19c42:	d3 eb                	shr    %cl,%ebx
   19c44:	89 d8                	mov    %ebx,%eax
   19c46:	89 c1                	mov    %eax,%ecx
   19c48:	8b 45 08             	mov    0x8(%ebp),%eax
   19c4b:	88 0c 10             	mov    %cl,(%eax,%edx,1)
   19c4e:	83 45 f0 01          	addl   $0x1,-0x10(%ebp)
   19c52:	eb d7                	jmp    19c2b <_Z14cpuid_get_infov+0x5c>
   19c54:	c7 45 ec 00 00 00 00 	movl   $0x0,-0x14(%ebp)
   19c5b:	83 7d ec 03          	cmpl   $0x3,-0x14(%ebp)
   19c5f:	7f 23                	jg     19c84 <_Z14cpuid_get_infov+0xb5>
   19c61:	8b 45 ec             	mov    -0x14(%ebp),%eax
   19c64:	8d 50 08             	lea    0x8(%eax),%edx
   19c67:	8b 45 ec             	mov    -0x14(%ebp),%eax
   19c6a:	c1 e0 03             	shl    $0x3,%eax
   19c6d:	8b 5d e0             	mov    -0x20(%ebp),%ebx
   19c70:	89 c1                	mov    %eax,%ecx
   19c72:	d3 eb                	shr    %cl,%ebx
   19c74:	89 d8                	mov    %ebx,%eax
   19c76:	89 c1                	mov    %eax,%ecx
   19c78:	8b 45 08             	mov    0x8(%ebp),%eax
   19c7b:	88 0c 10             	mov    %cl,(%eax,%edx,1)
   19c7e:	83 45 ec 01          	addl   $0x1,-0x14(%ebp)
   19c82:	eb d7                	jmp    19c5b <_Z14cpuid_get_infov+0x8c>
   19c84:	b8 01 00 00 00       	mov    $0x1,%eax
   19c89:	0f a2                	cpuid  
   19c8b:	89 c8                	mov    %ecx,%eax
   19c8d:	89 55 e4             	mov    %edx,-0x1c(%ebp)
   19c90:	89 45 e0             	mov    %eax,-0x20(%ebp)
   19c93:	8b 45 08             	mov    0x8(%ebp),%eax
   19c96:	8b 55 e0             	mov    -0x20(%ebp),%edx
   19c99:	89 50 0d             	mov    %edx,0xd(%eax)
   19c9c:	8b 45 08             	mov    0x8(%ebp),%eax
   19c9f:	8b 55 e4             	mov    -0x1c(%ebp),%edx
   19ca2:	89 50 11             	mov    %edx,0x11(%eax)
   19ca5:	90                   	nop
   19ca6:	8b 45 08             	mov    0x8(%ebp),%eax
   19ca9:	8b 5d fc             	mov    -0x4(%ebp),%ebx
   19cac:	c9                   	leave  
   19cad:	c2 04 00             	ret    $0x4

00019cb0 <fatal_error>:
   19cb0:	55                   	push   %ebp
   19cb1:	89 e5                	mov    %esp,%ebp
   19cb3:	83 ec 08             	sub    $0x8,%esp
   19cb6:	83 ec 0c             	sub    $0xc,%esp
   19cb9:	ff 75 08             	pushl  0x8(%ebp)
   19cbc:	e8 67 31 00 00       	call   1ce28 <_Z19write_serial_stringPc>
   19cc1:	83 c4 10             	add    $0x10,%esp
   19cc4:	83 ec 0c             	sub    $0xc,%esp
   19cc7:	6a 0a                	push   $0xa
   19cc9:	e8 23 31 00 00       	call   1cdf1 <_Z12write_serialc>
   19cce:	83 c4 10             	add    $0x10,%esp
   19cd1:	83 ec 0c             	sub    $0xc,%esp
   19cd4:	ff 75 0c             	pushl  0xc(%ebp)
   19cd7:	e8 4c 31 00 00       	call   1ce28 <_Z19write_serial_stringPc>
   19cdc:	83 c4 10             	add    $0x10,%esp
   19cdf:	83 ec 04             	sub    $0x4,%esp
   19ce2:	6a 00                	push   $0x0
   19ce4:	6a 00                	push   $0x0
   19ce6:	68 ff 00 00 00       	push   $0xff
   19ceb:	e8 8b 57 00 00       	call   1f47b <_Z19screen_clear_directhhh>
   19cf0:	83 c4 10             	add    $0x10,%esp
   19cf3:	83 ec 04             	sub    $0x4,%esp
   19cf6:	6a 02                	push   $0x2
   19cf8:	68 ff 00 00 00       	push   $0xff
   19cfd:	68 ff 00 00 00       	push   $0xff
   19d02:	68 ff 00 00 00       	push   $0xff
   19d07:	6a 0a                	push   $0xa
   19d09:	6a 02                	push   $0x2
   19d0b:	68 38 18 02 00       	push   $0x21838
   19d10:	e8 05 5c 00 00       	call   1f91a <_Z17drawstring_directPcjjhhhi>
   19d15:	83 c4 20             	add    $0x20,%esp
   19d18:	83 ec 04             	sub    $0x4,%esp
   19d1b:	6a 02                	push   $0x2
   19d1d:	68 ff 00 00 00       	push   $0xff
   19d22:	68 ff 00 00 00       	push   $0xff
   19d27:	68 ff 00 00 00       	push   $0xff
   19d2c:	6a 1e                	push   $0x1e
   19d2e:	6a 02                	push   $0x2
   19d30:	68 5d 18 02 00       	push   $0x2185d
   19d35:	e8 e0 5b 00 00       	call   1f91a <_Z17drawstring_directPcjjhhhi>
   19d3a:	83 c4 20             	add    $0x20,%esp
   19d3d:	83 ec 04             	sub    $0x4,%esp
   19d40:	6a 02                	push   $0x2
   19d42:	68 ff 00 00 00       	push   $0xff
   19d47:	68 ff 00 00 00       	push   $0xff
   19d4c:	68 ff 00 00 00       	push   $0xff
   19d51:	6a 3c                	push   $0x3c
   19d53:	6a 02                	push   $0x2
   19d55:	ff 75 08             	pushl  0x8(%ebp)
   19d58:	e8 bd 5b 00 00       	call   1f91a <_Z17drawstring_directPcjjhhhi>
   19d5d:	83 c4 20             	add    $0x20,%esp
   19d60:	83 ec 04             	sub    $0x4,%esp
   19d63:	6a 02                	push   $0x2
   19d65:	68 ff 00 00 00       	push   $0xff
   19d6a:	68 ff 00 00 00       	push   $0xff
   19d6f:	68 ff 00 00 00       	push   $0xff
   19d74:	6a 50                	push   $0x50
   19d76:	6a 02                	push   $0x2
   19d78:	ff 75 0c             	pushl  0xc(%ebp)
   19d7b:	e8 9a 5b 00 00       	call   1f91a <_Z17drawstring_directPcjjhhhi>
   19d80:	83 c4 20             	add    $0x20,%esp
   19d83:	83 ec 0c             	sub    $0xc,%esp
   19d86:	68 80 16 02 00       	push   $0x21680
   19d8b:	6a 0d                	push   $0xd
   19d8d:	6a 14                	push   $0x14
   19d8f:	6a 64                	push   $0x64
   19d91:	6a 02                	push   $0x2
   19d93:	e8 f4 5b 00 00       	call   1f98c <_Z19drawgrayscalebitmapjjjjPh>
   19d98:	83 c4 20             	add    $0x20,%esp
   19d9b:	fa                   	cli    
   19d9c:	f4                   	hlt    
   19d9d:	eb fe                	jmp    19d9d <fatal_error+0xed>

00019d9f <_ZL12gdt_set_gateijjhh>:
   19d9f:	55                   	push   %ebp
   19da0:	89 e5                	mov    %esp,%ebp
   19da2:	83 ec 08             	sub    $0x8,%esp
   19da5:	8b 55 14             	mov    0x14(%ebp),%edx
   19da8:	8b 45 18             	mov    0x18(%ebp),%eax
   19dab:	88 55 fc             	mov    %dl,-0x4(%ebp)
   19dae:	88 45 f8             	mov    %al,-0x8(%ebp)
   19db1:	8b 45 0c             	mov    0xc(%ebp),%eax
   19db4:	c1 e8 18             	shr    $0x18,%eax
   19db7:	89 c2                	mov    %eax,%edx
   19db9:	8b 45 08             	mov    0x8(%ebp),%eax
   19dbc:	88 14 c5 87 60 02 00 	mov    %dl,0x26087(,%eax,8)
   19dc3:	8b 45 0c             	mov    0xc(%ebp),%eax
   19dc6:	c1 e8 10             	shr    $0x10,%eax
   19dc9:	89 c2                	mov    %eax,%edx
   19dcb:	8b 45 08             	mov    0x8(%ebp),%eax
   19dce:	88 14 c5 84 60 02 00 	mov    %dl,0x26084(,%eax,8)
   19dd5:	8b 45 0c             	mov    0xc(%ebp),%eax
   19dd8:	89 c2                	mov    %eax,%edx
   19dda:	8b 45 08             	mov    0x8(%ebp),%eax
   19ddd:	66 89 14 c5 82 60 02 	mov    %dx,0x26082(,%eax,8)
   19de4:	00 
   19de5:	8b 45 10             	mov    0x10(%ebp),%eax
   19de8:	89 c2                	mov    %eax,%edx
   19dea:	8b 45 08             	mov    0x8(%ebp),%eax
   19ded:	66 89 14 c5 80 60 02 	mov    %dx,0x26080(,%eax,8)
   19df4:	00 
   19df5:	8b 45 10             	mov    0x10(%ebp),%eax
   19df8:	c1 e8 10             	shr    $0x10,%eax
   19dfb:	83 e0 0f             	and    $0xf,%eax
   19dfe:	89 c2                	mov    %eax,%edx
   19e00:	8b 45 08             	mov    0x8(%ebp),%eax
   19e03:	88 14 c5 86 60 02 00 	mov    %dl,0x26086(,%eax,8)
   19e0a:	8b 45 08             	mov    0x8(%ebp),%eax
   19e0d:	0f b6 04 c5 86 60 02 	movzbl 0x26086(,%eax,8),%eax
   19e14:	00 
   19e15:	89 c2                	mov    %eax,%edx
   19e17:	0f b6 45 f8          	movzbl -0x8(%ebp),%eax
   19e1b:	83 e0 f0             	and    $0xfffffff0,%eax
   19e1e:	09 d0                	or     %edx,%eax
   19e20:	89 c2                	mov    %eax,%edx
   19e22:	8b 45 08             	mov    0x8(%ebp),%eax
   19e25:	88 14 c5 86 60 02 00 	mov    %dl,0x26086(,%eax,8)
   19e2c:	8b 45 08             	mov    0x8(%ebp),%eax
   19e2f:	0f b6 55 fc          	movzbl -0x4(%ebp),%edx
   19e33:	88 14 c5 85 60 02 00 	mov    %dl,0x26085(,%eax,8)
   19e3a:	90                   	nop
   19e3b:	c9                   	leave  
   19e3c:	c3                   	ret    

00019e3d <_Z14gdt_initializev>:
   19e3d:	55                   	push   %ebp
   19e3e:	89 e5                	mov    %esp,%ebp
   19e40:	83 ec 08             	sub    $0x8,%esp
   19e43:	ba 08 00 00 00       	mov    $0x8,%edx
   19e48:	89 d0                	mov    %edx,%eax
   19e4a:	c1 e0 02             	shl    $0x2,%eax
   19e4d:	01 d0                	add    %edx,%eax
   19e4f:	83 e8 01             	sub    $0x1,%eax
   19e52:	66 a3 a8 60 02 00    	mov    %ax,0x260a8
   19e58:	b8 80 60 02 00       	mov    $0x26080,%eax
   19e5d:	a3 aa 60 02 00       	mov    %eax,0x260aa
   19e62:	6a 00                	push   $0x0
   19e64:	6a 00                	push   $0x0
   19e66:	6a 00                	push   $0x0
   19e68:	6a 00                	push   $0x0
   19e6a:	6a 00                	push   $0x0
   19e6c:	e8 2e ff ff ff       	call   19d9f <_ZL12gdt_set_gateijjhh>
   19e71:	83 c4 14             	add    $0x14,%esp
   19e74:	68 cf 00 00 00       	push   $0xcf
   19e79:	68 9a 00 00 00       	push   $0x9a
   19e7e:	6a ff                	push   $0xffffffff
   19e80:	6a 00                	push   $0x0
   19e82:	6a 01                	push   $0x1
   19e84:	e8 16 ff ff ff       	call   19d9f <_ZL12gdt_set_gateijjhh>
   19e89:	83 c4 14             	add    $0x14,%esp
   19e8c:	68 cf 00 00 00       	push   $0xcf
   19e91:	68 92 00 00 00       	push   $0x92
   19e96:	6a ff                	push   $0xffffffff
   19e98:	6a 00                	push   $0x0
   19e9a:	6a 02                	push   $0x2
   19e9c:	e8 fe fe ff ff       	call   19d9f <_ZL12gdt_set_gateijjhh>
   19ea1:	83 c4 14             	add    $0x14,%esp
   19ea4:	68 cf 00 00 00       	push   $0xcf
   19ea9:	68 fa 00 00 00       	push   $0xfa
   19eae:	6a ff                	push   $0xffffffff
   19eb0:	6a 00                	push   $0x0
   19eb2:	6a 03                	push   $0x3
   19eb4:	e8 e6 fe ff ff       	call   19d9f <_ZL12gdt_set_gateijjhh>
   19eb9:	83 c4 14             	add    $0x14,%esp
   19ebc:	68 cf 00 00 00       	push   $0xcf
   19ec1:	68 f2 00 00 00       	push   $0xf2
   19ec6:	6a ff                	push   $0xffffffff
   19ec8:	6a 00                	push   $0x0
   19eca:	6a 04                	push   $0x4
   19ecc:	e8 ce fe ff ff       	call   19d9f <_ZL12gdt_set_gateijjhh>
   19ed1:	83 c4 14             	add    $0x14,%esp
   19ed4:	b8 a8 60 02 00       	mov    $0x260a8,%eax
   19ed9:	83 ec 0c             	sub    $0xc,%esp
   19edc:	50                   	push   %eax
   19edd:	e8 0e e8 ff ff       	call   186f0 <gdt_flush>
   19ee2:	83 c4 10             	add    $0x10,%esp
   19ee5:	90                   	nop
   19ee6:	c9                   	leave  
   19ee7:	c3                   	ret    

00019ee8 <_ZN3HAL15initialize_coreE16multiboot_info_t>:
   19ee8:	55                   	push   %ebp
   19ee9:	89 e5                	mov    %esp,%ebp
   19eeb:	57                   	push   %edi
   19eec:	56                   	push   %esi
   19eed:	83 ec 10             	sub    $0x10,%esp
   19ef0:	ba 80 61 02 00       	mov    $0x26180,%edx
   19ef5:	8d 45 08             	lea    0x8(%ebp),%eax
   19ef8:	b9 1b 00 00 00       	mov    $0x1b,%ecx
   19efd:	89 d7                	mov    %edx,%edi
   19eff:	89 c6                	mov    %eax,%esi
   19f01:	f3 a5                	rep movsl %ds:(%esi),%es:(%edi)
   19f03:	89 f0                	mov    %esi,%eax
   19f05:	89 fa                	mov    %edi,%edx
   19f07:	0f b7 08             	movzwl (%eax),%ecx
   19f0a:	66 89 0a             	mov    %cx,(%edx)
   19f0d:	8d 52 02             	lea    0x2(%edx),%edx
   19f10:	8d 40 02             	lea    0x2(%eax),%eax
   19f13:	e8 2e 2e 00 00       	call   1cd46 <_Z11init_serialv>
   19f18:	83 ec 0c             	sub    $0xc,%esp
   19f1b:	68 79 18 02 00       	push   $0x21879
   19f20:	e8 03 2f 00 00       	call   1ce28 <_Z19write_serial_stringPc>
   19f25:	83 c4 10             	add    $0x10,%esp
   19f28:	e8 10 ff ff ff       	call   19e3d <_Z14gdt_initializev>
   19f2d:	e8 f0 01 00 00       	call   1a122 <_Z14idt_initializev>
   19f32:	e8 3d 19 00 00       	call   1b874 <_Z17paging_initializev>
   19f37:	8b 45 34             	mov    0x34(%ebp),%eax
   19f3a:	c1 e8 0c             	shr    $0xc,%eax
   19f3d:	8d 48 01             	lea    0x1(%eax),%ecx
   19f40:	8b 55 38             	mov    0x38(%ebp),%edx
   19f43:	8b 45 38             	mov    0x38(%ebp),%eax
   19f46:	83 ec 04             	sub    $0x4,%esp
   19f49:	51                   	push   %ecx
   19f4a:	52                   	push   %edx
   19f4b:	50                   	push   %eax
   19f4c:	e8 50 17 00 00       	call   1b6a1 <_Z8map_pagejjj>
   19f51:	83 c4 10             	add    $0x10,%esp
   19f54:	8b 45 38             	mov    0x38(%ebp),%eax
   19f57:	89 45 f4             	mov    %eax,-0xc(%ebp)
   19f5a:	8b 45 10             	mov    0x10(%ebp),%eax
   19f5d:	a3 44 61 02 00       	mov    %eax,0x26144
   19f62:	8b 45 0c             	mov    0xc(%ebp),%eax
   19f65:	a3 40 61 02 00       	mov    %eax,0x26140
   19f6a:	8b 45 f4             	mov    -0xc(%ebp),%eax
   19f6d:	a3 48 61 02 00       	mov    %eax,0x26148
   19f72:	8b 45 34             	mov    0x34(%ebp),%eax
   19f75:	a3 4c 61 02 00       	mov    %eax,0x2614c
   19f7a:	83 ec 0c             	sub    $0xc,%esp
   19f7d:	68 40 61 02 00       	push   $0x26140
   19f82:	e8 ef 22 00 00       	call   1c276 <_Z14physalloc_initP13memory_info_t>
   19f87:	83 c4 10             	add    $0x10,%esp
   19f8a:	90                   	nop
   19f8b:	8d 65 f8             	lea    -0x8(%ebp),%esp
   19f8e:	5e                   	pop    %esi
   19f8f:	5f                   	pop    %edi
   19f90:	5d                   	pop    %ebp
   19f91:	c3                   	ret    

00019f92 <_ZN3HAL16initialize_videoEv>:
   19f92:	55                   	push   %ebp
   19f93:	89 e5                	mov    %esp,%ebp
   19f95:	53                   	push   %ebx
   19f96:	83 ec 14             	sub    $0x14,%esp
   19f99:	8b 15 e8 61 02 00    	mov    0x261e8,%edx
   19f9f:	a1 e0 61 02 00       	mov    0x261e0,%eax
   19fa4:	0f af c2             	imul   %edx,%eax
   19fa7:	89 45 f4             	mov    %eax,-0xc(%ebp)
   19faa:	8b 45 f4             	mov    -0xc(%ebp),%eax
   19fad:	c1 e8 0c             	shr    $0xc,%eax
   19fb0:	8d 48 01             	lea    0x1(%eax),%ecx
   19fb3:	a1 d8 61 02 00       	mov    0x261d8,%eax
   19fb8:	8b 15 dc 61 02 00    	mov    0x261dc,%edx
   19fbe:	89 c3                	mov    %eax,%ebx
   19fc0:	a1 d8 61 02 00       	mov    0x261d8,%eax
   19fc5:	8b 15 dc 61 02 00    	mov    0x261dc,%edx
   19fcb:	83 ec 04             	sub    $0x4,%esp
   19fce:	51                   	push   %ecx
   19fcf:	53                   	push   %ebx
   19fd0:	50                   	push   %eax
   19fd1:	e8 cb 16 00 00       	call   1b6a1 <_Z8map_pagejjj>
   19fd6:	83 c4 10             	add    $0x10,%esp
   19fd9:	a1 d8 61 02 00       	mov    0x261d8,%eax
   19fde:	8b 15 dc 61 02 00    	mov    0x261dc,%edx
   19fe4:	83 ec 08             	sub    $0x8,%esp
   19fe7:	ff 75 f4             	pushl  -0xc(%ebp)
   19fea:	50                   	push   %eax
   19feb:	e8 a9 23 00 00       	call   1c399 <_Z26physalloc_mark_region_usedjj>
   19ff0:	83 c4 10             	add    $0x10,%esp
   19ff3:	a1 e4 61 02 00       	mov    0x261e4,%eax
   19ff8:	a3 50 61 02 00       	mov    %eax,0x26150
   19ffd:	a1 e8 61 02 00       	mov    0x261e8,%eax
   1a002:	a3 54 61 02 00       	mov    %eax,0x26154
   1a007:	0f b6 05 ec 61 02 00 	movzbl 0x261ec,%eax
   1a00e:	0f b6 c0             	movzbl %al,%eax
   1a011:	66 a3 58 61 02 00    	mov    %ax,0x26158
   1a017:	a1 e0 61 02 00       	mov    0x261e0,%eax
   1a01c:	a3 5c 61 02 00       	mov    %eax,0x2615c
   1a021:	a1 d8 61 02 00       	mov    0x261d8,%eax
   1a026:	8b 15 dc 61 02 00    	mov    0x261dc,%edx
   1a02c:	a3 64 61 02 00       	mov    %eax,0x26164
   1a031:	c7 05 60 61 02 00 01 	movl   $0x1,0x26160
   1a038:	00 00 00 
   1a03b:	83 ec 08             	sub    $0x8,%esp
   1a03e:	ff 35 64 61 02 00    	pushl  0x26164
   1a044:	ff 35 60 61 02 00    	pushl  0x26160
   1a04a:	ff 35 5c 61 02 00    	pushl  0x2615c
   1a050:	ff 35 58 61 02 00    	pushl  0x26158
   1a056:	ff 35 54 61 02 00    	pushl  0x26154
   1a05c:	ff 35 50 61 02 00    	pushl  0x26150
   1a062:	e8 c2 52 00 00       	call   1f329 <_Z16video_initialize12video_mode_t>
   1a067:	83 c4 20             	add    $0x20,%esp
   1a06a:	90                   	nop
   1a06b:	8b 5d fc             	mov    -0x4(%ebp),%ebx
   1a06e:	c9                   	leave  
   1a06f:	c3                   	ret    

0001a070 <_ZN3HAL14initialize_hidEv>:
   1a070:	55                   	push   %ebp
   1a071:	89 e5                	mov    %esp,%ebp
   1a073:	90                   	nop
   1a074:	5d                   	pop    %ebp
   1a075:	c3                   	ret    

0001a076 <_ZN3HAL14initialize_allE16multiboot_info_t>:
   1a076:	55                   	push   %ebp
   1a077:	89 e5                	mov    %esp,%ebp
   1a079:	57                   	push   %edi
   1a07a:	56                   	push   %esi
   1a07b:	83 ec 70             	sub    $0x70,%esp
   1a07e:	89 e0                	mov    %esp,%eax
   1a080:	89 c2                	mov    %eax,%edx
   1a082:	8d 45 08             	lea    0x8(%ebp),%eax
   1a085:	b9 1b 00 00 00       	mov    $0x1b,%ecx
   1a08a:	89 d7                	mov    %edx,%edi
   1a08c:	89 c6                	mov    %eax,%esi
   1a08e:	f3 a5                	rep movsl %ds:(%esi),%es:(%edi)
   1a090:	89 f0                	mov    %esi,%eax
   1a092:	89 fa                	mov    %edi,%edx
   1a094:	0f b7 08             	movzwl (%eax),%ecx
   1a097:	66 89 0a             	mov    %cx,(%edx)
   1a09a:	8d 52 02             	lea    0x2(%edx),%edx
   1a09d:	8d 40 02             	lea    0x2(%eax),%eax
   1a0a0:	e8 43 fe ff ff       	call   19ee8 <_ZN3HAL15initialize_coreE16multiboot_info_t>
   1a0a5:	83 c4 70             	add    $0x70,%esp
   1a0a8:	e8 e5 fe ff ff       	call   19f92 <_ZN3HAL16initialize_videoEv>
   1a0ad:	e8 be ff ff ff       	call   1a070 <_ZN3HAL14initialize_hidEv>
   1a0b2:	90                   	nop
   1a0b3:	8d 65 f8             	lea    -0x8(%ebp),%esp
   1a0b6:	5e                   	pop    %esi
   1a0b7:	5f                   	pop    %edi
   1a0b8:	5d                   	pop    %ebp
   1a0b9:	c3                   	ret    

0001a0ba <_ZL12idt_set_gatehjth>:
   1a0ba:	55                   	push   %ebp
   1a0bb:	89 e5                	mov    %esp,%ebp
   1a0bd:	83 ec 0c             	sub    $0xc,%esp
   1a0c0:	8b 4d 08             	mov    0x8(%ebp),%ecx
   1a0c3:	8b 55 10             	mov    0x10(%ebp),%edx
   1a0c6:	8b 45 14             	mov    0x14(%ebp),%eax
   1a0c9:	88 4d fc             	mov    %cl,-0x4(%ebp)
   1a0cc:	66 89 55 f8          	mov    %dx,-0x8(%ebp)
   1a0d0:	88 45 f4             	mov    %al,-0xc(%ebp)
   1a0d3:	0f b6 45 fc          	movzbl -0x4(%ebp),%eax
   1a0d7:	8b 55 0c             	mov    0xc(%ebp),%edx
   1a0da:	c1 ea 10             	shr    $0x10,%edx
   1a0dd:	66 89 14 c5 06 62 02 	mov    %dx,0x26206(,%eax,8)
   1a0e4:	00 
   1a0e5:	0f b6 45 fc          	movzbl -0x4(%ebp),%eax
   1a0e9:	8b 55 0c             	mov    0xc(%ebp),%edx
   1a0ec:	66 89 14 c5 00 62 02 	mov    %dx,0x26200(,%eax,8)
   1a0f3:	00 
   1a0f4:	0f b6 45 fc          	movzbl -0x4(%ebp),%eax
   1a0f8:	0f b7 55 f8          	movzwl -0x8(%ebp),%edx
   1a0fc:	66 89 14 c5 02 62 02 	mov    %dx,0x26202(,%eax,8)
   1a103:	00 
   1a104:	0f b6 45 fc          	movzbl -0x4(%ebp),%eax
   1a108:	c6 04 c5 04 62 02 00 	movb   $0x0,0x26204(,%eax,8)
   1a10f:	00 
   1a110:	0f b6 45 fc          	movzbl -0x4(%ebp),%eax
   1a114:	0f b6 55 f4          	movzbl -0xc(%ebp),%edx
   1a118:	88 14 c5 05 62 02 00 	mov    %dl,0x26205(,%eax,8)
   1a11f:	90                   	nop
   1a120:	c9                   	leave  
   1a121:	c3                   	ret    

0001a122 <_Z14idt_initializev>:
   1a122:	55                   	push   %ebp
   1a123:	89 e5                	mov    %esp,%ebp
   1a125:	83 ec 08             	sub    $0x8,%esp
   1a128:	b8 08 00 00 00       	mov    $0x8,%eax
   1a12d:	c1 e0 08             	shl    $0x8,%eax
   1a130:	83 e8 01             	sub    $0x1,%eax
   1a133:	66 a3 00 6a 02 00    	mov    %ax,0x26a00
   1a139:	b8 00 62 02 00       	mov    $0x26200,%eax
   1a13e:	a3 02 6a 02 00       	mov    %eax,0x26a02
   1a143:	b8 00 08 00 00       	mov    $0x800,%eax
   1a148:	83 ec 04             	sub    $0x4,%esp
   1a14b:	50                   	push   %eax
   1a14c:	6a 00                	push   $0x0
   1a14e:	68 00 62 02 00       	push   $0x26200
   1a153:	e8 1d 0d 00 00       	call   1ae75 <memset>
   1a158:	83 c4 10             	add    $0x10,%esp
   1a15b:	b8 6a 87 01 00       	mov    $0x1876a,%eax
   1a160:	68 8e 00 00 00       	push   $0x8e
   1a165:	6a 08                	push   $0x8
   1a167:	50                   	push   %eax
   1a168:	6a 00                	push   $0x0
   1a16a:	e8 4b ff ff ff       	call   1a0ba <_ZL12idt_set_gatehjth>
   1a16f:	83 c4 10             	add    $0x10,%esp
   1a172:	b8 71 87 01 00       	mov    $0x18771,%eax
   1a177:	68 8e 00 00 00       	push   $0x8e
   1a17c:	6a 08                	push   $0x8
   1a17e:	50                   	push   %eax
   1a17f:	6a 01                	push   $0x1
   1a181:	e8 34 ff ff ff       	call   1a0ba <_ZL12idt_set_gatehjth>
   1a186:	83 c4 10             	add    $0x10,%esp
   1a189:	b8 78 87 01 00       	mov    $0x18778,%eax
   1a18e:	68 8e 00 00 00       	push   $0x8e
   1a193:	6a 08                	push   $0x8
   1a195:	50                   	push   %eax
   1a196:	6a 02                	push   $0x2
   1a198:	e8 1d ff ff ff       	call   1a0ba <_ZL12idt_set_gatehjth>
   1a19d:	83 c4 10             	add    $0x10,%esp
   1a1a0:	b8 7f 87 01 00       	mov    $0x1877f,%eax
   1a1a5:	68 8e 00 00 00       	push   $0x8e
   1a1aa:	6a 08                	push   $0x8
   1a1ac:	50                   	push   %eax
   1a1ad:	6a 03                	push   $0x3
   1a1af:	e8 06 ff ff ff       	call   1a0ba <_ZL12idt_set_gatehjth>
   1a1b4:	83 c4 10             	add    $0x10,%esp
   1a1b7:	b8 86 87 01 00       	mov    $0x18786,%eax
   1a1bc:	68 8e 00 00 00       	push   $0x8e
   1a1c1:	6a 08                	push   $0x8
   1a1c3:	50                   	push   %eax
   1a1c4:	6a 04                	push   $0x4
   1a1c6:	e8 ef fe ff ff       	call   1a0ba <_ZL12idt_set_gatehjth>
   1a1cb:	83 c4 10             	add    $0x10,%esp
   1a1ce:	b8 8d 87 01 00       	mov    $0x1878d,%eax
   1a1d3:	68 8e 00 00 00       	push   $0x8e
   1a1d8:	6a 08                	push   $0x8
   1a1da:	50                   	push   %eax
   1a1db:	6a 05                	push   $0x5
   1a1dd:	e8 d8 fe ff ff       	call   1a0ba <_ZL12idt_set_gatehjth>
   1a1e2:	83 c4 10             	add    $0x10,%esp
   1a1e5:	b8 94 87 01 00       	mov    $0x18794,%eax
   1a1ea:	68 8e 00 00 00       	push   $0x8e
   1a1ef:	6a 08                	push   $0x8
   1a1f1:	50                   	push   %eax
   1a1f2:	6a 06                	push   $0x6
   1a1f4:	e8 c1 fe ff ff       	call   1a0ba <_ZL12idt_set_gatehjth>
   1a1f9:	83 c4 10             	add    $0x10,%esp
   1a1fc:	b8 9e 87 01 00       	mov    $0x1879e,%eax
   1a201:	68 8e 00 00 00       	push   $0x8e
   1a206:	6a 08                	push   $0x8
   1a208:	50                   	push   %eax
   1a209:	6a 07                	push   $0x7
   1a20b:	e8 aa fe ff ff       	call   1a0ba <_ZL12idt_set_gatehjth>
   1a210:	83 c4 10             	add    $0x10,%esp
   1a213:	b8 a8 87 01 00       	mov    $0x187a8,%eax
   1a218:	68 8e 00 00 00       	push   $0x8e
   1a21d:	6a 08                	push   $0x8
   1a21f:	50                   	push   %eax
   1a220:	6a 08                	push   $0x8
   1a222:	e8 93 fe ff ff       	call   1a0ba <_ZL12idt_set_gatehjth>
   1a227:	83 c4 10             	add    $0x10,%esp
   1a22a:	b8 b0 87 01 00       	mov    $0x187b0,%eax
   1a22f:	68 8e 00 00 00       	push   $0x8e
   1a234:	6a 08                	push   $0x8
   1a236:	50                   	push   %eax
   1a237:	6a 09                	push   $0x9
   1a239:	e8 7c fe ff ff       	call   1a0ba <_ZL12idt_set_gatehjth>
   1a23e:	83 c4 10             	add    $0x10,%esp
   1a241:	b8 ba 87 01 00       	mov    $0x187ba,%eax
   1a246:	68 8e 00 00 00       	push   $0x8e
   1a24b:	6a 08                	push   $0x8
   1a24d:	50                   	push   %eax
   1a24e:	6a 0a                	push   $0xa
   1a250:	e8 65 fe ff ff       	call   1a0ba <_ZL12idt_set_gatehjth>
   1a255:	83 c4 10             	add    $0x10,%esp
   1a258:	b8 c2 87 01 00       	mov    $0x187c2,%eax
   1a25d:	68 8e 00 00 00       	push   $0x8e
   1a262:	6a 08                	push   $0x8
   1a264:	50                   	push   %eax
   1a265:	6a 0b                	push   $0xb
   1a267:	e8 4e fe ff ff       	call   1a0ba <_ZL12idt_set_gatehjth>
   1a26c:	83 c4 10             	add    $0x10,%esp
   1a26f:	b8 ca 87 01 00       	mov    $0x187ca,%eax
   1a274:	68 8e 00 00 00       	push   $0x8e
   1a279:	6a 08                	push   $0x8
   1a27b:	50                   	push   %eax
   1a27c:	6a 0c                	push   $0xc
   1a27e:	e8 37 fe ff ff       	call   1a0ba <_ZL12idt_set_gatehjth>
   1a283:	83 c4 10             	add    $0x10,%esp
   1a286:	b8 d2 87 01 00       	mov    $0x187d2,%eax
   1a28b:	68 8e 00 00 00       	push   $0x8e
   1a290:	6a 08                	push   $0x8
   1a292:	50                   	push   %eax
   1a293:	6a 0d                	push   $0xd
   1a295:	e8 20 fe ff ff       	call   1a0ba <_ZL12idt_set_gatehjth>
   1a29a:	83 c4 10             	add    $0x10,%esp
   1a29d:	b8 da 87 01 00       	mov    $0x187da,%eax
   1a2a2:	68 8e 00 00 00       	push   $0x8e
   1a2a7:	6a 08                	push   $0x8
   1a2a9:	50                   	push   %eax
   1a2aa:	6a 0e                	push   $0xe
   1a2ac:	e8 09 fe ff ff       	call   1a0ba <_ZL12idt_set_gatehjth>
   1a2b1:	83 c4 10             	add    $0x10,%esp
   1a2b4:	b8 e2 87 01 00       	mov    $0x187e2,%eax
   1a2b9:	68 8e 00 00 00       	push   $0x8e
   1a2be:	6a 08                	push   $0x8
   1a2c0:	50                   	push   %eax
   1a2c1:	6a 0f                	push   $0xf
   1a2c3:	e8 f2 fd ff ff       	call   1a0ba <_ZL12idt_set_gatehjth>
   1a2c8:	83 c4 10             	add    $0x10,%esp
   1a2cb:	b8 ec 87 01 00       	mov    $0x187ec,%eax
   1a2d0:	68 8e 00 00 00       	push   $0x8e
   1a2d5:	6a 08                	push   $0x8
   1a2d7:	50                   	push   %eax
   1a2d8:	6a 10                	push   $0x10
   1a2da:	e8 db fd ff ff       	call   1a0ba <_ZL12idt_set_gatehjth>
   1a2df:	83 c4 10             	add    $0x10,%esp
   1a2e2:	b8 f6 87 01 00       	mov    $0x187f6,%eax
   1a2e7:	68 8e 00 00 00       	push   $0x8e
   1a2ec:	6a 08                	push   $0x8
   1a2ee:	50                   	push   %eax
   1a2ef:	6a 11                	push   $0x11
   1a2f1:	e8 c4 fd ff ff       	call   1a0ba <_ZL12idt_set_gatehjth>
   1a2f6:	83 c4 10             	add    $0x10,%esp
   1a2f9:	b8 fe 87 01 00       	mov    $0x187fe,%eax
   1a2fe:	68 8e 00 00 00       	push   $0x8e
   1a303:	6a 08                	push   $0x8
   1a305:	50                   	push   %eax
   1a306:	6a 12                	push   $0x12
   1a308:	e8 ad fd ff ff       	call   1a0ba <_ZL12idt_set_gatehjth>
   1a30d:	83 c4 10             	add    $0x10,%esp
   1a310:	b8 08 88 01 00       	mov    $0x18808,%eax
   1a315:	68 8e 00 00 00       	push   $0x8e
   1a31a:	6a 08                	push   $0x8
   1a31c:	50                   	push   %eax
   1a31d:	6a 13                	push   $0x13
   1a31f:	e8 96 fd ff ff       	call   1a0ba <_ZL12idt_set_gatehjth>
   1a324:	83 c4 10             	add    $0x10,%esp
   1a327:	b8 12 88 01 00       	mov    $0x18812,%eax
   1a32c:	68 8e 00 00 00       	push   $0x8e
   1a331:	6a 08                	push   $0x8
   1a333:	50                   	push   %eax
   1a334:	6a 14                	push   $0x14
   1a336:	e8 7f fd ff ff       	call   1a0ba <_ZL12idt_set_gatehjth>
   1a33b:	83 c4 10             	add    $0x10,%esp
   1a33e:	b8 1c 88 01 00       	mov    $0x1881c,%eax
   1a343:	68 8e 00 00 00       	push   $0x8e
   1a348:	6a 08                	push   $0x8
   1a34a:	50                   	push   %eax
   1a34b:	6a 15                	push   $0x15
   1a34d:	e8 68 fd ff ff       	call   1a0ba <_ZL12idt_set_gatehjth>
   1a352:	83 c4 10             	add    $0x10,%esp
   1a355:	b8 26 88 01 00       	mov    $0x18826,%eax
   1a35a:	68 8e 00 00 00       	push   $0x8e
   1a35f:	6a 08                	push   $0x8
   1a361:	50                   	push   %eax
   1a362:	6a 16                	push   $0x16
   1a364:	e8 51 fd ff ff       	call   1a0ba <_ZL12idt_set_gatehjth>
   1a369:	83 c4 10             	add    $0x10,%esp
   1a36c:	b8 30 88 01 00       	mov    $0x18830,%eax
   1a371:	68 8e 00 00 00       	push   $0x8e
   1a376:	6a 08                	push   $0x8
   1a378:	50                   	push   %eax
   1a379:	6a 17                	push   $0x17
   1a37b:	e8 3a fd ff ff       	call   1a0ba <_ZL12idt_set_gatehjth>
   1a380:	83 c4 10             	add    $0x10,%esp
   1a383:	b8 3a 88 01 00       	mov    $0x1883a,%eax
   1a388:	68 8e 00 00 00       	push   $0x8e
   1a38d:	6a 08                	push   $0x8
   1a38f:	50                   	push   %eax
   1a390:	6a 18                	push   $0x18
   1a392:	e8 23 fd ff ff       	call   1a0ba <_ZL12idt_set_gatehjth>
   1a397:	83 c4 10             	add    $0x10,%esp
   1a39a:	b8 44 88 01 00       	mov    $0x18844,%eax
   1a39f:	68 8e 00 00 00       	push   $0x8e
   1a3a4:	6a 08                	push   $0x8
   1a3a6:	50                   	push   %eax
   1a3a7:	6a 19                	push   $0x19
   1a3a9:	e8 0c fd ff ff       	call   1a0ba <_ZL12idt_set_gatehjth>
   1a3ae:	83 c4 10             	add    $0x10,%esp
   1a3b1:	b8 4e 88 01 00       	mov    $0x1884e,%eax
   1a3b6:	68 8e 00 00 00       	push   $0x8e
   1a3bb:	6a 08                	push   $0x8
   1a3bd:	50                   	push   %eax
   1a3be:	6a 1a                	push   $0x1a
   1a3c0:	e8 f5 fc ff ff       	call   1a0ba <_ZL12idt_set_gatehjth>
   1a3c5:	83 c4 10             	add    $0x10,%esp
   1a3c8:	b8 58 88 01 00       	mov    $0x18858,%eax
   1a3cd:	68 8e 00 00 00       	push   $0x8e
   1a3d2:	6a 08                	push   $0x8
   1a3d4:	50                   	push   %eax
   1a3d5:	6a 1b                	push   $0x1b
   1a3d7:	e8 de fc ff ff       	call   1a0ba <_ZL12idt_set_gatehjth>
   1a3dc:	83 c4 10             	add    $0x10,%esp
   1a3df:	b8 62 88 01 00       	mov    $0x18862,%eax
   1a3e4:	68 8e 00 00 00       	push   $0x8e
   1a3e9:	6a 08                	push   $0x8
   1a3eb:	50                   	push   %eax
   1a3ec:	6a 1c                	push   $0x1c
   1a3ee:	e8 c7 fc ff ff       	call   1a0ba <_ZL12idt_set_gatehjth>
   1a3f3:	83 c4 10             	add    $0x10,%esp
   1a3f6:	b8 6c 88 01 00       	mov    $0x1886c,%eax
   1a3fb:	68 8e 00 00 00       	push   $0x8e
   1a400:	6a 08                	push   $0x8
   1a402:	50                   	push   %eax
   1a403:	6a 1d                	push   $0x1d
   1a405:	e8 b0 fc ff ff       	call   1a0ba <_ZL12idt_set_gatehjth>
   1a40a:	83 c4 10             	add    $0x10,%esp
   1a40d:	b8 76 88 01 00       	mov    $0x18876,%eax
   1a412:	68 8e 00 00 00       	push   $0x8e
   1a417:	6a 08                	push   $0x8
   1a419:	50                   	push   %eax
   1a41a:	6a 1e                	push   $0x1e
   1a41c:	e8 99 fc ff ff       	call   1a0ba <_ZL12idt_set_gatehjth>
   1a421:	83 c4 10             	add    $0x10,%esp
   1a424:	b8 7e 88 01 00       	mov    $0x1887e,%eax
   1a429:	68 8e 00 00 00       	push   $0x8e
   1a42e:	6a 08                	push   $0x8
   1a430:	50                   	push   %eax
   1a431:	6a 1f                	push   $0x1f
   1a433:	e8 82 fc ff ff       	call   1a0ba <_ZL12idt_set_gatehjth>
   1a438:	83 c4 10             	add    $0x10,%esp
   1a43b:	b8 92 88 01 00       	mov    $0x18892,%eax
   1a440:	68 8e 00 00 00       	push   $0x8e
   1a445:	6a 08                	push   $0x8
   1a447:	50                   	push   %eax
   1a448:	6a 69                	push   $0x69
   1a44a:	e8 6b fc ff ff       	call   1a0ba <_ZL12idt_set_gatehjth>
   1a44f:	83 c4 10             	add    $0x10,%esp
   1a452:	e8 b9 e2 ff ff       	call   18710 <idt_flush>
   1a457:	83 ec 08             	sub    $0x8,%esp
   1a45a:	6a 11                	push   $0x11
   1a45c:	6a 20                	push   $0x20
   1a45e:	e8 5c 4c 00 00       	call   1f0bf <_Z8outportbth>
   1a463:	83 c4 10             	add    $0x10,%esp
   1a466:	83 ec 08             	sub    $0x8,%esp
   1a469:	6a 11                	push   $0x11
   1a46b:	68 a0 00 00 00       	push   $0xa0
   1a470:	e8 4a 4c 00 00       	call   1f0bf <_Z8outportbth>
   1a475:	83 c4 10             	add    $0x10,%esp
   1a478:	83 ec 08             	sub    $0x8,%esp
   1a47b:	6a 20                	push   $0x20
   1a47d:	6a 21                	push   $0x21
   1a47f:	e8 3b 4c 00 00       	call   1f0bf <_Z8outportbth>
   1a484:	83 c4 10             	add    $0x10,%esp
   1a487:	83 ec 08             	sub    $0x8,%esp
   1a48a:	6a 28                	push   $0x28
   1a48c:	68 a1 00 00 00       	push   $0xa1
   1a491:	e8 29 4c 00 00       	call   1f0bf <_Z8outportbth>
   1a496:	83 c4 10             	add    $0x10,%esp
   1a499:	83 ec 08             	sub    $0x8,%esp
   1a49c:	6a 04                	push   $0x4
   1a49e:	6a 21                	push   $0x21
   1a4a0:	e8 1a 4c 00 00       	call   1f0bf <_Z8outportbth>
   1a4a5:	83 c4 10             	add    $0x10,%esp
   1a4a8:	83 ec 08             	sub    $0x8,%esp
   1a4ab:	6a 02                	push   $0x2
   1a4ad:	68 a1 00 00 00       	push   $0xa1
   1a4b2:	e8 08 4c 00 00       	call   1f0bf <_Z8outportbth>
   1a4b7:	83 c4 10             	add    $0x10,%esp
   1a4ba:	83 ec 08             	sub    $0x8,%esp
   1a4bd:	6a 01                	push   $0x1
   1a4bf:	6a 21                	push   $0x21
   1a4c1:	e8 f9 4b 00 00       	call   1f0bf <_Z8outportbth>
   1a4c6:	83 c4 10             	add    $0x10,%esp
   1a4c9:	83 ec 08             	sub    $0x8,%esp
   1a4cc:	6a 01                	push   $0x1
   1a4ce:	68 a1 00 00 00       	push   $0xa1
   1a4d3:	e8 e7 4b 00 00       	call   1f0bf <_Z8outportbth>
   1a4d8:	83 c4 10             	add    $0x10,%esp
   1a4db:	83 ec 08             	sub    $0x8,%esp
   1a4de:	6a 00                	push   $0x0
   1a4e0:	6a 21                	push   $0x21
   1a4e2:	e8 d8 4b 00 00       	call   1f0bf <_Z8outportbth>
   1a4e7:	83 c4 10             	add    $0x10,%esp
   1a4ea:	83 ec 08             	sub    $0x8,%esp
   1a4ed:	6a 00                	push   $0x0
   1a4ef:	68 a1 00 00 00       	push   $0xa1
   1a4f4:	e8 c6 4b 00 00       	call   1f0bf <_Z8outportbth>
   1a4f9:	83 c4 10             	add    $0x10,%esp
   1a4fc:	b8 9c 88 01 00       	mov    $0x1889c,%eax
   1a501:	68 8e 00 00 00       	push   $0x8e
   1a506:	6a 08                	push   $0x8
   1a508:	50                   	push   %eax
   1a509:	6a 20                	push   $0x20
   1a50b:	e8 aa fb ff ff       	call   1a0ba <_ZL12idt_set_gatehjth>
   1a510:	83 c4 10             	add    $0x10,%esp
   1a513:	b8 a6 88 01 00       	mov    $0x188a6,%eax
   1a518:	68 8e 00 00 00       	push   $0x8e
   1a51d:	6a 08                	push   $0x8
   1a51f:	50                   	push   %eax
   1a520:	6a 21                	push   $0x21
   1a522:	e8 93 fb ff ff       	call   1a0ba <_ZL12idt_set_gatehjth>
   1a527:	83 c4 10             	add    $0x10,%esp
   1a52a:	b8 b0 88 01 00       	mov    $0x188b0,%eax
   1a52f:	68 8e 00 00 00       	push   $0x8e
   1a534:	6a 08                	push   $0x8
   1a536:	50                   	push   %eax
   1a537:	6a 22                	push   $0x22
   1a539:	e8 7c fb ff ff       	call   1a0ba <_ZL12idt_set_gatehjth>
   1a53e:	83 c4 10             	add    $0x10,%esp
   1a541:	b8 ba 88 01 00       	mov    $0x188ba,%eax
   1a546:	68 8e 00 00 00       	push   $0x8e
   1a54b:	6a 08                	push   $0x8
   1a54d:	50                   	push   %eax
   1a54e:	6a 23                	push   $0x23
   1a550:	e8 65 fb ff ff       	call   1a0ba <_ZL12idt_set_gatehjth>
   1a555:	83 c4 10             	add    $0x10,%esp
   1a558:	b8 c4 88 01 00       	mov    $0x188c4,%eax
   1a55d:	68 8e 00 00 00       	push   $0x8e
   1a562:	6a 08                	push   $0x8
   1a564:	50                   	push   %eax
   1a565:	6a 24                	push   $0x24
   1a567:	e8 4e fb ff ff       	call   1a0ba <_ZL12idt_set_gatehjth>
   1a56c:	83 c4 10             	add    $0x10,%esp
   1a56f:	b8 ce 88 01 00       	mov    $0x188ce,%eax
   1a574:	68 8e 00 00 00       	push   $0x8e
   1a579:	6a 08                	push   $0x8
   1a57b:	50                   	push   %eax
   1a57c:	6a 25                	push   $0x25
   1a57e:	e8 37 fb ff ff       	call   1a0ba <_ZL12idt_set_gatehjth>
   1a583:	83 c4 10             	add    $0x10,%esp
   1a586:	b8 d8 88 01 00       	mov    $0x188d8,%eax
   1a58b:	68 8e 00 00 00       	push   $0x8e
   1a590:	6a 08                	push   $0x8
   1a592:	50                   	push   %eax
   1a593:	6a 26                	push   $0x26
   1a595:	e8 20 fb ff ff       	call   1a0ba <_ZL12idt_set_gatehjth>
   1a59a:	83 c4 10             	add    $0x10,%esp
   1a59d:	b8 e2 88 01 00       	mov    $0x188e2,%eax
   1a5a2:	68 8e 00 00 00       	push   $0x8e
   1a5a7:	6a 08                	push   $0x8
   1a5a9:	50                   	push   %eax
   1a5aa:	6a 27                	push   $0x27
   1a5ac:	e8 09 fb ff ff       	call   1a0ba <_ZL12idt_set_gatehjth>
   1a5b1:	83 c4 10             	add    $0x10,%esp
   1a5b4:	b8 ec 88 01 00       	mov    $0x188ec,%eax
   1a5b9:	68 8e 00 00 00       	push   $0x8e
   1a5be:	6a 08                	push   $0x8
   1a5c0:	50                   	push   %eax
   1a5c1:	6a 28                	push   $0x28
   1a5c3:	e8 f2 fa ff ff       	call   1a0ba <_ZL12idt_set_gatehjth>
   1a5c8:	83 c4 10             	add    $0x10,%esp
   1a5cb:	b8 f6 88 01 00       	mov    $0x188f6,%eax
   1a5d0:	68 8e 00 00 00       	push   $0x8e
   1a5d5:	6a 08                	push   $0x8
   1a5d7:	50                   	push   %eax
   1a5d8:	6a 29                	push   $0x29
   1a5da:	e8 db fa ff ff       	call   1a0ba <_ZL12idt_set_gatehjth>
   1a5df:	83 c4 10             	add    $0x10,%esp
   1a5e2:	b8 00 89 01 00       	mov    $0x18900,%eax
   1a5e7:	68 8e 00 00 00       	push   $0x8e
   1a5ec:	6a 08                	push   $0x8
   1a5ee:	50                   	push   %eax
   1a5ef:	6a 2a                	push   $0x2a
   1a5f1:	e8 c4 fa ff ff       	call   1a0ba <_ZL12idt_set_gatehjth>
   1a5f6:	83 c4 10             	add    $0x10,%esp
   1a5f9:	b8 0a 89 01 00       	mov    $0x1890a,%eax
   1a5fe:	68 8e 00 00 00       	push   $0x8e
   1a603:	6a 08                	push   $0x8
   1a605:	50                   	push   %eax
   1a606:	6a 2b                	push   $0x2b
   1a608:	e8 ad fa ff ff       	call   1a0ba <_ZL12idt_set_gatehjth>
   1a60d:	83 c4 10             	add    $0x10,%esp
   1a610:	b8 14 89 01 00       	mov    $0x18914,%eax
   1a615:	68 8e 00 00 00       	push   $0x8e
   1a61a:	6a 08                	push   $0x8
   1a61c:	50                   	push   %eax
   1a61d:	6a 2c                	push   $0x2c
   1a61f:	e8 96 fa ff ff       	call   1a0ba <_ZL12idt_set_gatehjth>
   1a624:	83 c4 10             	add    $0x10,%esp
   1a627:	b8 1e 89 01 00       	mov    $0x1891e,%eax
   1a62c:	68 8e 00 00 00       	push   $0x8e
   1a631:	6a 08                	push   $0x8
   1a633:	50                   	push   %eax
   1a634:	6a 2d                	push   $0x2d
   1a636:	e8 7f fa ff ff       	call   1a0ba <_ZL12idt_set_gatehjth>
   1a63b:	83 c4 10             	add    $0x10,%esp
   1a63e:	b8 28 89 01 00       	mov    $0x18928,%eax
   1a643:	68 8e 00 00 00       	push   $0x8e
   1a648:	6a 08                	push   $0x8
   1a64a:	50                   	push   %eax
   1a64b:	6a 2e                	push   $0x2e
   1a64d:	e8 68 fa ff ff       	call   1a0ba <_ZL12idt_set_gatehjth>
   1a652:	83 c4 10             	add    $0x10,%esp
   1a655:	b8 32 89 01 00       	mov    $0x18932,%eax
   1a65a:	68 8e 00 00 00       	push   $0x8e
   1a65f:	6a 08                	push   $0x8
   1a661:	50                   	push   %eax
   1a662:	6a 2f                	push   $0x2f
   1a664:	e8 51 fa ff ff       	call   1a0ba <_ZL12idt_set_gatehjth>
   1a669:	83 c4 10             	add    $0x10,%esp
   1a66c:	b8 00 04 00 00       	mov    $0x400,%eax
   1a671:	83 ec 04             	sub    $0x4,%esp
   1a674:	50                   	push   %eax
   1a675:	6a 00                	push   $0x0
   1a677:	68 20 6a 02 00       	push   $0x26a20
   1a67c:	e8 f4 07 00 00       	call   1ae75 <memset>
   1a681:	83 c4 10             	add    $0x10,%esp
   1a684:	fb                   	sti    
   1a685:	90                   	nop
   1a686:	c9                   	leave  
   1a687:	c3                   	ret    

0001a688 <isr_handler>:
   1a688:	55                   	push   %ebp
   1a689:	89 e5                	mov    %esp,%ebp
   1a68b:	83 ec 08             	sub    $0x8,%esp
   1a68e:	8b 45 08             	mov    0x8(%ebp),%eax
   1a691:	8b 40 30             	mov    0x30(%eax),%eax
   1a694:	8b 04 85 20 6a 02 00 	mov    0x26a20(,%eax,4),%eax
   1a69b:	85 c0                	test   %eax,%eax
   1a69d:	74 2a                	je     1a6c9 <isr_handler+0x41>
   1a69f:	83 ec 0c             	sub    $0xc,%esp
   1a6a2:	68 91 18 02 00       	push   $0x21891
   1a6a7:	e8 7c 27 00 00       	call   1ce28 <_Z19write_serial_stringPc>
   1a6ac:	83 c4 10             	add    $0x10,%esp
   1a6af:	8b 45 08             	mov    0x8(%ebp),%eax
   1a6b2:	8b 40 30             	mov    0x30(%eax),%eax
   1a6b5:	8b 04 85 20 6a 02 00 	mov    0x26a20(,%eax,4),%eax
   1a6bc:	83 ec 0c             	sub    $0xc,%esp
   1a6bf:	ff 75 08             	pushl  0x8(%ebp)
   1a6c2:	ff d0                	call   *%eax
   1a6c4:	83 c4 10             	add    $0x10,%esp
   1a6c7:	eb 34                	jmp    1a6fd <isr_handler+0x75>
   1a6c9:	83 ec 0c             	sub    $0xc,%esp
   1a6cc:	68 9d 18 02 00       	push   $0x2189d
   1a6d1:	e8 52 27 00 00       	call   1ce28 <_Z19write_serial_stringPc>
   1a6d6:	83 c4 10             	add    $0x10,%esp
   1a6d9:	8b 45 08             	mov    0x8(%ebp),%eax
   1a6dc:	8b 40 30             	mov    0x30(%eax),%eax
   1a6df:	83 ec 04             	sub    $0x4,%esp
   1a6e2:	6a 0a                	push   $0xa
   1a6e4:	6a 00                	push   $0x0
   1a6e6:	50                   	push   %eax
   1a6e7:	e8 ce 47 00 00       	call   1eeba <_Z4itoamPci>
   1a6ec:	83 c4 10             	add    $0x10,%esp
   1a6ef:	83 ec 0c             	sub    $0xc,%esp
   1a6f2:	50                   	push   %eax
   1a6f3:	e8 30 27 00 00       	call   1ce28 <_Z19write_serial_stringPc>
   1a6f8:	83 c4 10             	add    $0x10,%esp
   1a6fb:	eb fe                	jmp    1a6fb <isr_handler+0x73>
   1a6fd:	c9                   	leave  
   1a6fe:	c3                   	ret    

0001a6ff <irq_handler>:
   1a6ff:	55                   	push   %ebp
   1a700:	89 e5                	mov    %esp,%ebp
   1a702:	83 ec 18             	sub    $0x18,%esp
   1a705:	8b 45 08             	mov    0x8(%ebp),%eax
   1a708:	8b 40 30             	mov    0x30(%eax),%eax
   1a70b:	83 f8 27             	cmp    $0x27,%eax
   1a70e:	76 12                	jbe    1a722 <irq_handler+0x23>
   1a710:	83 ec 08             	sub    $0x8,%esp
   1a713:	6a 20                	push   $0x20
   1a715:	68 a0 00 00 00       	push   $0xa0
   1a71a:	e8 a0 49 00 00       	call   1f0bf <_Z8outportbth>
   1a71f:	83 c4 10             	add    $0x10,%esp
   1a722:	83 ec 08             	sub    $0x8,%esp
   1a725:	6a 20                	push   $0x20
   1a727:	6a 20                	push   $0x20
   1a729:	e8 91 49 00 00       	call   1f0bf <_Z8outportbth>
   1a72e:	83 c4 10             	add    $0x10,%esp
   1a731:	8b 45 08             	mov    0x8(%ebp),%eax
   1a734:	8b 40 30             	mov    0x30(%eax),%eax
   1a737:	8b 04 85 20 6a 02 00 	mov    0x26a20(,%eax,4),%eax
   1a73e:	85 c0                	test   %eax,%eax
   1a740:	74 1e                	je     1a760 <irq_handler+0x61>
   1a742:	8b 45 08             	mov    0x8(%ebp),%eax
   1a745:	8b 40 30             	mov    0x30(%eax),%eax
   1a748:	8b 04 85 20 6a 02 00 	mov    0x26a20(,%eax,4),%eax
   1a74f:	89 45 f4             	mov    %eax,-0xc(%ebp)
   1a752:	83 ec 0c             	sub    $0xc,%esp
   1a755:	ff 75 08             	pushl  0x8(%ebp)
   1a758:	8b 45 f4             	mov    -0xc(%ebp),%eax
   1a75b:	ff d0                	call   *%eax
   1a75d:	83 c4 10             	add    $0x10,%esp
   1a760:	90                   	nop
   1a761:	c9                   	leave  
   1a762:	c3                   	ret    

0001a763 <interrupt_register_handler>:
   1a763:	55                   	push   %ebp
   1a764:	89 e5                	mov    %esp,%ebp
   1a766:	83 ec 04             	sub    $0x4,%esp
   1a769:	8b 45 08             	mov    0x8(%ebp),%eax
   1a76c:	88 45 fc             	mov    %al,-0x4(%ebp)
   1a76f:	0f b6 45 fc          	movzbl -0x4(%ebp),%eax
   1a773:	8b 55 0c             	mov    0xc(%ebp),%edx
   1a776:	89 14 85 20 6a 02 00 	mov    %edx,0x26a20(,%eax,4)
   1a77d:	90                   	nop
   1a77e:	c9                   	leave  
   1a77f:	c3                   	ret    

0001a780 <_Z11initrd_initjj>:
   1a780:	55                   	push   %ebp
   1a781:	89 e5                	mov    %esp,%ebp
   1a783:	83 ec 08             	sub    $0x8,%esp
   1a786:	8b 45 0c             	mov    0xc(%ebp),%eax
   1a789:	c1 e8 0c             	shr    $0xc,%eax
   1a78c:	83 c0 01             	add    $0x1,%eax
   1a78f:	83 ec 04             	sub    $0x4,%esp
   1a792:	50                   	push   %eax
   1a793:	ff 75 08             	pushl  0x8(%ebp)
   1a796:	ff 75 08             	pushl  0x8(%ebp)
   1a799:	e8 03 0f 00 00       	call   1b6a1 <_Z8map_pagejjj>
   1a79e:	83 c4 10             	add    $0x10,%esp
   1a7a1:	8b 45 08             	mov    0x8(%ebp),%eax
   1a7a4:	a3 38 6e 02 00       	mov    %eax,0x26e38
   1a7a9:	8b 45 08             	mov    0x8(%ebp),%eax
   1a7ac:	8b 10                	mov    (%eax),%edx
   1a7ae:	89 15 20 6e 02 00    	mov    %edx,0x26e20
   1a7b4:	8b 50 04             	mov    0x4(%eax),%edx
   1a7b7:	89 15 24 6e 02 00    	mov    %edx,0x26e24
   1a7bd:	8b 50 08             	mov    0x8(%eax),%edx
   1a7c0:	89 15 28 6e 02 00    	mov    %edx,0x26e28
   1a7c6:	8b 50 0c             	mov    0xc(%eax),%edx
   1a7c9:	89 15 2c 6e 02 00    	mov    %edx,0x26e2c
   1a7cf:	8b 40 10             	mov    0x10(%eax),%eax
   1a7d2:	a3 30 6e 02 00       	mov    %eax,0x26e30
   1a7d7:	8b 45 08             	mov    0x8(%ebp),%eax
   1a7da:	83 c0 14             	add    $0x14,%eax
   1a7dd:	a3 34 6e 02 00       	mov    %eax,0x26e34
   1a7e2:	90                   	nop
   1a7e3:	c9                   	leave  
   1a7e4:	c3                   	ret    

0001a7e5 <_Z11initrd_listv>:
   1a7e5:	55                   	push   %ebp
   1a7e6:	89 e5                	mov    %esp,%ebp
   1a7e8:	a1 34 6e 02 00       	mov    0x26e34,%eax
   1a7ed:	5d                   	pop    %ebp
   1a7ee:	c3                   	ret    

0001a7ef <_Z17initrd_get_headerv>:
   1a7ef:	55                   	push   %ebp
   1a7f0:	89 e5                	mov    %esp,%ebp
   1a7f2:	b8 20 6e 02 00       	mov    $0x26e20,%eax
   1a7f7:	5d                   	pop    %ebp
   1a7f8:	c3                   	ret    

0001a7f9 <_Z11initrd_readi>:
   1a7f9:	55                   	push   %ebp
   1a7fa:	89 e5                	mov    %esp,%ebp
   1a7fc:	8b 15 34 6e 02 00    	mov    0x26e34,%edx
   1a802:	8b 45 08             	mov    0x8(%ebp),%eax
   1a805:	6b c0 2a             	imul   $0x2a,%eax,%eax
   1a808:	01 d0                	add    %edx,%eax
   1a80a:	8b 50 22             	mov    0x22(%eax),%edx
   1a80d:	a1 38 6e 02 00       	mov    0x26e38,%eax
   1a812:	01 d0                	add    %edx,%eax
   1a814:	5d                   	pop    %ebp
   1a815:	c3                   	ret    

0001a816 <_Z11initrd_read18lemoninitfs_node_tPh>:
   1a816:	55                   	push   %ebp
   1a817:	89 e5                	mov    %esp,%ebp
   1a819:	83 ec 08             	sub    $0x8,%esp
   1a81c:	8b 45 2e             	mov    0x2e(%ebp),%eax
   1a81f:	8b 4d 2a             	mov    0x2a(%ebp),%ecx
   1a822:	8b 15 38 6e 02 00    	mov    0x26e38,%edx
   1a828:	01 ca                	add    %ecx,%edx
   1a82a:	83 ec 04             	sub    $0x4,%esp
   1a82d:	50                   	push   %eax
   1a82e:	52                   	push   %edx
   1a82f:	ff 75 34             	pushl  0x34(%ebp)
   1a832:	e8 71 06 00 00       	call   1aea8 <_Z6memcpyPvS_j>
   1a837:	83 c4 10             	add    $0x10,%esp
   1a83a:	8b 45 34             	mov    0x34(%ebp),%eax
   1a83d:	c9                   	leave  
   1a83e:	c3                   	ret    

0001a83f <_Z11initrd_readPc>:
   1a83f:	55                   	push   %ebp
   1a840:	89 e5                	mov    %esp,%ebp
   1a842:	83 ec 10             	sub    $0x10,%esp
   1a845:	c7 45 fc 00 00 00 00 	movl   $0x0,-0x4(%ebp)
   1a84c:	a1 20 6e 02 00       	mov    0x26e20,%eax
   1a851:	3b 45 fc             	cmp    -0x4(%ebp),%eax
   1a854:	76 36                	jbe    1a88c <_Z11initrd_readPc+0x4d>
   1a856:	8b 15 34 6e 02 00    	mov    0x26e34,%edx
   1a85c:	8b 45 fc             	mov    -0x4(%ebp),%eax
   1a85f:	6b c0 2a             	imul   $0x2a,%eax,%eax
   1a862:	01 d0                	add    %edx,%eax
   1a864:	83 c0 02             	add    $0x2,%eax
   1a867:	3b 45 08             	cmp    0x8(%ebp),%eax
   1a86a:	75 1a                	jne    1a886 <_Z11initrd_readPc+0x47>
   1a86c:	8b 15 34 6e 02 00    	mov    0x26e34,%edx
   1a872:	8b 45 fc             	mov    -0x4(%ebp),%eax
   1a875:	6b c0 2a             	imul   $0x2a,%eax,%eax
   1a878:	01 d0                	add    %edx,%eax
   1a87a:	8b 50 22             	mov    0x22(%eax),%edx
   1a87d:	a1 38 6e 02 00       	mov    0x26e38,%eax
   1a882:	01 d0                	add    %edx,%eax
   1a884:	eb 0b                	jmp    1a891 <_Z11initrd_readPc+0x52>
   1a886:	83 45 fc 01          	addl   $0x1,-0x4(%ebp)
   1a88a:	eb c0                	jmp    1a84c <_Z11initrd_readPc+0xd>
   1a88c:	b8 00 00 00 00       	mov    $0x0,%eax
   1a891:	c9                   	leave  
   1a892:	c3                   	ret    

0001a893 <_Z15initrd_get_nodePc>:
   1a893:	55                   	push   %ebp
   1a894:	89 e5                	mov    %esp,%ebp
   1a896:	83 ec 10             	sub    $0x10,%esp
   1a899:	c7 45 fc 00 00 00 00 	movl   $0x0,-0x4(%ebp)
   1a8a0:	a1 20 6e 02 00       	mov    0x26e20,%eax
   1a8a5:	3b 45 fc             	cmp    -0x4(%ebp),%eax
   1a8a8:	76 71                	jbe    1a91b <_Z15initrd_get_nodePc+0x88>
   1a8aa:	8b 15 34 6e 02 00    	mov    0x26e34,%edx
   1a8b0:	8b 45 fc             	mov    -0x4(%ebp),%eax
   1a8b3:	6b c0 2a             	imul   $0x2a,%eax,%eax
   1a8b6:	01 d0                	add    %edx,%eax
   1a8b8:	83 c0 02             	add    $0x2,%eax
   1a8bb:	3b 45 0c             	cmp    0xc(%ebp),%eax
   1a8be:	75 55                	jne    1a915 <_Z15initrd_get_nodePc+0x82>
   1a8c0:	8b 15 34 6e 02 00    	mov    0x26e34,%edx
   1a8c6:	8b 45 fc             	mov    -0x4(%ebp),%eax
   1a8c9:	6b c0 2a             	imul   $0x2a,%eax,%eax
   1a8cc:	01 c2                	add    %eax,%edx
   1a8ce:	8b 45 08             	mov    0x8(%ebp),%eax
   1a8d1:	8b 0a                	mov    (%edx),%ecx
   1a8d3:	89 08                	mov    %ecx,(%eax)
   1a8d5:	8b 4a 04             	mov    0x4(%edx),%ecx
   1a8d8:	89 48 04             	mov    %ecx,0x4(%eax)
   1a8db:	8b 4a 08             	mov    0x8(%edx),%ecx
   1a8de:	89 48 08             	mov    %ecx,0x8(%eax)
   1a8e1:	8b 4a 0c             	mov    0xc(%edx),%ecx
   1a8e4:	89 48 0c             	mov    %ecx,0xc(%eax)
   1a8e7:	8b 4a 10             	mov    0x10(%edx),%ecx
   1a8ea:	89 48 10             	mov    %ecx,0x10(%eax)
   1a8ed:	8b 4a 14             	mov    0x14(%edx),%ecx
   1a8f0:	89 48 14             	mov    %ecx,0x14(%eax)
   1a8f3:	8b 4a 18             	mov    0x18(%edx),%ecx
   1a8f6:	89 48 18             	mov    %ecx,0x18(%eax)
   1a8f9:	8b 4a 1c             	mov    0x1c(%edx),%ecx
   1a8fc:	89 48 1c             	mov    %ecx,0x1c(%eax)
   1a8ff:	8b 4a 20             	mov    0x20(%edx),%ecx
   1a902:	89 48 20             	mov    %ecx,0x20(%eax)
   1a905:	8b 4a 24             	mov    0x24(%edx),%ecx
   1a908:	89 48 24             	mov    %ecx,0x24(%eax)
   1a90b:	0f b7 52 28          	movzwl 0x28(%edx),%edx
   1a90f:	66 89 50 28          	mov    %dx,0x28(%eax)
   1a913:	eb 51                	jmp    1a966 <_Z15initrd_get_nodePc+0xd3>
   1a915:	83 45 fc 01          	addl   $0x1,-0x4(%ebp)
   1a919:	eb 85                	jmp    1a8a0 <_Z15initrd_get_nodePc+0xd>
   1a91b:	8b 15 34 6e 02 00    	mov    0x26e34,%edx
   1a921:	8b 45 08             	mov    0x8(%ebp),%eax
   1a924:	8b 0a                	mov    (%edx),%ecx
   1a926:	89 08                	mov    %ecx,(%eax)
   1a928:	8b 4a 04             	mov    0x4(%edx),%ecx
   1a92b:	89 48 04             	mov    %ecx,0x4(%eax)
   1a92e:	8b 4a 08             	mov    0x8(%edx),%ecx
   1a931:	89 48 08             	mov    %ecx,0x8(%eax)
   1a934:	8b 4a 0c             	mov    0xc(%edx),%ecx
   1a937:	89 48 0c             	mov    %ecx,0xc(%eax)
   1a93a:	8b 4a 10             	mov    0x10(%edx),%ecx
   1a93d:	89 48 10             	mov    %ecx,0x10(%eax)
   1a940:	8b 4a 14             	mov    0x14(%edx),%ecx
   1a943:	89 48 14             	mov    %ecx,0x14(%eax)
   1a946:	8b 4a 18             	mov    0x18(%edx),%ecx
   1a949:	89 48 18             	mov    %ecx,0x18(%eax)
   1a94c:	8b 4a 1c             	mov    0x1c(%edx),%ecx
   1a94f:	89 48 1c             	mov    %ecx,0x1c(%eax)
   1a952:	8b 4a 20             	mov    0x20(%edx),%ecx
   1a955:	89 48 20             	mov    %ecx,0x20(%eax)
   1a958:	8b 4a 24             	mov    0x24(%edx),%ecx
   1a95b:	89 48 24             	mov    %ecx,0x24(%eax)
   1a95e:	0f b7 52 28          	movzwl 0x28(%edx),%edx
   1a962:	66 89 50 28          	mov    %dx,0x28(%eax)
   1a966:	8b 45 08             	mov    0x8(%ebp),%eax
   1a969:	c9                   	leave  
   1a96a:	c2 04 00             	ret    $0x4

0001a96d <_ZeqRK8Vector2iS1_>:
   1a96d:	55                   	push   %ebp
   1a96e:	89 e5                	mov    %esp,%ebp
   1a970:	8b 45 08             	mov    0x8(%ebp),%eax
   1a973:	8b 10                	mov    (%eax),%edx
   1a975:	8b 45 0c             	mov    0xc(%ebp),%eax
   1a978:	8b 00                	mov    (%eax),%eax
   1a97a:	39 c2                	cmp    %eax,%edx
   1a97c:	75 17                	jne    1a995 <_ZeqRK8Vector2iS1_+0x28>
   1a97e:	8b 45 08             	mov    0x8(%ebp),%eax
   1a981:	8b 50 04             	mov    0x4(%eax),%edx
   1a984:	8b 45 0c             	mov    0xc(%ebp),%eax
   1a987:	8b 40 04             	mov    0x4(%eax),%eax
   1a98a:	39 c2                	cmp    %eax,%edx
   1a98c:	75 07                	jne    1a995 <_ZeqRK8Vector2iS1_+0x28>
   1a98e:	b8 01 00 00 00       	mov    $0x1,%eax
   1a993:	eb 05                	jmp    1a99a <_ZeqRK8Vector2iS1_+0x2d>
   1a995:	b8 00 00 00 00       	mov    $0x0,%eax
   1a99a:	5d                   	pop    %ebp
   1a99b:	c3                   	ret    

0001a99c <_Z12test_thread1v>:
   1a99c:	55                   	push   %ebp
   1a99d:	89 e5                	mov    %esp,%ebp
   1a99f:	83 ec 08             	sub    $0x8,%esp
   1a9a2:	83 ec 04             	sub    $0x4,%esp
   1a9a5:	6a 00                	push   $0x0
   1a9a7:	6a 00                	push   $0x0
   1a9a9:	68 c8 00 00 00       	push   $0xc8
   1a9ae:	68 c8 00 00 00       	push   $0xc8
   1a9b3:	68 c8 00 00 00       	push   $0xc8
   1a9b8:	6a 00                	push   $0x0
   1a9ba:	6a 00                	push   $0x0
   1a9bc:	e8 bd 4b 00 00       	call   1f57e <_Z15screen_fillrectjjjjhhh>
   1a9c1:	83 c4 20             	add    $0x20,%esp
   1a9c4:	e8 51 56 00 00       	call   2001a <_Z13screen_updatev>
   1a9c9:	90                   	nop
   1a9ca:	c9                   	leave  
   1a9cb:	c3                   	ret    

0001a9cc <_Z12test_thread2v>:
   1a9cc:	55                   	push   %ebp
   1a9cd:	89 e5                	mov    %esp,%ebp
   1a9cf:	83 ec 08             	sub    $0x8,%esp
   1a9d2:	83 ec 04             	sub    $0x4,%esp
   1a9d5:	6a 00                	push   $0x0
   1a9d7:	68 c8 00 00 00       	push   $0xc8
   1a9dc:	6a 00                	push   $0x0
   1a9de:	68 c8 00 00 00       	push   $0xc8
   1a9e3:	68 c8 00 00 00       	push   $0xc8
   1a9e8:	6a 00                	push   $0x0
   1a9ea:	68 c8 00 00 00       	push   $0xc8
   1a9ef:	e8 8a 4b 00 00       	call   1f57e <_Z15screen_fillrectjjjjhhh>
   1a9f4:	83 c4 20             	add    $0x20,%esp
   1a9f7:	e8 1e 56 00 00       	call   2001a <_Z13screen_updatev>
   1a9fc:	90                   	nop
   1a9fd:	c9                   	leave  
   1a9fe:	c3                   	ret    

0001a9ff <_Z12test_thread3v>:
   1a9ff:	55                   	push   %ebp
   1aa00:	89 e5                	mov    %esp,%ebp
   1aa02:	83 ec 08             	sub    $0x8,%esp
   1aa05:	83 ec 04             	sub    $0x4,%esp
   1aa08:	68 c8 00 00 00       	push   $0xc8
   1aa0d:	6a 00                	push   $0x0
   1aa0f:	6a 00                	push   $0x0
   1aa11:	68 c8 00 00 00       	push   $0xc8
   1aa16:	68 c8 00 00 00       	push   $0xc8
   1aa1b:	68 c8 00 00 00       	push   $0xc8
   1aa20:	6a 00                	push   $0x0
   1aa22:	e8 57 4b 00 00       	call   1f57e <_Z15screen_fillrectjjjjhhh>
   1aa27:	83 c4 20             	add    $0x20,%esp
   1aa2a:	e8 eb 55 00 00       	call   2001a <_Z13screen_updatev>
   1aa2f:	90                   	nop
   1aa30:	c9                   	leave  
   1aa31:	c3                   	ret    

0001aa32 <_Z12test_thread4v>:
   1aa32:	55                   	push   %ebp
   1aa33:	89 e5                	mov    %esp,%ebp
   1aa35:	eb fe                	jmp    1aa35 <_Z12test_thread4v+0x3>

0001aa37 <kmain>:
   1aa37:	55                   	push   %ebp
   1aa38:	89 e5                	mov    %esp,%ebp
   1aa3a:	57                   	push   %edi
   1aa3b:	56                   	push   %esi
   1aa3c:	53                   	push   %ebx
   1aa3d:	81 ec ec 00 00 00    	sub    $0xec,%esp
   1aa43:	8b 55 08             	mov    0x8(%ebp),%edx
   1aa46:	8d 85 7a ff ff ff    	lea    -0x86(%ebp),%eax
   1aa4c:	89 d3                	mov    %edx,%ebx
   1aa4e:	ba 6e 00 00 00       	mov    $0x6e,%edx
   1aa53:	8b 0b                	mov    (%ebx),%ecx
   1aa55:	89 08                	mov    %ecx,(%eax)
   1aa57:	8b 4c 13 fc          	mov    -0x4(%ebx,%edx,1),%ecx
   1aa5b:	89 4c 10 fc          	mov    %ecx,-0x4(%eax,%edx,1)
   1aa5f:	8d 78 04             	lea    0x4(%eax),%edi
   1aa62:	83 e7 fc             	and    $0xfffffffc,%edi
   1aa65:	29 f8                	sub    %edi,%eax
   1aa67:	29 c3                	sub    %eax,%ebx
   1aa69:	01 c2                	add    %eax,%edx
   1aa6b:	83 e2 fc             	and    $0xfffffffc,%edx
   1aa6e:	89 d0                	mov    %edx,%eax
   1aa70:	c1 e8 02             	shr    $0x2,%eax
   1aa73:	89 de                	mov    %ebx,%esi
   1aa75:	89 c1                	mov    %eax,%ecx
   1aa77:	f3 a5                	rep movsl %ds:(%esi),%es:(%edi)
   1aa79:	83 ec 70             	sub    $0x70,%esp
   1aa7c:	89 e0                	mov    %esp,%eax
   1aa7e:	89 c2                	mov    %eax,%edx
   1aa80:	8d 85 7a ff ff ff    	lea    -0x86(%ebp),%eax
   1aa86:	b9 1b 00 00 00       	mov    $0x1b,%ecx
   1aa8b:	89 d7                	mov    %edx,%edi
   1aa8d:	89 c6                	mov    %eax,%esi
   1aa8f:	f3 a5                	rep movsl %ds:(%esi),%es:(%edi)
   1aa91:	89 f0                	mov    %esi,%eax
   1aa93:	89 fa                	mov    %edi,%edx
   1aa95:	0f b7 08             	movzwl (%eax),%ecx
   1aa98:	66 89 0a             	mov    %cx,(%edx)
   1aa9b:	8d 52 02             	lea    0x2(%edx),%edx
   1aa9e:	8d 40 02             	lea    0x2(%eax),%eax
   1aaa1:	e8 d0 f5 ff ff       	call   1a076 <_ZN3HAL14initialize_allE16multiboot_info_t>
   1aaa6:	83 c4 70             	add    $0x70,%esp
   1aaa9:	8d 85 08 ff ff ff    	lea    -0xf8(%ebp),%eax
   1aaaf:	83 ec 0c             	sub    $0xc,%esp
   1aab2:	50                   	push   %eax
   1aab3:	e8 17 f1 ff ff       	call   19bcf <_Z14cpuid_get_infov>
   1aab8:	83 c4 0c             	add    $0xc,%esp
   1aabb:	8b 85 08 ff ff ff    	mov    -0xf8(%ebp),%eax
   1aac1:	a3 3c 6e 02 00       	mov    %eax,0x26e3c
   1aac6:	8b 85 0c ff ff ff    	mov    -0xf4(%ebp),%eax
   1aacc:	a3 40 6e 02 00       	mov    %eax,0x26e40
   1aad1:	8b 85 10 ff ff ff    	mov    -0xf0(%ebp),%eax
   1aad7:	a3 44 6e 02 00       	mov    %eax,0x26e44
   1aadc:	8b 85 14 ff ff ff    	mov    -0xec(%ebp),%eax
   1aae2:	a3 48 6e 02 00       	mov    %eax,0x26e48
   1aae7:	8b 85 18 ff ff ff    	mov    -0xe8(%ebp),%eax
   1aaed:	a3 4c 6e 02 00       	mov    %eax,0x26e4c
   1aaf2:	0f b6 85 1c ff ff ff 	movzbl -0xe4(%ebp),%eax
   1aaf9:	a2 50 6e 02 00       	mov    %al,0x26e50
   1aafe:	a1 40 61 02 00       	mov    0x26140,%eax
   1ab03:	89 85 68 ff ff ff    	mov    %eax,-0x98(%ebp)
   1ab09:	a1 44 61 02 00       	mov    0x26144,%eax
   1ab0e:	89 85 6c ff ff ff    	mov    %eax,-0x94(%ebp)
   1ab14:	a1 48 61 02 00       	mov    0x26148,%eax
   1ab19:	89 85 70 ff ff ff    	mov    %eax,-0x90(%ebp)
   1ab1f:	a1 4c 61 02 00       	mov    0x2614c,%eax
   1ab24:	89 85 74 ff ff ff    	mov    %eax,-0x8c(%ebp)
   1ab2a:	a1 50 61 02 00       	mov    0x26150,%eax
   1ab2f:	89 85 50 ff ff ff    	mov    %eax,-0xb0(%ebp)
   1ab35:	a1 54 61 02 00       	mov    0x26154,%eax
   1ab3a:	89 85 54 ff ff ff    	mov    %eax,-0xac(%ebp)
   1ab40:	a1 58 61 02 00       	mov    0x26158,%eax
   1ab45:	89 85 58 ff ff ff    	mov    %eax,-0xa8(%ebp)
   1ab4b:	a1 5c 61 02 00       	mov    0x2615c,%eax
   1ab50:	89 85 5c ff ff ff    	mov    %eax,-0xa4(%ebp)
   1ab56:	a1 60 61 02 00       	mov    0x26160,%eax
   1ab5b:	89 85 60 ff ff ff    	mov    %eax,-0xa0(%ebp)
   1ab61:	a1 64 61 02 00       	mov    0x26164,%eax
   1ab66:	89 85 64 ff ff ff    	mov    %eax,-0x9c(%ebp)
   1ab6c:	8b 45 8e             	mov    -0x72(%ebp),%eax
   1ab6f:	85 c0                	test   %eax,%eax
   1ab71:	75 17                	jne    1ab8a <kmain+0x153>
   1ab73:	83 ec 08             	sub    $0x8,%esp
   1ab76:	68 70 19 02 00       	push   $0x21970
   1ab7b:	68 7c 19 02 00       	push   $0x2197c
   1ab80:	e8 2b f1 ff ff       	call   19cb0 <fatal_error>
   1ab85:	83 c4 10             	add    $0x10,%esp
   1ab88:	eb 4f                	jmp    1abd9 <kmain+0x1a2>
   1ab8a:	8b 95 6c ff ff ff    	mov    -0x94(%ebp),%edx
   1ab90:	8b 85 68 ff ff ff    	mov    -0x98(%ebp),%eax
   1ab96:	01 d0                	add    %edx,%eax
   1ab98:	3d bf 5d 00 00       	cmp    $0x5dbf,%eax
   1ab9d:	77 17                	ja     1abb6 <kmain+0x17f>
   1ab9f:	83 ec 08             	sub    $0x8,%esp
   1aba2:	68 a5 19 02 00       	push   $0x219a5
   1aba7:	68 b8 19 02 00       	push   $0x219b8
   1abac:	e8 ff f0 ff ff       	call   19cb0 <fatal_error>
   1abb1:	83 c4 10             	add    $0x10,%esp
   1abb4:	eb 23                	jmp    1abd9 <kmain+0x1a2>
   1abb6:	a1 4d 6e 02 00       	mov    0x26e4d,%eax
   1abbb:	25 00 00 00 04       	and    $0x4000000,%eax
   1abc0:	85 c0                	test   %eax,%eax
   1abc2:	75 15                	jne    1abd9 <kmain+0x1a2>
   1abc4:	83 ec 08             	sub    $0x8,%esp
   1abc7:	68 d4 19 02 00       	push   $0x219d4
   1abcc:	68 e0 19 02 00       	push   $0x219e0
   1abd1:	e8 da f0 ff ff       	call   19cb0 <fatal_error>
   1abd6:	83 c4 10             	add    $0x10,%esp
   1abd9:	8b 45 8a             	mov    -0x76(%ebp),%eax
   1abdc:	83 ec 08             	sub    $0x8,%esp
   1abdf:	68 fa 19 02 00       	push   $0x219fa
   1abe4:	50                   	push   %eax
   1abe5:	e8 01 42 00 00       	call   1edeb <_Z6strcmpPcS_>
   1abea:	83 c4 10             	add    $0x10,%esp
   1abed:	85 c0                	test   %eax,%eax
   1abef:	0f 94 c0             	sete   %al
   1abf2:	84 c0                	test   %al,%al
   1abf4:	0f 84 99 00 00 00    	je     1ac93 <kmain+0x25c>
   1abfa:	8b 85 54 ff ff ff    	mov    -0xac(%ebp),%eax
   1ac00:	0f b7 d0             	movzwl %ax,%edx
   1ac03:	8b 85 50 ff ff ff    	mov    -0xb0(%ebp),%eax
   1ac09:	0f b7 c0             	movzwl %ax,%eax
   1ac0c:	83 ec 0c             	sub    $0xc,%esp
   1ac0f:	52                   	push   %edx
   1ac10:	50                   	push   %eax
   1ac11:	6a 00                	push   $0x0
   1ac13:	6a 00                	push   $0x0
   1ac15:	8d 85 3c ff ff ff    	lea    -0xc4(%ebp),%eax
   1ac1b:	50                   	push   %eax
   1ac1c:	e8 db ea ff ff       	call   196fc <_ZN7ConsoleC1Etttt>
   1ac21:	83 c4 20             	add    $0x20,%esp
   1ac24:	83 ec 0c             	sub    $0xc,%esp
   1ac27:	68 ff 00 00 00       	push   $0xff
   1ac2c:	68 ff 00 00 00       	push   $0xff
   1ac31:	68 ff 00 00 00       	push   $0xff
   1ac36:	68 04 1a 02 00       	push   $0x21a04
   1ac3b:	8d 85 3c ff ff ff    	lea    -0xc4(%ebp),%eax
   1ac41:	50                   	push   %eax
   1ac42:	e8 6d ed ff ff       	call   199b4 <_ZN7Console4putsEPchhh>
   1ac47:	83 c4 20             	add    $0x20,%esp
   1ac4a:	83 ec 08             	sub    $0x8,%esp
   1ac4d:	8d 85 3c ff ff ff    	lea    -0xc4(%ebp),%eax
   1ac53:	50                   	push   %eax
   1ac54:	8d 85 34 ff ff ff    	lea    -0xcc(%ebp),%eax
   1ac5a:	50                   	push   %eax
   1ac5b:	e8 f8 21 00 00       	call   1ce58 <_ZN5ShellC1EP7Console>
   1ac60:	83 c4 10             	add    $0x10,%esp
   1ac63:	e8 34 01 00 00       	call   1ad9c <_Z16keyboard_installv>
   1ac68:	83 ec 0c             	sub    $0xc,%esp
   1ac6b:	8d 85 34 ff ff ff    	lea    -0xcc(%ebp),%eax
   1ac71:	50                   	push   %eax
   1ac72:	e8 2b 23 00 00       	call   1cfa2 <_ZN5Shell6UpdateEv>
   1ac77:	83 c4 10             	add    $0x10,%esp
   1ac7a:	83 ec 0c             	sub    $0xc,%esp
   1ac7d:	8d 85 3c ff ff ff    	lea    -0xc4(%ebp),%eax
   1ac83:	50                   	push   %eax
   1ac84:	e8 f9 ed ff ff       	call   19a82 <_ZN7Console7refreshEv>
   1ac89:	83 c4 10             	add    $0x10,%esp
   1ac8c:	e8 89 53 00 00       	call   2001a <_Z13screen_updatev>
   1ac91:	eb d5                	jmp    1ac68 <kmain+0x231>
   1ac93:	83 ec 04             	sub    $0x4,%esp
   1ac96:	68 c0 00 00 00       	push   $0xc0
   1ac9b:	68 c0 00 00 00       	push   $0xc0
   1aca0:	6a 60                	push   $0x60
   1aca2:	e8 7b 47 00 00       	call   1f422 <_Z12screen_clearhhh>
   1aca7:	83 c4 10             	add    $0x10,%esp
   1acaa:	e8 6b 53 00 00       	call   2001a <_Z13screen_updatev>
   1acaf:	83 ec 0c             	sub    $0xc,%esp
   1acb2:	68 9c a9 01 00       	push   $0x1a99c
   1acb7:	e8 63 04 00 00       	call   1b11f <_Z14create_processPv>
   1acbc:	83 c4 10             	add    $0x10,%esp
   1acbf:	83 ec 0c             	sub    $0xc,%esp
   1acc2:	68 cc a9 01 00       	push   $0x1a9cc
   1acc7:	e8 53 04 00 00       	call   1b11f <_Z14create_processPv>
   1accc:	83 c4 10             	add    $0x10,%esp
   1accf:	83 ec 0c             	sub    $0xc,%esp
   1acd2:	68 ff a9 01 00       	push   $0x1a9ff
   1acd7:	e8 43 04 00 00       	call   1b11f <_Z14create_processPv>
   1acdc:	83 c4 10             	add    $0x10,%esp
   1acdf:	83 ec 0c             	sub    $0xc,%esp
   1ace2:	68 32 aa 01 00       	push   $0x1aa32
   1ace7:	e8 33 04 00 00       	call   1b11f <_Z14create_processPv>
   1acec:	83 c4 10             	add    $0x10,%esp
   1acef:	e8 0c 04 00 00       	call   1b100 <_Z17multitasking_initv>
   1acf4:	e8 95 44 00 00       	call   1f18e <_Z13timer_installv>
   1acf9:	eb fe                	jmp    1acf9 <kmain+0x2c2>

0001acfb <_Z41__static_initialization_and_destruction_0ii>:
   1acfb:	55                   	push   %ebp
   1acfc:	89 e5                	mov    %esp,%ebp
   1acfe:	83 ec 08             	sub    $0x8,%esp
   1ad01:	83 7d 08 01          	cmpl   $0x1,0x8(%ebp)
   1ad05:	75 19                	jne    1ad20 <_Z41__static_initialization_and_destruction_0ii+0x25>
   1ad07:	81 7d 0c ff ff 00 00 	cmpl   $0xffff,0xc(%ebp)
   1ad0e:	75 10                	jne    1ad20 <_Z41__static_initialization_and_destruction_0ii+0x25>
   1ad10:	83 ec 0c             	sub    $0xc,%esp
   1ad13:	68 3c 6e 02 00       	push   $0x26e3c
   1ad18:	e8 4d 5e 00 00       	call   20b6a <_ZN12cpuid_info_tC1Ev>
   1ad1d:	83 c4 10             	add    $0x10,%esp
   1ad20:	90                   	nop
   1ad21:	c9                   	leave  
   1ad22:	c3                   	ret    

0001ad23 <_GLOBAL__sub_I_cpuid_info>:
   1ad23:	55                   	push   %ebp
   1ad24:	89 e5                	mov    %esp,%ebp
   1ad26:	83 ec 08             	sub    $0x8,%esp
   1ad29:	83 ec 08             	sub    $0x8,%esp
   1ad2c:	68 ff ff 00 00       	push   $0xffff
   1ad31:	6a 01                	push   $0x1
   1ad33:	e8 c3 ff ff ff       	call   1acfb <_Z41__static_initialization_and_destruction_0ii>
   1ad38:	83 c4 10             	add    $0x10,%esp
   1ad3b:	c9                   	leave  
   1ad3c:	c3                   	ret    

0001ad3d <_Z16keyboard_handlerP8regs32_t>:
   1ad3d:	55                   	push   %ebp
   1ad3e:	89 e5                	mov    %esp,%ebp
   1ad40:	83 ec 08             	sub    $0x8,%esp
   1ad43:	83 ec 0c             	sub    $0xc,%esp
   1ad46:	6a 60                	push   $0x60
   1ad48:	e8 91 43 00 00       	call   1f0de <_Z7inportbt>
   1ad4d:	83 c4 10             	add    $0x10,%esp
   1ad50:	a2 59 6e 02 00       	mov    %al,0x26e59
   1ad55:	0f b6 05 59 6e 02 00 	movzbl 0x26e59,%eax
   1ad5c:	84 c0                	test   %al,%al
   1ad5e:	78 39                	js     1ad99 <_Z16keyboard_handlerP8regs32_t+0x5c>
   1ad60:	0f b6 05 59 6e 02 00 	movzbl 0x26e59,%eax
   1ad67:	3c 3a                	cmp    $0x3a,%al
   1ad69:	75 11                	jne    1ad7c <_Z16keyboard_handlerP8regs32_t+0x3f>
   1ad6b:	0f b6 05 5a 6e 02 00 	movzbl 0x26e5a,%eax
   1ad72:	83 f0 01             	xor    $0x1,%eax
   1ad75:	a2 5a 6e 02 00       	mov    %al,0x26e5a
   1ad7a:	eb 1d                	jmp    1ad99 <_Z16keyboard_handlerP8regs32_t+0x5c>
   1ad7c:	c6 05 5b 6e 02 00 01 	movb   $0x1,0x26e5b
   1ad83:	0f b6 05 59 6e 02 00 	movzbl 0x26e59,%eax
   1ad8a:	0f b6 c0             	movzbl %al,%eax
   1ad8d:	0f b6 80 a0 17 02 00 	movzbl 0x217a0(%eax),%eax
   1ad94:	a2 58 6e 02 00       	mov    %al,0x26e58
   1ad99:	90                   	nop
   1ad9a:	c9                   	leave  
   1ad9b:	c3                   	ret    

0001ad9c <_Z16keyboard_installv>:
   1ad9c:	55                   	push   %ebp
   1ad9d:	89 e5                	mov    %esp,%ebp
   1ad9f:	83 ec 08             	sub    $0x8,%esp
   1ada2:	83 ec 08             	sub    $0x8,%esp
   1ada5:	68 3d ad 01 00       	push   $0x1ad3d
   1adaa:	6a 21                	push   $0x21
   1adac:	e8 b2 f9 ff ff       	call   1a763 <interrupt_register_handler>
   1adb1:	83 c4 10             	add    $0x10,%esp
   1adb4:	90                   	nop
   1adb5:	c9                   	leave  
   1adb6:	c3                   	ret    

0001adb7 <_Z11key_updatedv>:
   1adb7:	55                   	push   %ebp
   1adb8:	89 e5                	mov    %esp,%ebp
   1adba:	83 ec 10             	sub    $0x10,%esp
   1adbd:	0f b6 05 5b 6e 02 00 	movzbl 0x26e5b,%eax
   1adc4:	88 45 ff             	mov    %al,-0x1(%ebp)
   1adc7:	c6 05 5b 6e 02 00 00 	movb   $0x0,0x26e5b
   1adce:	0f b6 45 ff          	movzbl -0x1(%ebp),%eax
   1add2:	c9                   	leave  
   1add3:	c3                   	ret    

0001add4 <_Z7get_keyv>:
   1add4:	55                   	push   %ebp
   1add5:	89 e5                	mov    %esp,%ebp
   1add7:	0f b6 05 58 6e 02 00 	movzbl 0x26e58,%eax
   1adde:	5d                   	pop    %ebp
   1addf:	c3                   	ret    

0001ade0 <_Z11get_key_rawv>:
   1ade0:	55                   	push   %ebp
   1ade1:	89 e5                	mov    %esp,%ebp
   1ade3:	0f b6 05 59 6e 02 00 	movzbl 0x26e59,%eax
   1adea:	5d                   	pop    %ebp
   1adeb:	c3                   	ret    

0001adec <_Z7is_capsv>:
   1adec:	55                   	push   %ebp
   1aded:	89 e5                	mov    %esp,%ebp
   1adef:	0f b6 05 5a 6e 02 00 	movzbl 0x26e5a,%eax
   1adf6:	5d                   	pop    %ebp
   1adf7:	c3                   	ret    

0001adf8 <_Z4randv>:
   1adf8:	55                   	push   %ebp
   1adf9:	89 e5                	mov    %esp,%ebp
   1adfb:	a1 20 18 02 00       	mov    0x21820,%eax
   1ae00:	69 c0 6d 4e c6 41    	imul   $0x41c64e6d,%eax,%eax
   1ae06:	05 39 30 00 00       	add    $0x3039,%eax
   1ae0b:	a3 20 18 02 00       	mov    %eax,0x21820
   1ae10:	a1 20 18 02 00       	mov    0x21820,%eax
   1ae15:	c1 e8 10             	shr    $0x10,%eax
   1ae18:	25 ff 7f 00 00       	and    $0x7fff,%eax
   1ae1d:	5d                   	pop    %ebp
   1ae1e:	c3                   	ret    

0001ae1f <_Z5floord>:
   1ae1f:	55                   	push   %ebp
   1ae20:	89 e5                	mov    %esp,%ebp
   1ae22:	83 ec 20             	sub    $0x20,%esp
   1ae25:	8b 45 08             	mov    0x8(%ebp),%eax
   1ae28:	89 45 e8             	mov    %eax,-0x18(%ebp)
   1ae2b:	8b 45 0c             	mov    0xc(%ebp),%eax
   1ae2e:	89 45 ec             	mov    %eax,-0x14(%ebp)
   1ae31:	dd 45 e8             	fldl   -0x18(%ebp)
   1ae34:	d9 7d e6             	fnstcw -0x1a(%ebp)
   1ae37:	0f b7 45 e6          	movzwl -0x1a(%ebp),%eax
   1ae3b:	b4 0c                	mov    $0xc,%ah
   1ae3d:	66 89 45 e4          	mov    %ax,-0x1c(%ebp)
   1ae41:	d9 6d e4             	fldcw  -0x1c(%ebp)
   1ae44:	db 5d fc             	fistpl -0x4(%ebp)
   1ae47:	d9 6d e6             	fldcw  -0x1a(%ebp)
   1ae4a:	db 45 fc             	fildl  -0x4(%ebp)
   1ae4d:	dd 45 e8             	fldl   -0x18(%ebp)
   1ae50:	d9 c9                	fxch   %st(1)
   1ae52:	df e9                	fucomip %st(1),%st
   1ae54:	dd d8                	fstp   %st(0)
   1ae56:	76 08                	jbe    1ae60 <_Z5floord+0x41>
   1ae58:	8b 45 fc             	mov    -0x4(%ebp),%eax
   1ae5b:	83 e8 01             	sub    $0x1,%eax
   1ae5e:	eb 03                	jmp    1ae63 <_Z5floord+0x44>
   1ae60:	8b 45 fc             	mov    -0x4(%ebp),%eax
   1ae63:	c9                   	leave  
   1ae64:	c3                   	ret    

0001ae65 <_Z3absi>:
   1ae65:	55                   	push   %ebp
   1ae66:	89 e5                	mov    %esp,%ebp
   1ae68:	8b 45 08             	mov    0x8(%ebp),%eax
   1ae6b:	99                   	cltd   
   1ae6c:	89 d0                	mov    %edx,%eax
   1ae6e:	33 45 08             	xor    0x8(%ebp),%eax
   1ae71:	29 d0                	sub    %edx,%eax
   1ae73:	5d                   	pop    %ebp
   1ae74:	c3                   	ret    

0001ae75 <memset>:
   1ae75:	55                   	push   %ebp
   1ae76:	89 e5                	mov    %esp,%ebp
   1ae78:	83 ec 10             	sub    $0x10,%esp
   1ae7b:	8b 45 08             	mov    0x8(%ebp),%eax
   1ae7e:	89 45 fc             	mov    %eax,-0x4(%ebp)
   1ae81:	8b 45 10             	mov    0x10(%ebp),%eax
   1ae84:	8d 50 ff             	lea    -0x1(%eax),%edx
   1ae87:	89 55 10             	mov    %edx,0x10(%ebp)
   1ae8a:	85 c0                	test   %eax,%eax
   1ae8c:	0f 95 c0             	setne  %al
   1ae8f:	84 c0                	test   %al,%al
   1ae91:	74 10                	je     1aea3 <memset+0x2e>
   1ae93:	8b 45 fc             	mov    -0x4(%ebp),%eax
   1ae96:	8d 50 01             	lea    0x1(%eax),%edx
   1ae99:	89 55 fc             	mov    %edx,-0x4(%ebp)
   1ae9c:	8b 55 0c             	mov    0xc(%ebp),%edx
   1ae9f:	88 10                	mov    %dl,(%eax)
   1aea1:	eb de                	jmp    1ae81 <memset+0xc>
   1aea3:	8b 45 08             	mov    0x8(%ebp),%eax
   1aea6:	c9                   	leave  
   1aea7:	c3                   	ret    

0001aea8 <_Z6memcpyPvS_j>:
   1aea8:	55                   	push   %ebp
   1aea9:	89 e5                	mov    %esp,%ebp
   1aeab:	83 ec 10             	sub    $0x10,%esp
   1aeae:	8b 45 0c             	mov    0xc(%ebp),%eax
   1aeb1:	89 45 f8             	mov    %eax,-0x8(%ebp)
   1aeb4:	8b 45 08             	mov    0x8(%ebp),%eax
   1aeb7:	89 45 f4             	mov    %eax,-0xc(%ebp)
   1aeba:	c7 45 fc 00 00 00 00 	movl   $0x0,-0x4(%ebp)
   1aec1:	8b 45 fc             	mov    -0x4(%ebp),%eax
   1aec4:	3b 45 10             	cmp    0x10(%ebp),%eax
   1aec7:	73 1b                	jae    1aee4 <_Z6memcpyPvS_j+0x3c>
   1aec9:	8b 55 f4             	mov    -0xc(%ebp),%edx
   1aecc:	8b 45 fc             	mov    -0x4(%ebp),%eax
   1aecf:	01 c2                	add    %eax,%edx
   1aed1:	8b 4d f8             	mov    -0x8(%ebp),%ecx
   1aed4:	8b 45 fc             	mov    -0x4(%ebp),%eax
   1aed7:	01 c8                	add    %ecx,%eax
   1aed9:	0f b6 00             	movzbl (%eax),%eax
   1aedc:	88 02                	mov    %al,(%edx)
   1aede:	83 45 fc 01          	addl   $0x1,-0x4(%ebp)
   1aee2:	eb dd                	jmp    1aec1 <_Z6memcpyPvS_j+0x19>
   1aee4:	8b 45 08             	mov    0x8(%ebp),%eax
   1aee7:	c9                   	leave  
   1aee8:	c3                   	ret    

0001aee9 <_Z11memcpy_sse2PvS_j>:
   1aee9:	55                   	push   %ebp
   1aeea:	89 e5                	mov    %esp,%ebp
   1aeec:	83 ec 18             	sub    $0x18,%esp
   1aeef:	8b 45 10             	mov    0x10(%ebp),%eax
   1aef2:	83 e0 0f             	and    $0xf,%eax
   1aef5:	89 45 f4             	mov    %eax,-0xc(%ebp)
   1aef8:	8b 45 10             	mov    0x10(%ebp),%eax
   1aefb:	2b 45 f4             	sub    -0xc(%ebp),%eax
   1aefe:	89 45 f0             	mov    %eax,-0x10(%ebp)
   1af01:	8b 45 f0             	mov    -0x10(%ebp),%eax
   1af04:	c1 e8 04             	shr    $0x4,%eax
   1af07:	83 ec 04             	sub    $0x4,%esp
   1af0a:	50                   	push   %eax
   1af0b:	ff 75 0c             	pushl  0xc(%ebp)
   1af0e:	ff 75 08             	pushl  0x8(%ebp)
   1af11:	e8 2a da ff ff       	call   18940 <memcpy_sse2_internal>
   1af16:	83 c4 10             	add    $0x10,%esp
   1af19:	83 7d f4 00          	cmpl   $0x0,-0xc(%ebp)
   1af1d:	74 20                	je     1af3f <_Z11memcpy_sse2PvS_j+0x56>
   1af1f:	8b 55 0c             	mov    0xc(%ebp),%edx
   1af22:	8b 45 f0             	mov    -0x10(%ebp),%eax
   1af25:	01 c2                	add    %eax,%edx
   1af27:	8b 4d 08             	mov    0x8(%ebp),%ecx
   1af2a:	8b 45 f0             	mov    -0x10(%ebp),%eax
   1af2d:	01 c8                	add    %ecx,%eax
   1af2f:	83 ec 04             	sub    $0x4,%esp
   1af32:	ff 75 f4             	pushl  -0xc(%ebp)
   1af35:	52                   	push   %edx
   1af36:	50                   	push   %eax
   1af37:	e8 6c ff ff ff       	call   1aea8 <_Z6memcpyPvS_j>
   1af3c:	83 c4 10             	add    $0x10,%esp
   1af3f:	90                   	nop
   1af40:	c9                   	leave  
   1af41:	c3                   	ret    

0001af42 <_Z13mouse_handlerP8regs32_t>:
   1af42:	55                   	push   %ebp
   1af43:	89 e5                	mov    %esp,%ebp
   1af45:	83 ec 08             	sub    $0x8,%esp
   1af48:	0f b6 05 5f 6e 02 00 	movzbl 0x26e5f,%eax
   1af4f:	0f b6 c0             	movzbl %al,%eax
   1af52:	83 f8 01             	cmp    $0x1,%eax
   1af55:	74 2e                	je     1af85 <_Z13mouse_handlerP8regs32_t+0x43>
   1af57:	83 f8 02             	cmp    $0x2,%eax
   1af5a:	74 4c                	je     1afa8 <_Z13mouse_handlerP8regs32_t+0x66>
   1af5c:	85 c0                	test   %eax,%eax
   1af5e:	74 02                	je     1af62 <_Z13mouse_handlerP8regs32_t+0x20>
   1af60:	eb 67                	jmp    1afc9 <_Z13mouse_handlerP8regs32_t+0x87>
   1af62:	83 ec 0c             	sub    $0xc,%esp
   1af65:	6a 60                	push   $0x60
   1af67:	e8 72 41 00 00       	call   1f0de <_Z7inportbt>
   1af6c:	83 c4 10             	add    $0x10,%esp
   1af6f:	a2 5c 6e 02 00       	mov    %al,0x26e5c
   1af74:	0f b6 05 5f 6e 02 00 	movzbl 0x26e5f,%eax
   1af7b:	83 c0 01             	add    $0x1,%eax
   1af7e:	a2 5f 6e 02 00       	mov    %al,0x26e5f
   1af83:	eb 44                	jmp    1afc9 <_Z13mouse_handlerP8regs32_t+0x87>
   1af85:	83 ec 0c             	sub    $0xc,%esp
   1af88:	6a 60                	push   $0x60
   1af8a:	e8 4f 41 00 00       	call   1f0de <_Z7inportbt>
   1af8f:	83 c4 10             	add    $0x10,%esp
   1af92:	a2 5d 6e 02 00       	mov    %al,0x26e5d
   1af97:	0f b6 05 5f 6e 02 00 	movzbl 0x26e5f,%eax
   1af9e:	83 c0 01             	add    $0x1,%eax
   1afa1:	a2 5f 6e 02 00       	mov    %al,0x26e5f
   1afa6:	eb 21                	jmp    1afc9 <_Z13mouse_handlerP8regs32_t+0x87>
   1afa8:	83 ec 0c             	sub    $0xc,%esp
   1afab:	6a 60                	push   $0x60
   1afad:	e8 2c 41 00 00       	call   1f0de <_Z7inportbt>
   1afb2:	83 c4 10             	add    $0x10,%esp
   1afb5:	a2 5e 6e 02 00       	mov    %al,0x26e5e
   1afba:	c6 05 5f 6e 02 00 00 	movb   $0x0,0x26e5f
   1afc1:	c6 05 60 6e 02 00 01 	movb   $0x1,0x26e60
   1afc8:	90                   	nop
   1afc9:	90                   	nop
   1afca:	c9                   	leave  
   1afcb:	c3                   	ret    

0001afcc <_Z10mouse_readv>:
   1afcc:	55                   	push   %ebp
   1afcd:	89 e5                	mov    %esp,%ebp
   1afcf:	83 ec 08             	sub    $0x8,%esp
   1afd2:	83 ec 0c             	sub    $0xc,%esp
   1afd5:	6a 00                	push   $0x0
   1afd7:	e8 9b 5b 00 00       	call   20b77 <_Z10mouse_waith>
   1afdc:	83 c4 10             	add    $0x10,%esp
   1afdf:	83 ec 0c             	sub    $0xc,%esp
   1afe2:	6a 60                	push   $0x60
   1afe4:	e8 f5 40 00 00       	call   1f0de <_Z7inportbt>
   1afe9:	83 c4 10             	add    $0x10,%esp
   1afec:	c9                   	leave  
   1afed:	c3                   	ret    

0001afee <_Z13mouse_installv>:
   1afee:	55                   	push   %ebp
   1afef:	89 e5                	mov    %esp,%ebp
   1aff1:	83 ec 18             	sub    $0x18,%esp
   1aff4:	83 ec 0c             	sub    $0xc,%esp
   1aff7:	6a 01                	push   $0x1
   1aff9:	e8 79 5b 00 00       	call   20b77 <_Z10mouse_waith>
   1affe:	83 c4 10             	add    $0x10,%esp
   1b001:	83 ec 08             	sub    $0x8,%esp
   1b004:	68 a8 00 00 00       	push   $0xa8
   1b009:	6a 64                	push   $0x64
   1b00b:	e8 af 40 00 00       	call   1f0bf <_Z8outportbth>
   1b010:	83 c4 10             	add    $0x10,%esp
   1b013:	83 ec 0c             	sub    $0xc,%esp
   1b016:	6a 01                	push   $0x1
   1b018:	e8 5a 5b 00 00       	call   20b77 <_Z10mouse_waith>
   1b01d:	83 c4 10             	add    $0x10,%esp
   1b020:	83 ec 08             	sub    $0x8,%esp
   1b023:	6a 20                	push   $0x20
   1b025:	6a 64                	push   $0x64
   1b027:	e8 93 40 00 00       	call   1f0bf <_Z8outportbth>
   1b02c:	83 c4 10             	add    $0x10,%esp
   1b02f:	83 ec 0c             	sub    $0xc,%esp
   1b032:	6a 00                	push   $0x0
   1b034:	e8 3e 5b 00 00       	call   20b77 <_Z10mouse_waith>
   1b039:	83 c4 10             	add    $0x10,%esp
   1b03c:	83 ec 0c             	sub    $0xc,%esp
   1b03f:	6a 60                	push   $0x60
   1b041:	e8 98 40 00 00       	call   1f0de <_Z7inportbt>
   1b046:	83 c4 10             	add    $0x10,%esp
   1b049:	83 c8 02             	or     $0x2,%eax
   1b04c:	88 45 f7             	mov    %al,-0x9(%ebp)
   1b04f:	83 ec 0c             	sub    $0xc,%esp
   1b052:	6a 01                	push   $0x1
   1b054:	e8 1e 5b 00 00       	call   20b77 <_Z10mouse_waith>
   1b059:	83 c4 10             	add    $0x10,%esp
   1b05c:	83 ec 08             	sub    $0x8,%esp
   1b05f:	6a 60                	push   $0x60
   1b061:	6a 64                	push   $0x64
   1b063:	e8 57 40 00 00       	call   1f0bf <_Z8outportbth>
   1b068:	83 c4 10             	add    $0x10,%esp
   1b06b:	83 ec 0c             	sub    $0xc,%esp
   1b06e:	6a 01                	push   $0x1
   1b070:	e8 02 5b 00 00       	call   20b77 <_Z10mouse_waith>
   1b075:	83 c4 10             	add    $0x10,%esp
   1b078:	0f b6 45 f7          	movzbl -0x9(%ebp),%eax
   1b07c:	83 ec 08             	sub    $0x8,%esp
   1b07f:	50                   	push   %eax
   1b080:	6a 60                	push   $0x60
   1b082:	e8 38 40 00 00       	call   1f0bf <_Z8outportbth>
   1b087:	83 c4 10             	add    $0x10,%esp
   1b08a:	83 ec 0c             	sub    $0xc,%esp
   1b08d:	68 f6 00 00 00       	push   $0xf6
   1b092:	e8 5f 5b 00 00       	call   20bf6 <_Z11mouse_writeh>
   1b097:	83 c4 10             	add    $0x10,%esp
   1b09a:	e8 2d ff ff ff       	call   1afcc <_Z10mouse_readv>
   1b09f:	83 ec 0c             	sub    $0xc,%esp
   1b0a2:	68 f4 00 00 00       	push   $0xf4
   1b0a7:	e8 4a 5b 00 00       	call   20bf6 <_Z11mouse_writeh>
   1b0ac:	83 c4 10             	add    $0x10,%esp
   1b0af:	e8 18 ff ff ff       	call   1afcc <_Z10mouse_readv>
   1b0b4:	83 ec 08             	sub    $0x8,%esp
   1b0b7:	68 42 af 01 00       	push   $0x1af42
   1b0bc:	6a 2c                	push   $0x2c
   1b0be:	e8 a0 f6 ff ff       	call   1a763 <interrupt_register_handler>
   1b0c3:	83 c4 10             	add    $0x10,%esp
   1b0c6:	90                   	nop
   1b0c7:	c9                   	leave  
   1b0c8:	c3                   	ret    

0001b0c9 <_Z14mouse_get_datav>:
   1b0c9:	55                   	push   %ebp
   1b0ca:	89 e5                	mov    %esp,%ebp
   1b0cc:	b8 5c 6e 02 00       	mov    $0x26e5c,%eax
   1b0d1:	5d                   	pop    %ebp
   1b0d2:	c3                   	ret    

0001b0d3 <_Z18mouse_data_updatedv>:
   1b0d3:	55                   	push   %ebp
   1b0d4:	89 e5                	mov    %esp,%ebp
   1b0d6:	83 ec 10             	sub    $0x10,%esp
   1b0d9:	0f b6 05 60 6e 02 00 	movzbl 0x26e60,%eax
   1b0e0:	88 45 ff             	mov    %al,-0x1(%ebp)
   1b0e3:	0f b6 05 60 6e 02 00 	movzbl 0x26e60,%eax
   1b0ea:	84 c0                	test   %al,%al
   1b0ec:	74 07                	je     1b0f5 <_Z18mouse_data_updatedv+0x22>
   1b0ee:	c6 05 60 6e 02 00 00 	movb   $0x0,0x26e60
   1b0f5:	0f b6 45 ff          	movzbl -0x1(%ebp),%eax
   1b0f9:	c9                   	leave  
   1b0fa:	c3                   	ret    

0001b0fb <_Z12idle_processv>:
   1b0fb:	55                   	push   %ebp
   1b0fc:	89 e5                	mov    %esp,%ebp
   1b0fe:	eb fe                	jmp    1b0fe <_Z12idle_processv+0x3>

0001b100 <_Z17multitasking_initv>:
   1b100:	55                   	push   %ebp
   1b101:	89 e5                	mov    %esp,%ebp
   1b103:	83 ec 08             	sub    $0x8,%esp
   1b106:	83 ec 0c             	sub    $0xc,%esp
   1b109:	68 fb b0 01 00       	push   $0x1b0fb
   1b10e:	e8 0c 00 00 00       	call   1b11f <_Z14create_processPv>
   1b113:	83 c4 10             	add    $0x10,%esp
   1b116:	90                   	nop
   1b117:	c9                   	leave  
   1b118:	c3                   	ret    

0001b119 <_Z10list_tasksv>:
   1b119:	55                   	push   %ebp
   1b11a:	89 e5                	mov    %esp,%ebp
   1b11c:	90                   	nop
   1b11d:	5d                   	pop    %ebp
   1b11e:	c3                   	ret    

0001b11f <_Z14create_processPv>:
   1b11f:	55                   	push   %ebp
   1b120:	89 e5                	mov    %esp,%ebp
   1b122:	83 ec 28             	sub    $0x28,%esp
   1b125:	83 ec 0c             	sub    $0xc,%esp
   1b128:	6a 78                	push   $0x78
   1b12a:	e8 15 da ff ff       	call   18b44 <kmalloc>
   1b12f:	83 c4 10             	add    $0x10,%esp
   1b132:	89 45 f4             	mov    %eax,-0xc(%ebp)
   1b135:	a1 70 6e 02 00       	mov    0x26e70,%eax
   1b13a:	8d 50 01             	lea    0x1(%eax),%edx
   1b13d:	89 15 70 6e 02 00    	mov    %edx,0x26e70
   1b143:	8b 55 f4             	mov    -0xc(%ebp),%edx
   1b146:	89 02                	mov    %eax,(%edx)
   1b148:	8b 45 f4             	mov    -0xc(%ebp),%eax
   1b14b:	c6 40 04 01          	movb   $0x1,0x4(%eax)
   1b14f:	8b 45 f4             	mov    -0xc(%ebp),%eax
   1b152:	c7 40 70 01 00 00 00 	movl   $0x1,0x70(%eax)
   1b159:	8b 45 f4             	mov    -0xc(%ebp),%eax
   1b15c:	c6 40 0d 01          	movb   $0x1,0xd(%eax)
   1b160:	8b 45 f4             	mov    -0xc(%ebp),%eax
   1b163:	c7 40 70 01 00 00 00 	movl   $0x1,0x70(%eax)
   1b16a:	8b 45 f4             	mov    -0xc(%ebp),%eax
   1b16d:	83 c0 10             	add    $0x10,%eax
   1b170:	89 45 f0             	mov    %eax,-0x10(%ebp)
   1b173:	8b 45 f0             	mov    -0x10(%ebp),%eax
   1b176:	c7 40 04 00 00 00 00 	movl   $0x0,0x4(%eax)
   1b17d:	8b 45 f0             	mov    -0x10(%ebp),%eax
   1b180:	c7 40 0c 00 00 00 00 	movl   $0x0,0xc(%eax)
   1b187:	8b 45 f0             	mov    -0x10(%ebp),%eax
   1b18a:	8b 55 f4             	mov    -0xc(%ebp),%edx
   1b18d:	89 10                	mov    %edx,(%eax)
   1b18f:	8b 45 f0             	mov    -0x10(%ebp),%eax
   1b192:	c6 40 10 01          	movb   $0x1,0x10(%eax)
   1b196:	8b 45 f0             	mov    -0x10(%ebp),%eax
   1b199:	8b 40 04             	mov    0x4(%eax),%eax
   1b19c:	05 00 10 00 00       	add    $0x1000,%eax
   1b1a1:	89 c2                	mov    %eax,%edx
   1b1a3:	8b 45 f0             	mov    -0x10(%ebp),%eax
   1b1a6:	89 50 08             	mov    %edx,0x8(%eax)
   1b1a9:	8b 45 f0             	mov    -0x10(%ebp),%eax
   1b1ac:	8b 55 f4             	mov    -0xc(%ebp),%edx
   1b1af:	89 10                	mov    %edx,(%eax)
   1b1b1:	8b 45 f0             	mov    -0x10(%ebp),%eax
   1b1b4:	83 c0 14             	add    $0x14,%eax
   1b1b7:	89 45 ec             	mov    %eax,-0x14(%ebp)
   1b1ba:	83 ec 04             	sub    $0x4,%esp
   1b1bd:	6a 4c                	push   $0x4c
   1b1bf:	6a 00                	push   $0x0
   1b1c1:	ff 75 ec             	pushl  -0x14(%ebp)
   1b1c4:	e8 ac fc ff ff       	call   1ae75 <memset>
   1b1c9:	83 c4 10             	add    $0x10,%esp
   1b1cc:	8b 55 08             	mov    0x8(%ebp),%edx
   1b1cf:	8b 45 ec             	mov    -0x14(%ebp),%eax
   1b1d2:	89 50 38             	mov    %edx,0x38(%eax)
   1b1d5:	8b 45 ec             	mov    -0x14(%ebp),%eax
   1b1d8:	c7 40 40 00 02 00 00 	movl   $0x200,0x40(%eax)
   1b1df:	83 ec 0c             	sub    $0xc,%esp
   1b1e2:	6a 01                	push   $0x1
   1b1e4:	e8 3c 03 00 00       	call   1b525 <_Z14pages_allocatej>
   1b1e9:	83 c4 10             	add    $0x10,%esp
   1b1ec:	89 45 e8             	mov    %eax,-0x18(%ebp)
   1b1ef:	e8 3d 12 00 00       	call   1c431 <_Z21physalloc_alloc_blockv>
   1b1f4:	89 45 e4             	mov    %eax,-0x1c(%ebp)
   1b1f7:	8b 55 e8             	mov    -0x18(%ebp),%edx
   1b1fa:	8b 45 e4             	mov    -0x1c(%ebp),%eax
   1b1fd:	83 ec 04             	sub    $0x4,%esp
   1b200:	6a 01                	push   $0x1
   1b202:	52                   	push   %edx
   1b203:	50                   	push   %eax
   1b204:	e8 98 04 00 00       	call   1b6a1 <_Z8map_pagejjj>
   1b209:	83 c4 10             	add    $0x10,%esp
   1b20c:	8b 45 f0             	mov    -0x10(%ebp),%eax
   1b20f:	8b 55 e8             	mov    -0x18(%ebp),%edx
   1b212:	89 50 04             	mov    %edx,0x4(%eax)
   1b215:	8b 55 e8             	mov    -0x18(%ebp),%edx
   1b218:	8b 45 f0             	mov    -0x10(%ebp),%eax
   1b21b:	89 50 30             	mov    %edx,0x30(%eax)
   1b21e:	8b 55 e8             	mov    -0x18(%ebp),%edx
   1b221:	8b 45 f0             	mov    -0x10(%ebp),%eax
   1b224:	89 50 2c             	mov    %edx,0x2c(%eax)
   1b227:	a1 68 6e 02 00       	mov    0x26e68,%eax
   1b22c:	85 c0                	test   %eax,%eax
   1b22e:	75 12                	jne    1b242 <_Z14create_processPv+0x123>
   1b230:	8b 45 f4             	mov    -0xc(%ebp),%eax
   1b233:	a3 68 6e 02 00       	mov    %eax,0x26e68
   1b238:	8b 45 f4             	mov    -0xc(%ebp),%eax
   1b23b:	a3 6c 6e 02 00       	mov    %eax,0x26e6c
   1b240:	eb 32                	jmp    1b274 <_Z14create_processPv+0x155>
   1b242:	a1 68 6e 02 00       	mov    0x26e68,%eax
   1b247:	8b 40 74             	mov    0x74(%eax),%eax
   1b24a:	85 c0                	test   %eax,%eax
   1b24c:	74 1b                	je     1b269 <_Z14create_processPv+0x14a>
   1b24e:	a1 68 6e 02 00       	mov    0x26e68,%eax
   1b253:	8b 50 74             	mov    0x74(%eax),%edx
   1b256:	8b 45 f4             	mov    -0xc(%ebp),%eax
   1b259:	89 50 74             	mov    %edx,0x74(%eax)
   1b25c:	a1 68 6e 02 00       	mov    0x26e68,%eax
   1b261:	8b 55 f4             	mov    -0xc(%ebp),%edx
   1b264:	89 50 74             	mov    %edx,0x74(%eax)
   1b267:	eb 0b                	jmp    1b274 <_Z14create_processPv+0x155>
   1b269:	a1 68 6e 02 00       	mov    0x26e68,%eax
   1b26e:	8b 55 f4             	mov    -0xc(%ebp),%edx
   1b271:	89 50 74             	mov    %edx,0x74(%eax)
   1b274:	8b 45 f4             	mov    -0xc(%ebp),%eax
   1b277:	8b 00                	mov    (%eax),%eax
   1b279:	c9                   	leave  
   1b27a:	c3                   	ret    

0001b27b <_Z10add_threadjPv>:
   1b27b:	55                   	push   %ebp
   1b27c:	89 e5                	mov    %esp,%ebp
   1b27e:	83 ec 28             	sub    $0x28,%esp
   1b281:	a1 6c 6e 02 00       	mov    0x26e6c,%eax
   1b286:	89 45 f4             	mov    %eax,-0xc(%ebp)
   1b289:	8b 45 f4             	mov    -0xc(%ebp),%eax
   1b28c:	8b 50 70             	mov    0x70(%eax),%edx
   1b28f:	8d 4a 01             	lea    0x1(%edx),%ecx
   1b292:	8b 45 f4             	mov    -0xc(%ebp),%eax
   1b295:	89 48 70             	mov    %ecx,0x70(%eax)
   1b298:	89 d0                	mov    %edx,%eax
   1b29a:	01 c0                	add    %eax,%eax
   1b29c:	01 d0                	add    %edx,%eax
   1b29e:	c1 e0 05             	shl    $0x5,%eax
   1b2a1:	8d 50 10             	lea    0x10(%eax),%edx
   1b2a4:	8b 45 f4             	mov    -0xc(%ebp),%eax
   1b2a7:	01 d0                	add    %edx,%eax
   1b2a9:	89 45 f0             	mov    %eax,-0x10(%ebp)
   1b2ac:	8b 45 f0             	mov    -0x10(%ebp),%eax
   1b2af:	c7 40 04 00 00 00 00 	movl   $0x0,0x4(%eax)
   1b2b6:	8b 45 f0             	mov    -0x10(%ebp),%eax
   1b2b9:	c7 40 0c 00 00 00 00 	movl   $0x0,0xc(%eax)
   1b2c0:	8b 45 f0             	mov    -0x10(%ebp),%eax
   1b2c3:	8b 55 f4             	mov    -0xc(%ebp),%edx
   1b2c6:	89 10                	mov    %edx,(%eax)
   1b2c8:	8b 45 f0             	mov    -0x10(%ebp),%eax
   1b2cb:	c6 40 10 01          	movb   $0x1,0x10(%eax)
   1b2cf:	8b 45 f0             	mov    -0x10(%ebp),%eax
   1b2d2:	8b 40 04             	mov    0x4(%eax),%eax
   1b2d5:	05 00 10 00 00       	add    $0x1000,%eax
   1b2da:	89 c2                	mov    %eax,%edx
   1b2dc:	8b 45 f0             	mov    -0x10(%ebp),%eax
   1b2df:	89 50 08             	mov    %edx,0x8(%eax)
   1b2e2:	8b 45 f0             	mov    -0x10(%ebp),%eax
   1b2e5:	8b 55 f4             	mov    -0xc(%ebp),%edx
   1b2e8:	89 10                	mov    %edx,(%eax)
   1b2ea:	8b 45 f0             	mov    -0x10(%ebp),%eax
   1b2ed:	83 c0 14             	add    $0x14,%eax
   1b2f0:	89 45 ec             	mov    %eax,-0x14(%ebp)
   1b2f3:	83 ec 04             	sub    $0x4,%esp
   1b2f6:	6a 4c                	push   $0x4c
   1b2f8:	6a 00                	push   $0x0
   1b2fa:	ff 75 ec             	pushl  -0x14(%ebp)
   1b2fd:	e8 73 fb ff ff       	call   1ae75 <memset>
   1b302:	83 c4 10             	add    $0x10,%esp
   1b305:	8b 55 0c             	mov    0xc(%ebp),%edx
   1b308:	8b 45 ec             	mov    -0x14(%ebp),%eax
   1b30b:	89 50 38             	mov    %edx,0x38(%eax)
   1b30e:	8b 45 ec             	mov    -0x14(%ebp),%eax
   1b311:	c7 40 40 00 02 00 00 	movl   $0x200,0x40(%eax)
   1b318:	83 ec 0c             	sub    $0xc,%esp
   1b31b:	6a 01                	push   $0x1
   1b31d:	e8 03 02 00 00       	call   1b525 <_Z14pages_allocatej>
   1b322:	83 c4 10             	add    $0x10,%esp
   1b325:	89 45 e8             	mov    %eax,-0x18(%ebp)
   1b328:	e8 04 11 00 00       	call   1c431 <_Z21physalloc_alloc_blockv>
   1b32d:	89 45 e4             	mov    %eax,-0x1c(%ebp)
   1b330:	8b 55 e8             	mov    -0x18(%ebp),%edx
   1b333:	8b 45 e4             	mov    -0x1c(%ebp),%eax
   1b336:	83 ec 04             	sub    $0x4,%esp
   1b339:	6a 01                	push   $0x1
   1b33b:	52                   	push   %edx
   1b33c:	50                   	push   %eax
   1b33d:	e8 5f 03 00 00       	call   1b6a1 <_Z8map_pagejjj>
   1b342:	83 c4 10             	add    $0x10,%esp
   1b345:	8b 45 f0             	mov    -0x10(%ebp),%eax
   1b348:	8b 55 e8             	mov    -0x18(%ebp),%edx
   1b34b:	89 50 04             	mov    %edx,0x4(%eax)
   1b34e:	8b 55 e8             	mov    -0x18(%ebp),%edx
   1b351:	8b 45 f0             	mov    -0x10(%ebp),%eax
   1b354:	89 50 30             	mov    %edx,0x30(%eax)
   1b357:	8b 55 e8             	mov    -0x18(%ebp),%edx
   1b35a:	8b 45 f0             	mov    -0x10(%ebp),%eax
   1b35d:	89 50 2c             	mov    %edx,0x2c(%eax)
   1b360:	90                   	nop
   1b361:	c9                   	leave  
   1b362:	c3                   	ret    

0001b363 <_Z14scheduler_tickv>:
   1b363:	55                   	push   %ebp
   1b364:	89 e5                	mov    %esp,%ebp
   1b366:	83 ec 18             	sub    $0x18,%esp
   1b369:	e8 f2 d5 ff ff       	call   18960 <read_eip>
   1b36e:	89 45 f4             	mov    %eax,-0xc(%ebp)
   1b371:	81 7d f4 69 69 00 00 	cmpl   $0x6969,-0xc(%ebp)
   1b378:	0f 84 ac 00 00 00    	je     1b42a <_Z14scheduler_tickv+0xc7>
   1b37e:	83 ec 0c             	sub    $0xc,%esp
   1b381:	68 3f 1a 02 00       	push   $0x21a3f
   1b386:	e8 9d 1a 00 00       	call   1ce28 <_Z19write_serial_stringPc>
   1b38b:	83 c4 10             	add    $0x10,%esp
   1b38e:	89 e0                	mov    %esp,%eax
   1b390:	89 45 f0             	mov    %eax,-0x10(%ebp)
   1b393:	89 e8                	mov    %ebp,%eax
   1b395:	89 45 ec             	mov    %eax,-0x14(%ebp)
   1b398:	a1 6c 6e 02 00       	mov    0x26e6c,%eax
   1b39d:	8b 55 f0             	mov    -0x10(%ebp),%edx
   1b3a0:	89 50 40             	mov    %edx,0x40(%eax)
   1b3a3:	a1 6c 6e 02 00       	mov    0x26e6c,%eax
   1b3a8:	8b 55 f4             	mov    -0xc(%ebp),%edx
   1b3ab:	89 50 5c             	mov    %edx,0x5c(%eax)
   1b3ae:	a1 6c 6e 02 00       	mov    0x26e6c,%eax
   1b3b3:	8b 55 ec             	mov    -0x14(%ebp),%edx
   1b3b6:	89 50 3c             	mov    %edx,0x3c(%eax)
   1b3b9:	a1 6c 6e 02 00       	mov    0x26e6c,%eax
   1b3be:	8b 40 74             	mov    0x74(%eax),%eax
   1b3c1:	a3 6c 6e 02 00       	mov    %eax,0x26e6c
   1b3c6:	a1 6c 6e 02 00       	mov    0x26e6c,%eax
   1b3cb:	85 c0                	test   %eax,%eax
   1b3cd:	75 0a                	jne    1b3d9 <_Z14scheduler_tickv+0x76>
   1b3cf:	a1 68 6e 02 00       	mov    0x26e68,%eax
   1b3d4:	a3 6c 6e 02 00       	mov    %eax,0x26e6c
   1b3d9:	a1 6c 6e 02 00       	mov    0x26e6c,%eax
   1b3de:	8b 00                	mov    (%eax),%eax
   1b3e0:	83 ec 04             	sub    $0x4,%esp
   1b3e3:	6a 0a                	push   $0xa
   1b3e5:	6a 00                	push   $0x0
   1b3e7:	50                   	push   %eax
   1b3e8:	e8 cd 3a 00 00       	call   1eeba <_Z4itoamPci>
   1b3ed:	83 c4 10             	add    $0x10,%esp
   1b3f0:	83 ec 0c             	sub    $0xc,%esp
   1b3f3:	50                   	push   %eax
   1b3f4:	e8 2f 1a 00 00       	call   1ce28 <_Z19write_serial_stringPc>
   1b3f9:	83 c4 10             	add    $0x10,%esp
   1b3fc:	a1 6c 6e 02 00       	mov    0x26e6c,%eax
   1b401:	8b 40 5c             	mov    0x5c(%eax),%eax
   1b404:	a3 7c 6e 02 00       	mov    %eax,0x26e7c
   1b409:	a1 6c 6e 02 00       	mov    0x26e6c,%eax
   1b40e:	8b 40 40             	mov    0x40(%eax),%eax
   1b411:	a3 78 6e 02 00       	mov    %eax,0x26e78
   1b416:	a1 6c 6e 02 00       	mov    0x26e6c,%eax
   1b41b:	8b 40 3c             	mov    0x3c(%eax),%eax
   1b41e:	a3 74 6e 02 00       	mov    %eax,0x26e74
   1b423:	e8 3b d5 ff ff       	call   18963 <task_switch>
   1b428:	eb 01                	jmp    1b42b <_Z14scheduler_tickv+0xc8>
   1b42a:	90                   	nop
   1b42b:	c9                   	leave  
   1b42c:	c3                   	ret    

0001b42d <_ZL14page_set_framePjj>:
   1b42d:	55                   	push   %ebp
   1b42e:	89 e5                	mov    %esp,%ebp
   1b430:	8b 45 08             	mov    0x8(%ebp),%eax
   1b433:	8b 00                	mov    (%eax),%eax
   1b435:	25 ff 0f 00 80       	and    $0x80000fff,%eax
   1b43a:	0b 45 0c             	or     0xc(%ebp),%eax
   1b43d:	89 c2                	mov    %eax,%edx
   1b43f:	8b 45 08             	mov    0x8(%ebp),%eax
   1b442:	89 10                	mov    %edx,(%eax)
   1b444:	90                   	nop
   1b445:	5d                   	pop    %ebp
   1b446:	c3                   	ret    

0001b447 <_ZL14page_get_framej>:
   1b447:	55                   	push   %ebp
   1b448:	89 e5                	mov    %esp,%ebp
   1b44a:	8b 45 08             	mov    0x8(%ebp),%eax
   1b44d:	25 00 f0 ff 7f       	and    $0x7ffff000,%eax
   1b452:	c1 e8 0c             	shr    $0xc,%eax
   1b455:	5d                   	pop    %ebp
   1b456:	c3                   	ret    

0001b457 <_ZL13pde_set_framePjj>:
   1b457:	55                   	push   %ebp
   1b458:	89 e5                	mov    %esp,%ebp
   1b45a:	8b 45 08             	mov    0x8(%ebp),%eax
   1b45d:	8b 00                	mov    (%eax),%eax
   1b45f:	25 ff 0f 00 80       	and    $0x80000fff,%eax
   1b464:	0b 45 0c             	or     0xc(%ebp),%eax
   1b467:	89 c2                	mov    %eax,%edx
   1b469:	8b 45 08             	mov    0x8(%ebp),%eax
   1b46c:	89 10                	mov    %edx,(%eax)
   1b46e:	90                   	nop
   1b46f:	5d                   	pop    %ebp
   1b470:	c3                   	ret    

0001b471 <_ZL9set_flagsPjj>:
   1b471:	55                   	push   %ebp
   1b472:	89 e5                	mov    %esp,%ebp
   1b474:	8b 45 08             	mov    0x8(%ebp),%eax
   1b477:	8b 00                	mov    (%eax),%eax
   1b479:	0b 45 0c             	or     0xc(%ebp),%eax
   1b47c:	89 c2                	mov    %eax,%edx
   1b47e:	8b 45 08             	mov    0x8(%ebp),%eax
   1b481:	89 10                	mov    %edx,(%eax)
   1b483:	90                   	nop
   1b484:	5d                   	pop    %ebp
   1b485:	c3                   	ret    

0001b486 <_ZL11clear_flagsPjj>:
   1b486:	55                   	push   %ebp
   1b487:	89 e5                	mov    %esp,%ebp
   1b489:	8b 45 08             	mov    0x8(%ebp),%eax
   1b48c:	8b 00                	mov    (%eax),%eax
   1b48e:	8b 55 0c             	mov    0xc(%ebp),%edx
   1b491:	f7 d2                	not    %edx
   1b493:	21 c2                	and    %eax,%edx
   1b495:	8b 45 08             	mov    0x8(%ebp),%eax
   1b498:	89 10                	mov    %edx,(%eax)
   1b49a:	90                   	nop
   1b49b:	5d                   	pop    %ebp
   1b49c:	c3                   	ret    

0001b49d <_ZL15flush_tlb_entryj>:
   1b49d:	55                   	push   %ebp
   1b49e:	89 e5                	mov    %esp,%ebp
   1b4a0:	8b 45 08             	mov    0x8(%ebp),%eax
   1b4a3:	0f 01 38             	invlpg (%eax)
   1b4a6:	90                   	nop
   1b4a7:	5d                   	pop    %ebp
   1b4a8:	c3                   	ret    

0001b4a9 <_ZL8get_pagej>:
   1b4a9:	55                   	push   %ebp
   1b4aa:	89 e5                	mov    %esp,%ebp
   1b4ac:	83 ec 10             	sub    $0x10,%esp
   1b4af:	8b 45 08             	mov    0x8(%ebp),%eax
   1b4b2:	c1 e8 16             	shr    $0x16,%eax
   1b4b5:	89 45 fc             	mov    %eax,-0x4(%ebp)
   1b4b8:	8b 45 08             	mov    0x8(%ebp),%eax
   1b4bb:	c1 e8 0c             	shr    $0xc,%eax
   1b4be:	25 ff 03 00 00       	and    $0x3ff,%eax
   1b4c3:	89 45 f8             	mov    %eax,-0x8(%ebp)
   1b4c6:	a1 00 80 42 00       	mov    0x428000,%eax
   1b4cb:	8b 55 fc             	mov    -0x4(%ebp),%edx
   1b4ce:	c1 e2 02             	shl    $0x2,%edx
   1b4d1:	01 d0                	add    %edx,%eax
   1b4d3:	6a 03                	push   $0x3
   1b4d5:	50                   	push   %eax
   1b4d6:	e8 96 ff ff ff       	call   1b471 <_ZL9set_flagsPjj>
   1b4db:	83 c4 08             	add    $0x8,%esp
   1b4de:	a1 04 80 42 00       	mov    0x428004,%eax
   1b4e3:	8b 55 fc             	mov    -0x4(%ebp),%edx
   1b4e6:	c1 e2 0c             	shl    $0xc,%edx
   1b4e9:	01 d0                	add    %edx,%eax
   1b4eb:	89 c1                	mov    %eax,%ecx
   1b4ed:	a1 00 80 42 00       	mov    0x428000,%eax
   1b4f2:	8b 55 fc             	mov    -0x4(%ebp),%edx
   1b4f5:	c1 e2 02             	shl    $0x2,%edx
   1b4f8:	01 d0                	add    %edx,%eax
   1b4fa:	51                   	push   %ecx
   1b4fb:	50                   	push   %eax
   1b4fc:	e8 56 ff ff ff       	call   1b457 <_ZL13pde_set_framePjj>
   1b501:	83 c4 08             	add    $0x8,%esp
   1b504:	a1 04 80 42 00       	mov    0x428004,%eax
   1b509:	8b 55 fc             	mov    -0x4(%ebp),%edx
   1b50c:	c1 e2 0c             	shl    $0xc,%edx
   1b50f:	01 d0                	add    %edx,%eax
   1b511:	89 45 f4             	mov    %eax,-0xc(%ebp)
   1b514:	8b 45 f8             	mov    -0x8(%ebp),%eax
   1b517:	8d 14 85 00 00 00 00 	lea    0x0(,%eax,4),%edx
   1b51e:	8b 45 f4             	mov    -0xc(%ebp),%eax
   1b521:	01 d0                	add    %edx,%eax
   1b523:	c9                   	leave  
   1b524:	c3                   	ret    

0001b525 <_Z14pages_allocatej>:
   1b525:	55                   	push   %ebp
   1b526:	89 e5                	mov    %esp,%ebp
   1b528:	83 ec 28             	sub    $0x28,%esp
   1b52b:	6a 00                	push   $0x0
   1b52d:	e8 77 ff ff ff       	call   1b4a9 <_ZL8get_pagej>
   1b532:	83 c4 04             	add    $0x4,%esp
   1b535:	89 45 e4             	mov    %eax,-0x1c(%ebp)
   1b538:	c7 45 f4 00 00 00 00 	movl   $0x0,-0xc(%ebp)
   1b53f:	c7 45 f0 00 00 00 00 	movl   $0x0,-0x10(%ebp)
   1b546:	83 45 08 01          	addl   $0x1,0x8(%ebp)
   1b54a:	c7 45 ec 00 10 00 00 	movl   $0x1000,-0x14(%ebp)
   1b551:	a1 24 18 02 00       	mov    0x21824,%eax
   1b556:	39 45 ec             	cmp    %eax,-0x14(%ebp)
   1b559:	73 7b                	jae    1b5d6 <_Z14pages_allocatej+0xb1>
   1b55b:	8b 45 ec             	mov    -0x14(%ebp),%eax
   1b55e:	8d 14 85 00 00 00 00 	lea    0x0(,%eax,4),%edx
   1b565:	8b 45 e4             	mov    -0x1c(%ebp),%eax
   1b568:	01 d0                	add    %edx,%eax
   1b56a:	8b 00                	mov    (%eax),%eax
   1b56c:	83 e0 01             	and    $0x1,%eax
   1b56f:	85 c0                	test   %eax,%eax
   1b571:	74 0f                	je     1b582 <_Z14pages_allocatej+0x5d>
   1b573:	c7 45 f0 00 00 00 00 	movl   $0x0,-0x10(%ebp)
   1b57a:	8b 45 ec             	mov    -0x14(%ebp),%eax
   1b57d:	89 45 f4             	mov    %eax,-0xc(%ebp)
   1b580:	eb 04                	jmp    1b586 <_Z14pages_allocatej+0x61>
   1b582:	83 45 f0 01          	addl   $0x1,-0x10(%ebp)
   1b586:	8b 45 f0             	mov    -0x10(%ebp),%eax
   1b589:	3b 45 08             	cmp    0x8(%ebp),%eax
   1b58c:	75 3f                	jne    1b5cd <_Z14pages_allocatej+0xa8>
   1b58e:	c7 45 e8 01 00 00 00 	movl   $0x1,-0x18(%ebp)
   1b595:	8b 45 e8             	mov    -0x18(%ebp),%eax
   1b598:	3b 45 08             	cmp    0x8(%ebp),%eax
   1b59b:	73 25                	jae    1b5c2 <_Z14pages_allocatej+0x9d>
   1b59d:	8b 55 f4             	mov    -0xc(%ebp),%edx
   1b5a0:	8b 45 e8             	mov    -0x18(%ebp),%eax
   1b5a3:	01 d0                	add    %edx,%eax
   1b5a5:	8d 14 85 00 00 00 00 	lea    0x0(,%eax,4),%edx
   1b5ac:	8b 45 e4             	mov    -0x1c(%ebp),%eax
   1b5af:	01 d0                	add    %edx,%eax
   1b5b1:	6a 03                	push   $0x3
   1b5b3:	50                   	push   %eax
   1b5b4:	e8 b8 fe ff ff       	call   1b471 <_ZL9set_flagsPjj>
   1b5b9:	83 c4 08             	add    $0x8,%esp
   1b5bc:	83 45 e8 01          	addl   $0x1,-0x18(%ebp)
   1b5c0:	eb d3                	jmp    1b595 <_Z14pages_allocatej+0x70>
   1b5c2:	8b 45 f4             	mov    -0xc(%ebp),%eax
   1b5c5:	83 c0 01             	add    $0x1,%eax
   1b5c8:	c1 e0 0c             	shl    $0xc,%eax
   1b5cb:	eb 1e                	jmp    1b5eb <_Z14pages_allocatej+0xc6>
   1b5cd:	83 45 ec 01          	addl   $0x1,-0x14(%ebp)
   1b5d1:	e9 7b ff ff ff       	jmp    1b551 <_Z14pages_allocatej+0x2c>
   1b5d6:	83 ec 0c             	sub    $0xc,%esp
   1b5d9:	68 44 1a 02 00       	push   $0x21a44
   1b5de:	e8 45 18 00 00       	call   1ce28 <_Z19write_serial_stringPc>
   1b5e3:	83 c4 10             	add    $0x10,%esp
   1b5e6:	b8 00 00 00 00       	mov    $0x0,%eax
   1b5eb:	c9                   	leave  
   1b5ec:	c3                   	ret    

0001b5ed <_Z17addr_virt_to_physj>:
   1b5ed:	55                   	push   %ebp
   1b5ee:	89 e5                	mov    %esp,%ebp
   1b5f0:	8b 45 08             	mov    0x8(%ebp),%eax
   1b5f3:	25 ff ff 3f 00       	and    $0x3fffff,%eax
   1b5f8:	c1 e8 0c             	shr    $0xc,%eax
   1b5fb:	8d 0c 85 00 00 00 00 	lea    0x0(,%eax,4),%ecx
   1b602:	a1 00 80 42 00       	mov    0x428000,%eax
   1b607:	8b 55 08             	mov    0x8(%ebp),%edx
   1b60a:	c1 ea 16             	shr    $0x16,%edx
   1b60d:	c1 e2 0c             	shl    $0xc,%edx
   1b610:	01 d0                	add    %edx,%eax
   1b612:	8b 00                	mov    (%eax),%eax
   1b614:	25 00 f0 ff ff       	and    $0xfffff000,%eax
   1b619:	01 c8                	add    %ecx,%eax
   1b61b:	8b 00                	mov    (%eax),%eax
   1b61d:	5d                   	pop    %ebp
   1b61e:	c3                   	ret    

0001b61f <_Z10pages_freePj>:
   1b61f:	55                   	push   %ebp
   1b620:	89 e5                	mov    %esp,%ebp
   1b622:	83 ec 10             	sub    $0x10,%esp
   1b625:	8b 45 08             	mov    0x8(%ebp),%eax
   1b628:	8b 00                	mov    (%eax),%eax
   1b62a:	50                   	push   %eax
   1b62b:	e8 17 fe ff ff       	call   1b447 <_ZL14page_get_framej>
   1b630:	83 c4 04             	add    $0x4,%esp
   1b633:	89 45 fc             	mov    %eax,-0x4(%ebp)
   1b636:	83 7d fc 00          	cmpl   $0x0,-0x4(%ebp)
   1b63a:	0f 95 c0             	setne  %al
   1b63d:	84 c0                	test   %al,%al
   1b63f:	74 19                	je     1b65a <_Z10pages_freePj+0x3b>
   1b641:	6a 01                	push   $0x1
   1b643:	ff 75 08             	pushl  0x8(%ebp)
   1b646:	e8 3b fe ff ff       	call   1b486 <_ZL11clear_flagsPjj>
   1b64b:	83 c4 08             	add    $0x8,%esp
   1b64e:	8b 45 08             	mov    0x8(%ebp),%eax
   1b651:	50                   	push   %eax
   1b652:	e8 46 fe ff ff       	call   1b49d <_ZL15flush_tlb_entryj>
   1b657:	83 c4 04             	add    $0x4,%esp
   1b65a:	90                   	nop
   1b65b:	c9                   	leave  
   1b65c:	c3                   	ret    

0001b65d <_Z10pages_freejj>:
   1b65d:	55                   	push   %ebp
   1b65e:	89 e5                	mov    %esp,%ebp
   1b660:	83 ec 10             	sub    $0x10,%esp
   1b663:	c7 45 fc 00 00 00 00 	movl   $0x0,-0x4(%ebp)
   1b66a:	8b 45 fc             	mov    -0x4(%ebp),%eax
   1b66d:	3b 45 0c             	cmp    0xc(%ebp),%eax
   1b670:	73 2c                	jae    1b69e <_Z10pages_freejj+0x41>
   1b672:	8b 45 fc             	mov    -0x4(%ebp),%eax
   1b675:	c1 e0 0c             	shl    $0xc,%eax
   1b678:	89 c2                	mov    %eax,%edx
   1b67a:	8b 45 08             	mov    0x8(%ebp),%eax
   1b67d:	01 d0                	add    %edx,%eax
   1b67f:	50                   	push   %eax
   1b680:	e8 24 fe ff ff       	call   1b4a9 <_ZL8get_pagej>
   1b685:	83 c4 04             	add    $0x4,%esp
   1b688:	89 45 f8             	mov    %eax,-0x8(%ebp)
   1b68b:	6a 01                	push   $0x1
   1b68d:	ff 75 f8             	pushl  -0x8(%ebp)
   1b690:	e8 f1 fd ff ff       	call   1b486 <_ZL11clear_flagsPjj>
   1b695:	83 c4 08             	add    $0x8,%esp
   1b698:	83 45 fc 01          	addl   $0x1,-0x4(%ebp)
   1b69c:	eb cc                	jmp    1b66a <_Z10pages_freejj+0xd>
   1b69e:	90                   	nop
   1b69f:	c9                   	leave  
   1b6a0:	c3                   	ret    

0001b6a1 <_Z8map_pagejjj>:
   1b6a1:	55                   	push   %ebp
   1b6a2:	89 e5                	mov    %esp,%ebp
   1b6a4:	83 ec 18             	sub    $0x18,%esp
   1b6a7:	83 7d 10 00          	cmpl   $0x0,0x10(%ebp)
   1b6ab:	75 1a                	jne    1b6c7 <_Z8map_pagejjj+0x26>
   1b6ad:	83 ec 0c             	sub    $0xc,%esp
   1b6b0:	68 60 1a 02 00       	push   $0x21a60
   1b6b5:	e8 6e 17 00 00       	call   1ce28 <_Z19write_serial_stringPc>
   1b6ba:	83 c4 10             	add    $0x10,%esp
   1b6bd:	b8 00 00 00 00       	mov    $0x0,%eax
   1b6c2:	e9 b3 00 00 00       	jmp    1b77a <_Z8map_pagejjj+0xd9>
   1b6c7:	c7 45 f4 00 00 00 00 	movl   $0x0,-0xc(%ebp)
   1b6ce:	8b 45 f4             	mov    -0xc(%ebp),%eax
   1b6d1:	3b 45 10             	cmp    0x10(%ebp),%eax
   1b6d4:	0f 83 9b 00 00 00    	jae    1b775 <_Z8map_pagejjj+0xd4>
   1b6da:	8b 45 0c             	mov    0xc(%ebp),%eax
   1b6dd:	c1 e8 16             	shr    $0x16,%eax
   1b6e0:	89 45 f0             	mov    %eax,-0x10(%ebp)
   1b6e3:	8b 45 0c             	mov    0xc(%ebp),%eax
   1b6e6:	83 ec 0c             	sub    $0xc,%esp
   1b6e9:	50                   	push   %eax
   1b6ea:	e8 ba fd ff ff       	call   1b4a9 <_ZL8get_pagej>
   1b6ef:	83 c4 10             	add    $0x10,%esp
   1b6f2:	89 45 ec             	mov    %eax,-0x14(%ebp)
   1b6f5:	83 ec 08             	sub    $0x8,%esp
   1b6f8:	6a 03                	push   $0x3
   1b6fa:	ff 75 ec             	pushl  -0x14(%ebp)
   1b6fd:	e8 6f fd ff ff       	call   1b471 <_ZL9set_flagsPjj>
   1b702:	83 c4 10             	add    $0x10,%esp
   1b705:	83 ec 08             	sub    $0x8,%esp
   1b708:	ff 75 08             	pushl  0x8(%ebp)
   1b70b:	ff 75 ec             	pushl  -0x14(%ebp)
   1b70e:	e8 1a fd ff ff       	call   1b42d <_ZL14page_set_framePjj>
   1b713:	83 c4 10             	add    $0x10,%esp
   1b716:	a1 00 80 42 00       	mov    0x428000,%eax
   1b71b:	8b 55 f0             	mov    -0x10(%ebp),%edx
   1b71e:	c1 e2 02             	shl    $0x2,%edx
   1b721:	01 d0                	add    %edx,%eax
   1b723:	83 ec 08             	sub    $0x8,%esp
   1b726:	6a 03                	push   $0x3
   1b728:	50                   	push   %eax
   1b729:	e8 43 fd ff ff       	call   1b471 <_ZL9set_flagsPjj>
   1b72e:	83 c4 10             	add    $0x10,%esp
   1b731:	a1 04 80 42 00       	mov    0x428004,%eax
   1b736:	8b 55 f0             	mov    -0x10(%ebp),%edx
   1b739:	c1 e2 0c             	shl    $0xc,%edx
   1b73c:	01 d0                	add    %edx,%eax
   1b73e:	89 c1                	mov    %eax,%ecx
   1b740:	a1 00 80 42 00       	mov    0x428000,%eax
   1b745:	8b 55 f0             	mov    -0x10(%ebp),%edx
   1b748:	c1 e2 02             	shl    $0x2,%edx
   1b74b:	01 d0                	add    %edx,%eax
   1b74d:	83 ec 08             	sub    $0x8,%esp
   1b750:	51                   	push   %ecx
   1b751:	50                   	push   %eax
   1b752:	e8 00 fd ff ff       	call   1b457 <_ZL13pde_set_framePjj>
   1b757:	83 c4 10             	add    $0x10,%esp
   1b75a:	83 45 f4 01          	addl   $0x1,-0xc(%ebp)
   1b75e:	81 45 08 00 10 00 00 	addl   $0x1000,0x8(%ebp)
   1b765:	8b 45 0c             	mov    0xc(%ebp),%eax
   1b768:	05 00 10 00 00       	add    $0x1000,%eax
   1b76d:	89 45 0c             	mov    %eax,0xc(%ebp)
   1b770:	e9 59 ff ff ff       	jmp    1b6ce <_Z8map_pagejjj+0x2d>
   1b775:	b8 01 00 00 00       	mov    $0x1,%eax
   1b77a:	c9                   	leave  
   1b77b:	c3                   	ret    

0001b77c <_Z19mark_pages_reservedjjj>:
   1b77c:	55                   	push   %ebp
   1b77d:	89 e5                	mov    %esp,%ebp
   1b77f:	83 ec 18             	sub    $0x18,%esp
   1b782:	83 7d 10 00          	cmpl   $0x0,0x10(%ebp)
   1b786:	75 1a                	jne    1b7a2 <_Z19mark_pages_reservedjjj+0x26>
   1b788:	83 ec 0c             	sub    $0xc,%esp
   1b78b:	68 a4 1a 02 00       	push   $0x21aa4
   1b790:	e8 93 16 00 00       	call   1ce28 <_Z19write_serial_stringPc>
   1b795:	83 c4 10             	add    $0x10,%esp
   1b798:	b8 00 00 00 00       	mov    $0x0,%eax
   1b79d:	e9 b6 00 00 00       	jmp    1b858 <_Z19mark_pages_reservedjjj+0xdc>
   1b7a2:	c7 45 f4 00 00 00 00 	movl   $0x0,-0xc(%ebp)
   1b7a9:	8b 45 f4             	mov    -0xc(%ebp),%eax
   1b7ac:	3b 45 10             	cmp    0x10(%ebp),%eax
   1b7af:	0f 83 9e 00 00 00    	jae    1b853 <_Z19mark_pages_reservedjjj+0xd7>
   1b7b5:	c7 45 ec 00 00 00 00 	movl   $0x0,-0x14(%ebp)
   1b7bc:	83 ec 08             	sub    $0x8,%esp
   1b7bf:	6a 03                	push   $0x3
   1b7c1:	8d 45 ec             	lea    -0x14(%ebp),%eax
   1b7c4:	50                   	push   %eax
   1b7c5:	e8 a7 fc ff ff       	call   1b471 <_ZL9set_flagsPjj>
   1b7ca:	83 c4 10             	add    $0x10,%esp
   1b7cd:	83 ec 08             	sub    $0x8,%esp
   1b7d0:	ff 75 08             	pushl  0x8(%ebp)
   1b7d3:	8d 45 ec             	lea    -0x14(%ebp),%eax
   1b7d6:	50                   	push   %eax
   1b7d7:	e8 51 fc ff ff       	call   1b42d <_ZL14page_set_framePjj>
   1b7dc:	83 c4 10             	add    $0x10,%esp
   1b7df:	8b 45 0c             	mov    0xc(%ebp),%eax
   1b7e2:	c1 e8 16             	shr    $0x16,%eax
   1b7e5:	89 45 f0             	mov    %eax,-0x10(%ebp)
   1b7e8:	a1 00 80 42 00       	mov    0x428000,%eax
   1b7ed:	8b 55 f0             	mov    -0x10(%ebp),%edx
   1b7f0:	c1 e2 0c             	shl    $0xc,%edx
   1b7f3:	01 d0                	add    %edx,%eax
   1b7f5:	83 ec 08             	sub    $0x8,%esp
   1b7f8:	6a 03                	push   $0x3
   1b7fa:	50                   	push   %eax
   1b7fb:	e8 71 fc ff ff       	call   1b471 <_ZL9set_flagsPjj>
   1b800:	83 c4 10             	add    $0x10,%esp
   1b803:	a1 04 80 42 00       	mov    0x428004,%eax
   1b808:	8b 55 f0             	mov    -0x10(%ebp),%edx
   1b80b:	c1 e2 0c             	shl    $0xc,%edx
   1b80e:	01 d0                	add    %edx,%eax
   1b810:	89 c1                	mov    %eax,%ecx
   1b812:	a1 00 80 42 00       	mov    0x428000,%eax
   1b817:	8b 55 f0             	mov    -0x10(%ebp),%edx
   1b81a:	c1 e2 0c             	shl    $0xc,%edx
   1b81d:	01 d0                	add    %edx,%eax
   1b81f:	83 ec 08             	sub    $0x8,%esp
   1b822:	51                   	push   %ecx
   1b823:	50                   	push   %eax
   1b824:	e8 2e fc ff ff       	call   1b457 <_ZL13pde_set_framePjj>
   1b829:	83 c4 10             	add    $0x10,%esp
   1b82c:	a1 04 80 42 00       	mov    0x428004,%eax
   1b831:	8b 55 f0             	mov    -0x10(%ebp),%edx
   1b834:	c1 e2 0c             	shl    $0xc,%edx
   1b837:	01 c2                	add    %eax,%edx
   1b839:	8b 45 0c             	mov    0xc(%ebp),%eax
   1b83c:	c1 e8 0c             	shr    $0xc,%eax
   1b83f:	25 ff 03 00 00       	and    $0x3ff,%eax
   1b844:	89 c1                	mov    %eax,%ecx
   1b846:	8b 45 ec             	mov    -0x14(%ebp),%eax
   1b849:	89 04 8a             	mov    %eax,(%edx,%ecx,4)
   1b84c:	b8 01 00 00 00       	mov    $0x1,%eax
   1b851:	eb 05                	jmp    1b858 <_Z19mark_pages_reservedjjj+0xdc>
   1b853:	b8 00 00 00 00       	mov    $0x0,%eax
   1b858:	c9                   	leave  
   1b859:	c3                   	ret    

0001b85a <_Z10unmap_pagej>:
   1b85a:	55                   	push   %ebp
   1b85b:	89 e5                	mov    %esp,%ebp
   1b85d:	ff 75 08             	pushl  0x8(%ebp)
   1b860:	e8 44 fc ff ff       	call   1b4a9 <_ZL8get_pagej>
   1b865:	83 c4 04             	add    $0x4,%esp
   1b868:	50                   	push   %eax
   1b869:	e8 b1 fd ff ff       	call   1b61f <_Z10pages_freePj>
   1b86e:	83 c4 04             	add    $0x4,%esp
   1b871:	90                   	nop
   1b872:	c9                   	leave  
   1b873:	c3                   	ret    

0001b874 <_Z17paging_initializev>:
   1b874:	55                   	push   %ebp
   1b875:	89 e5                	mov    %esp,%ebp
   1b877:	83 ec 28             	sub    $0x28,%esp
   1b87a:	c7 05 00 80 42 00 00 	movl   $0x27000,0x428000
   1b881:	70 02 00 
   1b884:	c7 05 04 80 42 00 00 	movl   $0x28000,0x428004
   1b88b:	80 02 00 
   1b88e:	c7 45 f4 00 00 00 00 	movl   $0x0,-0xc(%ebp)
   1b895:	81 7d f4 ff 03 00 00 	cmpl   $0x3ff,-0xc(%ebp)
   1b89c:	77 42                	ja     1b8e0 <_Z17paging_initializev+0x6c>
   1b89e:	c7 45 f0 00 00 00 00 	movl   $0x0,-0x10(%ebp)
   1b8a5:	81 7d f0 ff 03 00 00 	cmpl   $0x3ff,-0x10(%ebp)
   1b8ac:	77 1e                	ja     1b8cc <_Z17paging_initializev+0x58>
   1b8ae:	8b 45 f4             	mov    -0xc(%ebp),%eax
   1b8b1:	c1 e0 0a             	shl    $0xa,%eax
   1b8b4:	89 c2                	mov    %eax,%edx
   1b8b6:	8b 45 f0             	mov    -0x10(%ebp),%eax
   1b8b9:	01 d0                	add    %edx,%eax
   1b8bb:	c7 04 85 00 80 02 00 	movl   $0x0,0x28000(,%eax,4)
   1b8c2:	00 00 00 00 
   1b8c6:	83 45 f0 01          	addl   $0x1,-0x10(%ebp)
   1b8ca:	eb d9                	jmp    1b8a5 <_Z17paging_initializev+0x31>
   1b8cc:	8b 45 f4             	mov    -0xc(%ebp),%eax
   1b8cf:	c7 04 85 00 70 02 00 	movl   $0x2,0x27000(,%eax,4)
   1b8d6:	02 00 00 00 
   1b8da:	83 45 f4 01          	addl   $0x1,-0xc(%ebp)
   1b8de:	eb b5                	jmp    1b895 <_Z17paging_initializev+0x21>
   1b8e0:	c7 45 ec 00 00 00 00 	movl   $0x0,-0x14(%ebp)
   1b8e7:	c7 45 e8 00 00 00 00 	movl   $0x0,-0x18(%ebp)
   1b8ee:	c7 45 e0 00 00 00 00 	movl   $0x0,-0x20(%ebp)
   1b8f5:	81 7d ec ff 17 00 00 	cmpl   $0x17ff,-0x14(%ebp)
   1b8fc:	0f 8f b6 00 00 00    	jg     1b9b8 <_Z17paging_initializev+0x144>
   1b902:	c7 45 dc 00 00 00 00 	movl   $0x0,-0x24(%ebp)
   1b909:	6a 03                	push   $0x3
   1b90b:	8d 45 dc             	lea    -0x24(%ebp),%eax
   1b90e:	50                   	push   %eax
   1b90f:	e8 5d fb ff ff       	call   1b471 <_ZL9set_flagsPjj>
   1b914:	83 c4 08             	add    $0x8,%esp
   1b917:	8b 45 e8             	mov    -0x18(%ebp),%eax
   1b91a:	50                   	push   %eax
   1b91b:	8d 45 dc             	lea    -0x24(%ebp),%eax
   1b91e:	50                   	push   %eax
   1b91f:	e8 09 fb ff ff       	call   1b42d <_ZL14page_set_framePjj>
   1b924:	83 c4 08             	add    $0x8,%esp
   1b927:	8b 45 e0             	mov    -0x20(%ebp),%eax
   1b92a:	c1 e8 16             	shr    $0x16,%eax
   1b92d:	89 45 e4             	mov    %eax,-0x1c(%ebp)
   1b930:	8b 45 e4             	mov    -0x1c(%ebp),%eax
   1b933:	c1 e0 02             	shl    $0x2,%eax
   1b936:	05 00 70 02 00       	add    $0x27000,%eax
   1b93b:	6a 01                	push   $0x1
   1b93d:	50                   	push   %eax
   1b93e:	e8 2e fb ff ff       	call   1b471 <_ZL9set_flagsPjj>
   1b943:	83 c4 08             	add    $0x8,%esp
   1b946:	8b 45 e4             	mov    -0x1c(%ebp),%eax
   1b949:	c1 e0 02             	shl    $0x2,%eax
   1b94c:	05 00 70 02 00       	add    $0x27000,%eax
   1b951:	6a 02                	push   $0x2
   1b953:	50                   	push   %eax
   1b954:	e8 18 fb ff ff       	call   1b471 <_ZL9set_flagsPjj>
   1b959:	83 c4 08             	add    $0x8,%esp
   1b95c:	8b 45 e4             	mov    -0x1c(%ebp),%eax
   1b95f:	c1 e0 0c             	shl    $0xc,%eax
   1b962:	05 00 80 02 00       	add    $0x28000,%eax
   1b967:	89 c2                	mov    %eax,%edx
   1b969:	8b 45 e4             	mov    -0x1c(%ebp),%eax
   1b96c:	c1 e0 02             	shl    $0x2,%eax
   1b96f:	05 00 70 02 00       	add    $0x27000,%eax
   1b974:	52                   	push   %edx
   1b975:	50                   	push   %eax
   1b976:	e8 dc fa ff ff       	call   1b457 <_ZL13pde_set_framePjj>
   1b97b:	83 c4 08             	add    $0x8,%esp
   1b97e:	8b 45 e0             	mov    -0x20(%ebp),%eax
   1b981:	c1 f8 0c             	sar    $0xc,%eax
   1b984:	25 ff 03 00 00       	and    $0x3ff,%eax
   1b989:	89 c1                	mov    %eax,%ecx
   1b98b:	8b 45 dc             	mov    -0x24(%ebp),%eax
   1b98e:	8b 55 e4             	mov    -0x1c(%ebp),%edx
   1b991:	c1 e2 0a             	shl    $0xa,%edx
   1b994:	01 ca                	add    %ecx,%edx
   1b996:	89 04 95 00 80 02 00 	mov    %eax,0x28000(,%edx,4)
   1b99d:	83 45 ec 01          	addl   $0x1,-0x14(%ebp)
   1b9a1:	81 45 e8 00 10 00 00 	addl   $0x1000,-0x18(%ebp)
   1b9a8:	8b 45 e0             	mov    -0x20(%ebp),%eax
   1b9ab:	05 00 10 00 00       	add    $0x1000,%eax
   1b9b0:	89 45 e0             	mov    %eax,-0x20(%ebp)
   1b9b3:	e9 3d ff ff ff       	jmp    1b8f5 <_Z17paging_initializev+0x81>
   1b9b8:	83 ec 08             	sub    $0x8,%esp
   1b9bb:	68 95 bb 01 00       	push   $0x1bb95
   1b9c0:	6a 0e                	push   $0xe
   1b9c2:	e8 9c ed ff ff       	call   1a763 <interrupt_register_handler>
   1b9c7:	83 c4 10             	add    $0x10,%esp
   1b9ca:	b8 00 70 02 00       	mov    $0x27000,%eax
   1b9cf:	83 ec 0c             	sub    $0xc,%esp
   1b9d2:	50                   	push   %eax
   1b9d3:	e8 f5 00 00 00       	call   1bacd <_Z21switch_page_directoryj>
   1b9d8:	83 c4 10             	add    $0x10,%esp
   1b9db:	e8 29 01 00 00       	call   1bb09 <_Z13enable_pagingv>
   1b9e0:	90                   	nop
   1b9e1:	c9                   	leave  
   1b9e2:	c3                   	ret    

0001b9e3 <_Z10map_kernelv>:
   1b9e3:	55                   	push   %ebp
   1b9e4:	89 e5                	mov    %esp,%ebp
   1b9e6:	83 ec 20             	sub    $0x20,%esp
   1b9e9:	c7 45 fc 00 00 00 00 	movl   $0x0,-0x4(%ebp)
   1b9f0:	c7 45 f8 00 00 00 00 	movl   $0x0,-0x8(%ebp)
   1b9f7:	c7 45 f0 00 00 00 00 	movl   $0x0,-0x10(%ebp)
   1b9fe:	81 7d fc ff 1f 00 00 	cmpl   $0x1fff,-0x4(%ebp)
   1ba05:	0f 8f bf 00 00 00    	jg     1baca <_Z10map_kernelv+0xe7>
   1ba0b:	c7 45 ec 00 00 00 00 	movl   $0x0,-0x14(%ebp)
   1ba12:	6a 03                	push   $0x3
   1ba14:	8d 45 ec             	lea    -0x14(%ebp),%eax
   1ba17:	50                   	push   %eax
   1ba18:	e8 54 fa ff ff       	call   1b471 <_ZL9set_flagsPjj>
   1ba1d:	83 c4 08             	add    $0x8,%esp
   1ba20:	8b 45 f8             	mov    -0x8(%ebp),%eax
   1ba23:	50                   	push   %eax
   1ba24:	8d 45 ec             	lea    -0x14(%ebp),%eax
   1ba27:	50                   	push   %eax
   1ba28:	e8 00 fa ff ff       	call   1b42d <_ZL14page_set_framePjj>
   1ba2d:	83 c4 08             	add    $0x8,%esp
   1ba30:	8b 45 f0             	mov    -0x10(%ebp),%eax
   1ba33:	c1 e8 16             	shr    $0x16,%eax
   1ba36:	89 45 f4             	mov    %eax,-0xc(%ebp)
   1ba39:	a1 00 80 42 00       	mov    0x428000,%eax
   1ba3e:	8b 55 f4             	mov    -0xc(%ebp),%edx
   1ba41:	c1 e2 0c             	shl    $0xc,%edx
   1ba44:	01 d0                	add    %edx,%eax
   1ba46:	6a 01                	push   $0x1
   1ba48:	50                   	push   %eax
   1ba49:	e8 23 fa ff ff       	call   1b471 <_ZL9set_flagsPjj>
   1ba4e:	83 c4 08             	add    $0x8,%esp
   1ba51:	a1 00 80 42 00       	mov    0x428000,%eax
   1ba56:	8b 55 f4             	mov    -0xc(%ebp),%edx
   1ba59:	c1 e2 0c             	shl    $0xc,%edx
   1ba5c:	01 d0                	add    %edx,%eax
   1ba5e:	6a 02                	push   $0x2
   1ba60:	50                   	push   %eax
   1ba61:	e8 0b fa ff ff       	call   1b471 <_ZL9set_flagsPjj>
   1ba66:	83 c4 08             	add    $0x8,%esp
   1ba69:	a1 04 80 42 00       	mov    0x428004,%eax
   1ba6e:	8b 55 f4             	mov    -0xc(%ebp),%edx
   1ba71:	c1 e2 0c             	shl    $0xc,%edx
   1ba74:	01 d0                	add    %edx,%eax
   1ba76:	89 c1                	mov    %eax,%ecx
   1ba78:	a1 00 80 42 00       	mov    0x428000,%eax
   1ba7d:	8b 55 f4             	mov    -0xc(%ebp),%edx
   1ba80:	c1 e2 0c             	shl    $0xc,%edx
   1ba83:	01 d0                	add    %edx,%eax
   1ba85:	51                   	push   %ecx
   1ba86:	50                   	push   %eax
   1ba87:	e8 cb f9 ff ff       	call   1b457 <_ZL13pde_set_framePjj>
   1ba8c:	83 c4 08             	add    $0x8,%esp
   1ba8f:	a1 04 80 42 00       	mov    0x428004,%eax
   1ba94:	8b 55 f4             	mov    -0xc(%ebp),%edx
   1ba97:	c1 e2 0c             	shl    $0xc,%edx
   1ba9a:	01 c2                	add    %eax,%edx
   1ba9c:	8b 45 f0             	mov    -0x10(%ebp),%eax
   1ba9f:	c1 f8 0c             	sar    $0xc,%eax
   1baa2:	25 ff 03 00 00       	and    $0x3ff,%eax
   1baa7:	89 c1                	mov    %eax,%ecx
   1baa9:	8b 45 ec             	mov    -0x14(%ebp),%eax
   1baac:	89 04 8a             	mov    %eax,(%edx,%ecx,4)
   1baaf:	83 45 fc 01          	addl   $0x1,-0x4(%ebp)
   1bab3:	81 45 f8 00 10 00 00 	addl   $0x1000,-0x8(%ebp)
   1baba:	8b 45 f0             	mov    -0x10(%ebp),%eax
   1babd:	05 00 10 00 00       	add    $0x1000,%eax
   1bac2:	89 45 f0             	mov    %eax,-0x10(%ebp)
   1bac5:	e9 34 ff ff ff       	jmp    1b9fe <_Z10map_kernelv+0x1b>
   1baca:	90                   	nop
   1bacb:	c9                   	leave  
   1bacc:	c3                   	ret    

0001bacd <_Z21switch_page_directoryj>:
   1bacd:	55                   	push   %ebp
   1bace:	89 e5                	mov    %esp,%ebp
   1bad0:	8b 45 08             	mov    0x8(%ebp),%eax
   1bad3:	0f 22 d8             	mov    %eax,%cr3
   1bad6:	90                   	nop
   1bad7:	5d                   	pop    %ebp
   1bad8:	c3                   	ret    

0001bad9 <_Z26set_current_page_directory20page_directory_ptr_t>:
   1bad9:	55                   	push   %ebp
   1bada:	89 e5                	mov    %esp,%ebp
   1badc:	8b 45 08             	mov    0x8(%ebp),%eax
   1badf:	a3 00 80 42 00       	mov    %eax,0x428000
   1bae4:	8b 45 0c             	mov    0xc(%ebp),%eax
   1bae7:	a3 04 80 42 00       	mov    %eax,0x428004
   1baec:	90                   	nop
   1baed:	5d                   	pop    %ebp
   1baee:	c3                   	ret    

0001baef <_Z33set_current_page_directory_kernelv>:
   1baef:	55                   	push   %ebp
   1baf0:	89 e5                	mov    %esp,%ebp
   1baf2:	c7 05 00 80 42 00 00 	movl   $0x27000,0x428000
   1baf9:	70 02 00 
   1bafc:	c7 05 04 80 42 00 00 	movl   $0x28000,0x428004
   1bb03:	80 02 00 
   1bb06:	90                   	nop
   1bb07:	5d                   	pop    %ebp
   1bb08:	c3                   	ret    

0001bb09 <_Z13enable_pagingv>:
   1bb09:	55                   	push   %ebp
   1bb0a:	89 e5                	mov    %esp,%ebp
   1bb0c:	83 ec 10             	sub    $0x10,%esp
   1bb0f:	0f 20 c0             	mov    %cr0,%eax
   1bb12:	89 45 fc             	mov    %eax,-0x4(%ebp)
   1bb15:	81 4d fc 00 00 00 80 	orl    $0x80000000,-0x4(%ebp)
   1bb1c:	8b 45 fc             	mov    -0x4(%ebp),%eax
   1bb1f:	0f 22 c0             	mov    %eax,%cr0
   1bb22:	90                   	nop
   1bb23:	c9                   	leave  
   1bb24:	c3                   	ret    

0001bb25 <_Z17new_address_spacev>:
   1bb25:	55                   	push   %ebp
   1bb26:	89 e5                	mov    %esp,%ebp
   1bb28:	83 ec 08             	sub    $0x8,%esp
   1bb2b:	83 ec 0c             	sub    $0xc,%esp
   1bb2e:	68 00 10 00 00       	push   $0x1000
   1bb33:	e8 0c d0 ff ff       	call   18b44 <kmalloc>
   1bb38:	83 c4 10             	add    $0x10,%esp
   1bb3b:	89 c2                	mov    %eax,%edx
   1bb3d:	8b 45 08             	mov    0x8(%ebp),%eax
   1bb40:	89 10                	mov    %edx,(%eax)
   1bb42:	b8 00 00 40 00       	mov    $0x400000,%eax
   1bb47:	83 ec 0c             	sub    $0xc,%esp
   1bb4a:	50                   	push   %eax
   1bb4b:	e8 f4 cf ff ff       	call   18b44 <kmalloc>
   1bb50:	83 c4 10             	add    $0x10,%esp
   1bb53:	89 c2                	mov    %eax,%edx
   1bb55:	8b 45 08             	mov    0x8(%ebp),%eax
   1bb58:	89 50 04             	mov    %edx,0x4(%eax)
   1bb5b:	8b 45 08             	mov    0x8(%ebp),%eax
   1bb5e:	8b 00                	mov    (%eax),%eax
   1bb60:	83 ec 04             	sub    $0x4,%esp
   1bb63:	68 00 10 00 00       	push   $0x1000
   1bb68:	6a 00                	push   $0x0
   1bb6a:	50                   	push   %eax
   1bb6b:	e8 05 f3 ff ff       	call   1ae75 <memset>
   1bb70:	83 c4 10             	add    $0x10,%esp
   1bb73:	ba 00 00 40 00       	mov    $0x400000,%edx
   1bb78:	8b 45 08             	mov    0x8(%ebp),%eax
   1bb7b:	8b 40 04             	mov    0x4(%eax),%eax
   1bb7e:	83 ec 04             	sub    $0x4,%esp
   1bb81:	52                   	push   %edx
   1bb82:	6a 00                	push   $0x0
   1bb84:	50                   	push   %eax
   1bb85:	e8 eb f2 ff ff       	call   1ae75 <memset>
   1bb8a:	83 c4 10             	add    $0x10,%esp
   1bb8d:	90                   	nop
   1bb8e:	8b 45 08             	mov    0x8(%ebp),%eax
   1bb91:	c9                   	leave  
   1bb92:	c2 04 00             	ret    $0x4

0001bb95 <_Z18page_fault_handlerP8regs32_t>:
   1bb95:	55                   	push   %ebp
   1bb96:	89 e5                	mov    %esp,%ebp
   1bb98:	83 ec 28             	sub    $0x28,%esp
   1bb9b:	83 ec 0c             	sub    $0xc,%esp
   1bb9e:	68 f0 1a 02 00       	push   $0x21af0
   1bba3:	e8 80 12 00 00       	call   1ce28 <_Z19write_serial_stringPc>
   1bba8:	83 c4 10             	add    $0x10,%esp
   1bbab:	0f 20 d0             	mov    %cr2,%eax
   1bbae:	89 45 f0             	mov    %eax,-0x10(%ebp)
   1bbb1:	8b 45 08             	mov    0x8(%ebp),%eax
   1bbb4:	8b 40 34             	mov    0x34(%eax),%eax
   1bbb7:	83 e0 01             	and    $0x1,%eax
   1bbba:	85 c0                	test   %eax,%eax
   1bbbc:	0f 94 c0             	sete   %al
   1bbbf:	0f b6 c0             	movzbl %al,%eax
   1bbc2:	89 45 ec             	mov    %eax,-0x14(%ebp)
   1bbc5:	8b 45 08             	mov    0x8(%ebp),%eax
   1bbc8:	8b 40 34             	mov    0x34(%eax),%eax
   1bbcb:	83 e0 02             	and    $0x2,%eax
   1bbce:	89 45 e8             	mov    %eax,-0x18(%ebp)
   1bbd1:	8b 45 08             	mov    0x8(%ebp),%eax
   1bbd4:	8b 40 34             	mov    0x34(%eax),%eax
   1bbd7:	83 e0 04             	and    $0x4,%eax
   1bbda:	89 45 e4             	mov    %eax,-0x1c(%ebp)
   1bbdd:	8b 45 08             	mov    0x8(%ebp),%eax
   1bbe0:	8b 40 34             	mov    0x34(%eax),%eax
   1bbe3:	83 e0 08             	and    $0x8,%eax
   1bbe6:	89 45 e0             	mov    %eax,-0x20(%ebp)
   1bbe9:	8b 45 08             	mov    0x8(%ebp),%eax
   1bbec:	8b 40 34             	mov    0x34(%eax),%eax
   1bbef:	83 e0 10             	and    $0x10,%eax
   1bbf2:	89 45 dc             	mov    %eax,-0x24(%ebp)
   1bbf5:	c7 45 d8 fe 1a 02 00 	movl   $0x21afe,-0x28(%ebp)
   1bbfc:	83 7d ec 00          	cmpl   $0x0,-0x14(%ebp)
   1bc00:	74 07                	je     1bc09 <_Z18page_fault_handlerP8regs32_t+0x74>
   1bc02:	c7 45 f4 0a 1b 02 00 	movl   $0x21b0a,-0xc(%ebp)
   1bc09:	83 7d e8 00          	cmpl   $0x0,-0x18(%ebp)
   1bc0d:	74 07                	je     1bc16 <_Z18page_fault_handlerP8regs32_t+0x81>
   1bc0f:	c7 45 f4 13 1b 02 00 	movl   $0x21b13,-0xc(%ebp)
   1bc16:	83 7d e4 00          	cmpl   $0x0,-0x1c(%ebp)
   1bc1a:	74 07                	je     1bc23 <_Z18page_fault_handlerP8regs32_t+0x8e>
   1bc1c:	c7 45 f4 1e 1b 02 00 	movl   $0x21b1e,-0xc(%ebp)
   1bc23:	83 7d e0 00          	cmpl   $0x0,-0x20(%ebp)
   1bc27:	74 07                	je     1bc30 <_Z18page_fault_handlerP8regs32_t+0x9b>
   1bc29:	c7 45 f4 29 1b 02 00 	movl   $0x21b29,-0xc(%ebp)
   1bc30:	83 7d dc 00          	cmpl   $0x0,-0x24(%ebp)
   1bc34:	74 07                	je     1bc3d <_Z18page_fault_handlerP8regs32_t+0xa8>
   1bc36:	c7 45 f4 33 1b 02 00 	movl   $0x21b33,-0xc(%ebp)
   1bc3d:	83 ec 0c             	sub    $0xc,%esp
   1bc40:	ff 75 f4             	pushl  -0xc(%ebp)
   1bc43:	e8 e0 11 00 00       	call   1ce28 <_Z19write_serial_stringPc>
   1bc48:	83 c4 10             	add    $0x10,%esp
   1bc4b:	83 ec 08             	sub    $0x8,%esp
   1bc4e:	ff 75 f4             	pushl  -0xc(%ebp)
   1bc51:	ff 75 d8             	pushl  -0x28(%ebp)
   1bc54:	e8 6d 2e 00 00       	call   1eac6 <strcat>
   1bc59:	83 c4 10             	add    $0x10,%esp
   1bc5c:	83 ec 0c             	sub    $0xc,%esp
   1bc5f:	ff 75 d8             	pushl  -0x28(%ebp)
   1bc62:	e8 c1 11 00 00       	call   1ce28 <_Z19write_serial_stringPc>
   1bc67:	83 c4 10             	add    $0x10,%esp
   1bc6a:	83 ec 0c             	sub    $0xc,%esp
   1bc6d:	68 45 1b 02 00       	push   $0x21b45
   1bc72:	e8 b1 11 00 00       	call   1ce28 <_Z19write_serial_stringPc>
   1bc77:	83 c4 10             	add    $0x10,%esp
   1bc7a:	83 ec 04             	sub    $0x4,%esp
   1bc7d:	6a 10                	push   $0x10
   1bc7f:	68 08 80 42 00       	push   $0x428008
   1bc84:	ff 75 f0             	pushl  -0x10(%ebp)
   1bc87:	e8 2e 32 00 00       	call   1eeba <_Z4itoamPci>
   1bc8c:	83 c4 10             	add    $0x10,%esp
   1bc8f:	83 ec 08             	sub    $0x8,%esp
   1bc92:	68 08 80 42 00       	push   $0x428008
   1bc97:	ff 75 d8             	pushl  -0x28(%ebp)
   1bc9a:	e8 11 e0 ff ff       	call   19cb0 <fatal_error>
   1bc9f:	83 c4 10             	add    $0x10,%esp
   1bca2:	eb fe                	jmp    1bca2 <_Z18page_fault_handlerP8regs32_t+0x10d>

0001bca4 <_ZN5PaintC1Eii>:
   1bca4:	55                   	push   %ebp
   1bca5:	89 e5                	mov    %esp,%ebp
   1bca7:	83 ec 08             	sub    $0x8,%esp
   1bcaa:	8b 45 08             	mov    0x8(%ebp),%eax
   1bcad:	c6 40 10 ff          	movb   $0xff,0x10(%eax)
   1bcb1:	8b 45 08             	mov    0x8(%ebp),%eax
   1bcb4:	c6 40 11 00          	movb   $0x0,0x11(%eax)
   1bcb8:	8b 45 08             	mov    0x8(%ebp),%eax
   1bcbb:	c6 40 12 00          	movb   $0x0,0x12(%eax)
   1bcbf:	8b 45 08             	mov    0x8(%ebp),%eax
   1bcc2:	c7 40 14 40 00 00 00 	movl   $0x40,0x14(%eax)
   1bcc9:	8b 45 08             	mov    0x8(%ebp),%eax
   1bccc:	c7 40 1c 01 00 00 00 	movl   $0x1,0x1c(%eax)
   1bcd3:	8b 45 08             	mov    0x8(%ebp),%eax
   1bcd6:	8b 55 0c             	mov    0xc(%ebp),%edx
   1bcd9:	89 50 08             	mov    %edx,0x8(%eax)
   1bcdc:	8b 45 08             	mov    0x8(%ebp),%eax
   1bcdf:	8b 55 10             	mov    0x10(%ebp),%edx
   1bce2:	89 50 0c             	mov    %edx,0xc(%eax)
   1bce5:	8b 45 0c             	mov    0xc(%ebp),%eax
   1bce8:	0f af 45 10          	imul   0x10(%ebp),%eax
   1bcec:	89 c2                	mov    %eax,%edx
   1bcee:	89 d0                	mov    %edx,%eax
   1bcf0:	01 c0                	add    %eax,%eax
   1bcf2:	01 d0                	add    %edx,%eax
   1bcf4:	83 ec 0c             	sub    $0xc,%esp
   1bcf7:	50                   	push   %eax
   1bcf8:	e8 47 ce ff ff       	call   18b44 <kmalloc>
   1bcfd:	83 c4 10             	add    $0x10,%esp
   1bd00:	89 c2                	mov    %eax,%edx
   1bd02:	8b 45 08             	mov    0x8(%ebp),%eax
   1bd05:	89 50 18             	mov    %edx,0x18(%eax)
   1bd08:	8b 45 0c             	mov    0xc(%ebp),%eax
   1bd0b:	0f af 45 10          	imul   0x10(%ebp),%eax
   1bd0f:	89 c2                	mov    %eax,%edx
   1bd11:	89 d0                	mov    %edx,%eax
   1bd13:	01 c0                	add    %eax,%eax
   1bd15:	01 c2                	add    %eax,%edx
   1bd17:	8b 45 08             	mov    0x8(%ebp),%eax
   1bd1a:	8b 40 18             	mov    0x18(%eax),%eax
   1bd1d:	83 ec 04             	sub    $0x4,%esp
   1bd20:	52                   	push   %edx
   1bd21:	68 ff 00 00 00       	push   $0xff
   1bd26:	50                   	push   %eax
   1bd27:	e8 49 f1 ff ff       	call   1ae75 <memset>
   1bd2c:	83 c4 10             	add    $0x10,%esp
   1bd2f:	90                   	nop
   1bd30:	c9                   	leave  
   1bd31:	c3                   	ret    

0001bd32 <_ZN5Paint6RenderEv>:
   1bd32:	55                   	push   %ebp
   1bd33:	89 e5                	mov    %esp,%ebp
   1bd35:	57                   	push   %edi
   1bd36:	56                   	push   %esi
   1bd37:	53                   	push   %ebx
   1bd38:	83 ec 1c             	sub    $0x1c,%esp
   1bd3b:	83 ec 0c             	sub    $0xc,%esp
   1bd3e:	6a 04                	push   $0x4
   1bd40:	e8 ff cd ff ff       	call   18b44 <kmalloc>
   1bd45:	83 c4 10             	add    $0x10,%esp
   1bd48:	89 45 dc             	mov    %eax,-0x24(%ebp)
   1bd4b:	8b 45 08             	mov    0x8(%ebp),%eax
   1bd4e:	8b 40 0c             	mov    0xc(%eax),%eax
   1bd51:	89 c3                	mov    %eax,%ebx
   1bd53:	8b 45 08             	mov    0x8(%ebp),%eax
   1bd56:	8b 40 14             	mov    0x14(%eax),%eax
   1bd59:	89 c1                	mov    %eax,%ecx
   1bd5b:	8b 45 08             	mov    0x8(%ebp),%eax
   1bd5e:	8b 40 04             	mov    0x4(%eax),%eax
   1bd61:	89 c2                	mov    %eax,%edx
   1bd63:	8b 45 08             	mov    0x8(%ebp),%eax
   1bd66:	8b 00                	mov    (%eax),%eax
   1bd68:	83 ec 04             	sub    $0x4,%esp
   1bd6b:	68 c4 00 00 00       	push   $0xc4
   1bd70:	68 c4 00 00 00       	push   $0xc4
   1bd75:	68 c4 00 00 00       	push   $0xc4
   1bd7a:	53                   	push   %ebx
   1bd7b:	51                   	push   %ecx
   1bd7c:	52                   	push   %edx
   1bd7d:	50                   	push   %eax
   1bd7e:	e8 fb 37 00 00       	call   1f57e <_Z15screen_fillrectjjjjhhh>
   1bd83:	83 c4 20             	add    $0x20,%esp
   1bd86:	8b 45 08             	mov    0x8(%ebp),%eax
   1bd89:	8b 40 04             	mov    0x4(%eax),%eax
   1bd8c:	83 c0 0a             	add    $0xa,%eax
   1bd8f:	89 c2                	mov    %eax,%edx
   1bd91:	8b 45 08             	mov    0x8(%ebp),%eax
   1bd94:	8b 00                	mov    (%eax),%eax
   1bd96:	83 c0 0a             	add    $0xa,%eax
   1bd99:	83 ec 04             	sub    $0x4,%esp
   1bd9c:	6a 01                	push   $0x1
   1bd9e:	6a 00                	push   $0x0
   1bda0:	6a 00                	push   $0x0
   1bda2:	6a 00                	push   $0x0
   1bda4:	52                   	push   %edx
   1bda5:	50                   	push   %eax
   1bda6:	68 48 1b 02 00       	push   $0x21b48
   1bdab:	e8 f8 3a 00 00       	call   1f8a8 <_Z10drawstringPcjjhhhi>
   1bdb0:	83 c4 20             	add    $0x20,%esp
   1bdb3:	8b 45 08             	mov    0x8(%ebp),%eax
   1bdb6:	0f b6 40 12          	movzbl 0x12(%eax),%eax
   1bdba:	0f b6 c8             	movzbl %al,%ecx
   1bdbd:	8b 45 08             	mov    0x8(%ebp),%eax
   1bdc0:	0f b6 40 11          	movzbl 0x11(%eax),%eax
   1bdc4:	0f b6 d0             	movzbl %al,%edx
   1bdc7:	8b 45 08             	mov    0x8(%ebp),%eax
   1bdca:	0f b6 40 10          	movzbl 0x10(%eax),%eax
   1bdce:	0f b6 c0             	movzbl %al,%eax
   1bdd1:	8b 5d 08             	mov    0x8(%ebp),%ebx
   1bdd4:	8b 5b 04             	mov    0x4(%ebx),%ebx
   1bdd7:	83 c3 14             	add    $0x14,%ebx
   1bdda:	89 de                	mov    %ebx,%esi
   1bddc:	8b 5d 08             	mov    0x8(%ebp),%ebx
   1bddf:	8b 1b                	mov    (%ebx),%ebx
   1bde1:	83 c3 0a             	add    $0xa,%ebx
   1bde4:	83 ec 04             	sub    $0x4,%esp
   1bde7:	51                   	push   %ecx
   1bde8:	52                   	push   %edx
   1bde9:	50                   	push   %eax
   1bdea:	6a 20                	push   $0x20
   1bdec:	6a 20                	push   $0x20
   1bdee:	56                   	push   %esi
   1bdef:	53                   	push   %ebx
   1bdf0:	e8 89 37 00 00       	call   1f57e <_Z15screen_fillrectjjjjhhh>
   1bdf5:	83 c4 20             	add    $0x20,%esp
   1bdf8:	8b 45 08             	mov    0x8(%ebp),%eax
   1bdfb:	8b 40 04             	mov    0x4(%eax),%eax
   1bdfe:	83 c0 3c             	add    $0x3c,%eax
   1be01:	89 c2                	mov    %eax,%edx
   1be03:	8b 45 08             	mov    0x8(%ebp),%eax
   1be06:	8b 00                	mov    (%eax),%eax
   1be08:	83 c0 0a             	add    $0xa,%eax
   1be0b:	83 ec 04             	sub    $0x4,%esp
   1be0e:	6a 01                	push   $0x1
   1be10:	6a 00                	push   $0x0
   1be12:	6a 00                	push   $0x0
   1be14:	6a 00                	push   $0x0
   1be16:	52                   	push   %edx
   1be17:	50                   	push   %eax
   1be18:	68 50 1b 02 00       	push   $0x21b50
   1be1d:	e8 86 3a 00 00       	call   1f8a8 <_Z10drawstringPcjjhhhi>
   1be22:	83 c4 20             	add    $0x20,%esp
   1be25:	8b 45 08             	mov    0x8(%ebp),%eax
   1be28:	8b 40 04             	mov    0x4(%eax),%eax
   1be2b:	83 c0 50             	add    $0x50,%eax
   1be2e:	89 c2                	mov    %eax,%edx
   1be30:	8b 45 08             	mov    0x8(%ebp),%eax
   1be33:	8b 00                	mov    (%eax),%eax
   1be35:	83 c0 0a             	add    $0xa,%eax
   1be38:	83 ec 04             	sub    $0x4,%esp
   1be3b:	6a 01                	push   $0x1
   1be3d:	6a 00                	push   $0x0
   1be3f:	6a 00                	push   $0x0
   1be41:	6a 00                	push   $0x0
   1be43:	52                   	push   %edx
   1be44:	50                   	push   %eax
   1be45:	68 64 1b 02 00       	push   $0x21b64
   1be4a:	e8 59 3a 00 00       	call   1f8a8 <_Z10drawstringPcjjhhhi>
   1be4f:	83 c4 20             	add    $0x20,%esp
   1be52:	8b 45 08             	mov    0x8(%ebp),%eax
   1be55:	8b 40 04             	mov    0x4(%eax),%eax
   1be58:	83 c0 5f             	add    $0x5f,%eax
   1be5b:	89 c2                	mov    %eax,%edx
   1be5d:	8b 45 08             	mov    0x8(%ebp),%eax
   1be60:	8b 00                	mov    (%eax),%eax
   1be62:	83 c0 0a             	add    $0xa,%eax
   1be65:	83 ec 04             	sub    $0x4,%esp
   1be68:	6a 01                	push   $0x1
   1be6a:	6a 00                	push   $0x0
   1be6c:	6a 00                	push   $0x0
   1be6e:	6a 00                	push   $0x0
   1be70:	52                   	push   %edx
   1be71:	50                   	push   %eax
   1be72:	68 67 1b 02 00       	push   $0x21b67
   1be77:	e8 2c 3a 00 00       	call   1f8a8 <_Z10drawstringPcjjhhhi>
   1be7c:	83 c4 20             	add    $0x20,%esp
   1be7f:	8b 45 08             	mov    0x8(%ebp),%eax
   1be82:	8b 40 04             	mov    0x4(%eax),%eax
   1be85:	83 c0 6e             	add    $0x6e,%eax
   1be88:	89 c2                	mov    %eax,%edx
   1be8a:	8b 45 08             	mov    0x8(%ebp),%eax
   1be8d:	8b 00                	mov    (%eax),%eax
   1be8f:	83 c0 0a             	add    $0xa,%eax
   1be92:	83 ec 04             	sub    $0x4,%esp
   1be95:	6a 01                	push   $0x1
   1be97:	6a 00                	push   $0x0
   1be99:	6a 00                	push   $0x0
   1be9b:	6a 00                	push   $0x0
   1be9d:	52                   	push   %edx
   1be9e:	50                   	push   %eax
   1be9f:	68 6a 1b 02 00       	push   $0x21b6a
   1bea4:	e8 ff 39 00 00       	call   1f8a8 <_Z10drawstringPcjjhhhi>
   1bea9:	83 c4 20             	add    $0x20,%esp
   1beac:	8b 45 08             	mov    0x8(%ebp),%eax
   1beaf:	8b 40 04             	mov    0x4(%eax),%eax
   1beb2:	83 c0 4f             	add    $0x4f,%eax
   1beb5:	89 c2                	mov    %eax,%edx
   1beb7:	8b 45 08             	mov    0x8(%ebp),%eax
   1beba:	8b 00                	mov    (%eax),%eax
   1bebc:	83 c0 14             	add    $0x14,%eax
   1bebf:	83 ec 04             	sub    $0x4,%esp
   1bec2:	6a 00                	push   $0x0
   1bec4:	6a 00                	push   $0x0
   1bec6:	6a 00                	push   $0x0
   1bec8:	6a 0a                	push   $0xa
   1beca:	6a 1a                	push   $0x1a
   1becc:	52                   	push   %edx
   1becd:	50                   	push   %eax
   1bece:	e8 ab 36 00 00       	call   1f57e <_Z15screen_fillrectjjjjhhh>
   1bed3:	83 c4 20             	add    $0x20,%esp
   1bed6:	8b 45 08             	mov    0x8(%ebp),%eax
   1bed9:	8b 40 04             	mov    0x4(%eax),%eax
   1bedc:	83 c0 5e             	add    $0x5e,%eax
   1bedf:	89 c2                	mov    %eax,%edx
   1bee1:	8b 45 08             	mov    0x8(%ebp),%eax
   1bee4:	8b 00                	mov    (%eax),%eax
   1bee6:	83 c0 14             	add    $0x14,%eax
   1bee9:	83 ec 04             	sub    $0x4,%esp
   1beec:	6a 00                	push   $0x0
   1beee:	6a 00                	push   $0x0
   1bef0:	6a 00                	push   $0x0
   1bef2:	6a 0a                	push   $0xa
   1bef4:	6a 1a                	push   $0x1a
   1bef6:	52                   	push   %edx
   1bef7:	50                   	push   %eax
   1bef8:	e8 81 36 00 00       	call   1f57e <_Z15screen_fillrectjjjjhhh>
   1befd:	83 c4 20             	add    $0x20,%esp
   1bf00:	8b 45 08             	mov    0x8(%ebp),%eax
   1bf03:	8b 40 04             	mov    0x4(%eax),%eax
   1bf06:	83 c0 6d             	add    $0x6d,%eax
   1bf09:	89 c2                	mov    %eax,%edx
   1bf0b:	8b 45 08             	mov    0x8(%ebp),%eax
   1bf0e:	8b 00                	mov    (%eax),%eax
   1bf10:	83 c0 14             	add    $0x14,%eax
   1bf13:	83 ec 04             	sub    $0x4,%esp
   1bf16:	6a 00                	push   $0x0
   1bf18:	6a 00                	push   $0x0
   1bf1a:	6a 00                	push   $0x0
   1bf1c:	6a 0a                	push   $0xa
   1bf1e:	6a 1a                	push   $0x1a
   1bf20:	52                   	push   %edx
   1bf21:	50                   	push   %eax
   1bf22:	e8 57 36 00 00       	call   1f57e <_Z15screen_fillrectjjjjhhh>
   1bf27:	83 c4 20             	add    $0x20,%esp
   1bf2a:	8b 45 08             	mov    0x8(%ebp),%eax
   1bf2d:	8b 40 04             	mov    0x4(%eax),%eax
   1bf30:	83 c0 50             	add    $0x50,%eax
   1bf33:	89 c6                	mov    %eax,%esi
   1bf35:	8b 45 08             	mov    0x8(%ebp),%eax
   1bf38:	8b 00                	mov    (%eax),%eax
   1bf3a:	83 c0 15             	add    $0x15,%eax
   1bf3d:	89 c3                	mov    %eax,%ebx
   1bf3f:	8b 45 08             	mov    0x8(%ebp),%eax
   1bf42:	0f b6 40 10          	movzbl 0x10(%eax),%eax
   1bf46:	0f b6 c0             	movzbl %al,%eax
   1bf49:	83 ec 04             	sub    $0x4,%esp
   1bf4c:	6a 0a                	push   $0xa
   1bf4e:	ff 75 dc             	pushl  -0x24(%ebp)
   1bf51:	50                   	push   %eax
   1bf52:	e8 63 2f 00 00       	call   1eeba <_Z4itoamPci>
   1bf57:	83 c4 10             	add    $0x10,%esp
   1bf5a:	83 ec 04             	sub    $0x4,%esp
   1bf5d:	6a 01                	push   $0x1
   1bf5f:	68 ff 00 00 00       	push   $0xff
   1bf64:	68 ff 00 00 00       	push   $0xff
   1bf69:	68 ff 00 00 00       	push   $0xff
   1bf6e:	56                   	push   %esi
   1bf6f:	53                   	push   %ebx
   1bf70:	50                   	push   %eax
   1bf71:	e8 32 39 00 00       	call   1f8a8 <_Z10drawstringPcjjhhhi>
   1bf76:	83 c4 20             	add    $0x20,%esp
   1bf79:	8b 45 08             	mov    0x8(%ebp),%eax
   1bf7c:	8b 40 04             	mov    0x4(%eax),%eax
   1bf7f:	83 c0 5f             	add    $0x5f,%eax
   1bf82:	89 c6                	mov    %eax,%esi
   1bf84:	8b 45 08             	mov    0x8(%ebp),%eax
   1bf87:	8b 00                	mov    (%eax),%eax
   1bf89:	83 c0 15             	add    $0x15,%eax
   1bf8c:	89 c3                	mov    %eax,%ebx
   1bf8e:	8b 45 08             	mov    0x8(%ebp),%eax
   1bf91:	0f b6 40 11          	movzbl 0x11(%eax),%eax
   1bf95:	0f b6 c0             	movzbl %al,%eax
   1bf98:	83 ec 04             	sub    $0x4,%esp
   1bf9b:	6a 0a                	push   $0xa
   1bf9d:	ff 75 dc             	pushl  -0x24(%ebp)
   1bfa0:	50                   	push   %eax
   1bfa1:	e8 14 2f 00 00       	call   1eeba <_Z4itoamPci>
   1bfa6:	83 c4 10             	add    $0x10,%esp
   1bfa9:	83 ec 04             	sub    $0x4,%esp
   1bfac:	6a 01                	push   $0x1
   1bfae:	68 ff 00 00 00       	push   $0xff
   1bfb3:	68 ff 00 00 00       	push   $0xff
   1bfb8:	68 ff 00 00 00       	push   $0xff
   1bfbd:	56                   	push   %esi
   1bfbe:	53                   	push   %ebx
   1bfbf:	50                   	push   %eax
   1bfc0:	e8 e3 38 00 00       	call   1f8a8 <_Z10drawstringPcjjhhhi>
   1bfc5:	83 c4 20             	add    $0x20,%esp
   1bfc8:	8b 45 08             	mov    0x8(%ebp),%eax
   1bfcb:	8b 40 04             	mov    0x4(%eax),%eax
   1bfce:	83 c0 6e             	add    $0x6e,%eax
   1bfd1:	89 c6                	mov    %eax,%esi
   1bfd3:	8b 45 08             	mov    0x8(%ebp),%eax
   1bfd6:	8b 00                	mov    (%eax),%eax
   1bfd8:	83 c0 15             	add    $0x15,%eax
   1bfdb:	89 c3                	mov    %eax,%ebx
   1bfdd:	8b 45 08             	mov    0x8(%ebp),%eax
   1bfe0:	0f b6 40 12          	movzbl 0x12(%eax),%eax
   1bfe4:	0f b6 c0             	movzbl %al,%eax
   1bfe7:	83 ec 04             	sub    $0x4,%esp
   1bfea:	6a 0a                	push   $0xa
   1bfec:	ff 75 dc             	pushl  -0x24(%ebp)
   1bfef:	50                   	push   %eax
   1bff0:	e8 c5 2e 00 00       	call   1eeba <_Z4itoamPci>
   1bff5:	83 c4 10             	add    $0x10,%esp
   1bff8:	83 ec 04             	sub    $0x4,%esp
   1bffb:	6a 01                	push   $0x1
   1bffd:	68 ff 00 00 00       	push   $0xff
   1c002:	68 ff 00 00 00       	push   $0xff
   1c007:	68 ff 00 00 00       	push   $0xff
   1c00c:	56                   	push   %esi
   1c00d:	53                   	push   %ebx
   1c00e:	50                   	push   %eax
   1c00f:	e8 94 38 00 00       	call   1f8a8 <_Z10drawstringPcjjhhhi>
   1c014:	83 c4 20             	add    $0x20,%esp
   1c017:	c7 45 e4 00 00 00 00 	movl   $0x0,-0x1c(%ebp)
   1c01e:	8b 45 08             	mov    0x8(%ebp),%eax
   1c021:	8b 40 08             	mov    0x8(%eax),%eax
   1c024:	3b 45 e4             	cmp    -0x1c(%ebp),%eax
   1c027:	0f 8e c9 00 00 00    	jle    1c0f6 <_ZN5Paint6RenderEv+0x3c4>
   1c02d:	c7 45 e0 00 00 00 00 	movl   $0x0,-0x20(%ebp)
   1c034:	8b 45 08             	mov    0x8(%ebp),%eax
   1c037:	8b 40 0c             	mov    0xc(%eax),%eax
   1c03a:	3b 45 e0             	cmp    -0x20(%ebp),%eax
   1c03d:	0f 8e aa 00 00 00    	jle    1c0ed <_ZN5Paint6RenderEv+0x3bb>
   1c043:	8b 45 08             	mov    0x8(%ebp),%eax
   1c046:	8b 50 18             	mov    0x18(%eax),%edx
   1c049:	8b 45 08             	mov    0x8(%ebp),%eax
   1c04c:	8b 40 08             	mov    0x8(%eax),%eax
   1c04f:	0f af 45 e0          	imul   -0x20(%ebp),%eax
   1c053:	89 c1                	mov    %eax,%ecx
   1c055:	8b 45 e4             	mov    -0x1c(%ebp),%eax
   1c058:	01 c8                	add    %ecx,%eax
   1c05a:	89 c1                	mov    %eax,%ecx
   1c05c:	89 c8                	mov    %ecx,%eax
   1c05e:	01 c0                	add    %eax,%eax
   1c060:	01 c8                	add    %ecx,%eax
   1c062:	01 d0                	add    %edx,%eax
   1c064:	0f b6 40 02          	movzbl 0x2(%eax),%eax
   1c068:	0f b6 c8             	movzbl %al,%ecx
   1c06b:	8b 45 08             	mov    0x8(%ebp),%eax
   1c06e:	8b 50 18             	mov    0x18(%eax),%edx
   1c071:	8b 45 08             	mov    0x8(%ebp),%eax
   1c074:	8b 40 08             	mov    0x8(%eax),%eax
   1c077:	0f af 45 e0          	imul   -0x20(%ebp),%eax
   1c07b:	89 c3                	mov    %eax,%ebx
   1c07d:	8b 45 e4             	mov    -0x1c(%ebp),%eax
   1c080:	01 d8                	add    %ebx,%eax
   1c082:	89 c3                	mov    %eax,%ebx
   1c084:	89 d8                	mov    %ebx,%eax
   1c086:	01 c0                	add    %eax,%eax
   1c088:	01 d8                	add    %ebx,%eax
   1c08a:	01 d0                	add    %edx,%eax
   1c08c:	0f b6 40 01          	movzbl 0x1(%eax),%eax
   1c090:	0f b6 d0             	movzbl %al,%edx
   1c093:	8b 45 08             	mov    0x8(%ebp),%eax
   1c096:	8b 58 18             	mov    0x18(%eax),%ebx
   1c099:	8b 45 08             	mov    0x8(%ebp),%eax
   1c09c:	8b 40 08             	mov    0x8(%eax),%eax
   1c09f:	0f af 45 e0          	imul   -0x20(%ebp),%eax
   1c0a3:	89 c6                	mov    %eax,%esi
   1c0a5:	8b 45 e4             	mov    -0x1c(%ebp),%eax
   1c0a8:	01 f0                	add    %esi,%eax
   1c0aa:	89 c6                	mov    %eax,%esi
   1c0ac:	89 f0                	mov    %esi,%eax
   1c0ae:	01 c0                	add    %eax,%eax
   1c0b0:	01 f0                	add    %esi,%eax
   1c0b2:	01 d8                	add    %ebx,%eax
   1c0b4:	0f b6 00             	movzbl (%eax),%eax
   1c0b7:	0f b6 c0             	movzbl %al,%eax
   1c0ba:	8b 5d 08             	mov    0x8(%ebp),%ebx
   1c0bd:	8b 73 04             	mov    0x4(%ebx),%esi
   1c0c0:	8b 5d e0             	mov    -0x20(%ebp),%ebx
   1c0c3:	01 f3                	add    %esi,%ebx
   1c0c5:	89 df                	mov    %ebx,%edi
   1c0c7:	8b 5d 08             	mov    0x8(%ebp),%ebx
   1c0ca:	8b 1b                	mov    (%ebx),%ebx
   1c0cc:	8d 73 40             	lea    0x40(%ebx),%esi
   1c0cf:	8b 5d e4             	mov    -0x1c(%ebp),%ebx
   1c0d2:	01 f3                	add    %esi,%ebx
   1c0d4:	83 ec 0c             	sub    $0xc,%esp
   1c0d7:	51                   	push   %ecx
   1c0d8:	52                   	push   %edx
   1c0d9:	50                   	push   %eax
   1c0da:	57                   	push   %edi
   1c0db:	53                   	push   %ebx
   1c0dc:	e8 1d 34 00 00       	call   1f4fe <_Z15screen_putpixeljjhhh>
   1c0e1:	83 c4 20             	add    $0x20,%esp
   1c0e4:	83 45 e0 01          	addl   $0x1,-0x20(%ebp)
   1c0e8:	e9 47 ff ff ff       	jmp    1c034 <_ZN5Paint6RenderEv+0x302>
   1c0ed:	83 45 e4 01          	addl   $0x1,-0x1c(%ebp)
   1c0f1:	e9 28 ff ff ff       	jmp    1c01e <_ZN5Paint6RenderEv+0x2ec>
   1c0f6:	90                   	nop
   1c0f7:	8d 65 f4             	lea    -0xc(%ebp),%esp
   1c0fa:	5b                   	pop    %ebx
   1c0fb:	5e                   	pop    %esi
   1c0fc:	5f                   	pop    %edi
   1c0fd:	5d                   	pop    %ebp
   1c0fe:	c3                   	ret    
   1c0ff:	90                   	nop

0001c100 <_ZN5Paint8RelocateEii>:
   1c100:	55                   	push   %ebp
   1c101:	89 e5                	mov    %esp,%ebp
   1c103:	8b 45 08             	mov    0x8(%ebp),%eax
   1c106:	8b 55 0c             	mov    0xc(%ebp),%edx
   1c109:	89 10                	mov    %edx,(%eax)
   1c10b:	8b 45 08             	mov    0x8(%ebp),%eax
   1c10e:	8b 55 10             	mov    0x10(%ebp),%edx
   1c111:	89 50 04             	mov    %edx,0x4(%eax)
   1c114:	90                   	nop
   1c115:	5d                   	pop    %ebp
   1c116:	c3                   	ret    
   1c117:	90                   	nop

0001c118 <_ZN5Paint6UpdateEbii>:
   1c118:	55                   	push   %ebp
   1c119:	89 e5                	mov    %esp,%ebp
   1c11b:	83 ec 18             	sub    $0x18,%esp
   1c11e:	8b 45 0c             	mov    0xc(%ebp),%eax
   1c121:	88 45 f4             	mov    %al,-0xc(%ebp)
   1c124:	80 7d f4 00          	cmpb   $0x0,-0xc(%ebp)
   1c128:	74 14                	je     1c13e <_ZN5Paint6UpdateEbii+0x26>
   1c12a:	83 ec 04             	sub    $0x4,%esp
   1c12d:	ff 75 14             	pushl  0x14(%ebp)
   1c130:	ff 75 10             	pushl  0x10(%ebp)
   1c133:	ff 75 08             	pushl  0x8(%ebp)
   1c136:	e8 63 00 00 00       	call   1c19e <_ZN5Paint10MouseEventEii>
   1c13b:	83 c4 10             	add    $0x10,%esp
   1c13e:	e8 74 ec ff ff       	call   1adb7 <_Z11key_updatedv>
   1c143:	84 c0                	test   %al,%al
   1c145:	74 54                	je     1c19b <_ZN5Paint6UpdateEbii+0x83>
   1c147:	e8 88 ec ff ff       	call   1add4 <_Z7get_keyv>
   1c14c:	0f be c0             	movsbl %al,%eax
   1c14f:	83 e8 65             	sub    $0x65,%eax
   1c152:	83 f8 12             	cmp    $0x12,%eax
   1c155:	77 44                	ja     1c19b <_ZN5Paint6UpdateEbii+0x83>
   1c157:	8b 04 85 70 1b 02 00 	mov    0x21b70(,%eax,4),%eax
   1c15e:	ff e0                	jmp    *%eax
   1c160:	8b 45 08             	mov    0x8(%ebp),%eax
   1c163:	c7 40 1c 01 00 00 00 	movl   $0x1,0x1c(%eax)
   1c16a:	eb 2f                	jmp    1c19b <_ZN5Paint6UpdateEbii+0x83>
   1c16c:	8b 45 08             	mov    0x8(%ebp),%eax
   1c16f:	c7 40 1c 03 00 00 00 	movl   $0x3,0x1c(%eax)
   1c176:	eb 23                	jmp    1c19b <_ZN5Paint6UpdateEbii+0x83>
   1c178:	8b 45 08             	mov    0x8(%ebp),%eax
   1c17b:	c7 40 1c 05 00 00 00 	movl   $0x5,0x1c(%eax)
   1c182:	eb 17                	jmp    1c19b <_ZN5Paint6UpdateEbii+0x83>
   1c184:	8b 45 08             	mov    0x8(%ebp),%eax
   1c187:	c7 40 1c 0a 00 00 00 	movl   $0xa,0x1c(%eax)
   1c18e:	eb 0b                	jmp    1c19b <_ZN5Paint6UpdateEbii+0x83>
   1c190:	8b 45 08             	mov    0x8(%ebp),%eax
   1c193:	c7 40 1c 0f 00 00 00 	movl   $0xf,0x1c(%eax)
   1c19a:	90                   	nop
   1c19b:	90                   	nop
   1c19c:	c9                   	leave  
   1c19d:	c3                   	ret    

0001c19e <_ZN5Paint10MouseEventEii>:
   1c19e:	55                   	push   %ebp
   1c19f:	89 e5                	mov    %esp,%ebp
   1c1a1:	83 ec 20             	sub    $0x20,%esp
   1c1a4:	8b 45 08             	mov    0x8(%ebp),%eax
   1c1a7:	8b 00                	mov    (%eax),%eax
   1c1a9:	8b 55 0c             	mov    0xc(%ebp),%edx
   1c1ac:	29 c2                	sub    %eax,%edx
   1c1ae:	89 d0                	mov    %edx,%eax
   1c1b0:	89 45 f4             	mov    %eax,-0xc(%ebp)
   1c1b3:	8b 45 08             	mov    0x8(%ebp),%eax
   1c1b6:	8b 40 04             	mov    0x4(%eax),%eax
   1c1b9:	8b 55 10             	mov    0x10(%ebp),%edx
   1c1bc:	29 c2                	sub    %eax,%edx
   1c1be:	89 d0                	mov    %edx,%eax
   1c1c0:	89 45 f0             	mov    %eax,-0x10(%ebp)
   1c1c3:	83 7d f4 40          	cmpl   $0x40,-0xc(%ebp)
   1c1c7:	0f 8e a6 00 00 00    	jle    1c273 <_ZN5Paint10MouseEventEii+0xd5>
   1c1cd:	83 6d f4 40          	subl   $0x40,-0xc(%ebp)
   1c1d1:	8b 45 f4             	mov    -0xc(%ebp),%eax
   1c1d4:	89 45 ec             	mov    %eax,-0x14(%ebp)
   1c1d7:	8b 45 f0             	mov    -0x10(%ebp),%eax
   1c1da:	89 45 e8             	mov    %eax,-0x18(%ebp)
   1c1dd:	8b 45 08             	mov    0x8(%ebp),%eax
   1c1e0:	8b 40 1c             	mov    0x1c(%eax),%eax
   1c1e3:	83 e8 01             	sub    $0x1,%eax
   1c1e6:	89 c2                	mov    %eax,%edx
   1c1e8:	c1 ea 1f             	shr    $0x1f,%edx
   1c1eb:	01 d0                	add    %edx,%eax
   1c1ed:	d1 f8                	sar    %eax
   1c1ef:	29 45 ec             	sub    %eax,-0x14(%ebp)
   1c1f2:	8b 45 08             	mov    0x8(%ebp),%eax
   1c1f5:	8b 40 1c             	mov    0x1c(%eax),%eax
   1c1f8:	83 e8 01             	sub    $0x1,%eax
   1c1fb:	89 c2                	mov    %eax,%edx
   1c1fd:	c1 ea 1f             	shr    $0x1f,%edx
   1c200:	01 d0                	add    %edx,%eax
   1c202:	d1 f8                	sar    %eax
   1c204:	29 45 e8             	sub    %eax,-0x18(%ebp)
   1c207:	c7 45 fc 00 00 00 00 	movl   $0x0,-0x4(%ebp)
   1c20e:	8b 45 08             	mov    0x8(%ebp),%eax
   1c211:	8b 40 1c             	mov    0x1c(%eax),%eax
   1c214:	3b 45 fc             	cmp    -0x4(%ebp),%eax
   1c217:	7e 5a                	jle    1c273 <_ZN5Paint10MouseEventEii+0xd5>
   1c219:	c7 45 f8 00 00 00 00 	movl   $0x0,-0x8(%ebp)
   1c220:	8b 45 08             	mov    0x8(%ebp),%eax
   1c223:	8b 40 1c             	mov    0x1c(%eax),%eax
   1c226:	3b 45 f8             	cmp    -0x8(%ebp),%eax
   1c229:	7e 42                	jle    1c26d <_ZN5Paint10MouseEventEii+0xcf>
   1c22b:	8b 45 08             	mov    0x8(%ebp),%eax
   1c22e:	8b 50 18             	mov    0x18(%eax),%edx
   1c231:	8b 4d e8             	mov    -0x18(%ebp),%ecx
   1c234:	8b 45 fc             	mov    -0x4(%ebp),%eax
   1c237:	01 c1                	add    %eax,%ecx
   1c239:	8b 45 08             	mov    0x8(%ebp),%eax
   1c23c:	8b 40 08             	mov    0x8(%eax),%eax
   1c23f:	0f af c8             	imul   %eax,%ecx
   1c242:	8b 45 ec             	mov    -0x14(%ebp),%eax
   1c245:	01 c1                	add    %eax,%ecx
   1c247:	8b 45 f8             	mov    -0x8(%ebp),%eax
   1c24a:	01 c8                	add    %ecx,%eax
   1c24c:	89 c1                	mov    %eax,%ecx
   1c24e:	89 c8                	mov    %ecx,%eax
   1c250:	01 c0                	add    %eax,%eax
   1c252:	01 c8                	add    %ecx,%eax
   1c254:	01 c2                	add    %eax,%edx
   1c256:	8b 45 08             	mov    0x8(%ebp),%eax
   1c259:	0f b7 48 10          	movzwl 0x10(%eax),%ecx
   1c25d:	66 89 0a             	mov    %cx,(%edx)
   1c260:	0f b6 40 12          	movzbl 0x12(%eax),%eax
   1c264:	88 42 02             	mov    %al,0x2(%edx)
   1c267:	83 45 f8 01          	addl   $0x1,-0x8(%ebp)
   1c26b:	eb b3                	jmp    1c220 <_ZN5Paint10MouseEventEii+0x82>
   1c26d:	83 45 fc 01          	addl   $0x1,-0x4(%ebp)
   1c271:	eb 9b                	jmp    1c20e <_ZN5Paint10MouseEventEii+0x70>
   1c273:	90                   	nop
   1c274:	c9                   	leave  
   1c275:	c3                   	ret    

0001c276 <_Z14physalloc_initP13memory_info_t>:
   1c276:	55                   	push   %ebp
   1c277:	89 e5                	mov    %esp,%ebp
   1c279:	83 ec 18             	sub    $0x18,%esp
   1c27c:	83 ec 04             	sub    $0x4,%esp
   1c27f:	68 00 00 02 00       	push   $0x20000
   1c284:	6a ff                	push   $0xffffffff
   1c286:	68 20 80 42 00       	push   $0x428020
   1c28b:	e8 e5 eb ff ff       	call   1ae75 <memset>
   1c290:	83 c4 10             	add    $0x10,%esp
   1c293:	8b 45 08             	mov    0x8(%ebp),%eax
   1c296:	8b 40 08             	mov    0x8(%eax),%eax
   1c299:	89 45 f4             	mov    %eax,-0xc(%ebp)
   1c29c:	8b 45 08             	mov    0x8(%ebp),%eax
   1c29f:	8b 48 08             	mov    0x8(%eax),%ecx
   1c2a2:	8b 45 08             	mov    0x8(%ebp),%eax
   1c2a5:	8b 50 0c             	mov    0xc(%eax),%edx
   1c2a8:	89 d0                	mov    %edx,%eax
   1c2aa:	01 c0                	add    %eax,%eax
   1c2ac:	01 d0                	add    %edx,%eax
   1c2ae:	c1 e0 03             	shl    $0x3,%eax
   1c2b1:	01 c8                	add    %ecx,%eax
   1c2b3:	89 45 f0             	mov    %eax,-0x10(%ebp)
   1c2b6:	8b 45 f4             	mov    -0xc(%ebp),%eax
   1c2b9:	3b 45 f0             	cmp    -0x10(%ebp),%eax
   1c2bc:	73 3e                	jae    1c2fc <_Z14physalloc_initP13memory_info_t+0x86>
   1c2be:	8b 45 f4             	mov    -0xc(%ebp),%eax
   1c2c1:	8b 40 14             	mov    0x14(%eax),%eax
   1c2c4:	83 f8 01             	cmp    $0x1,%eax
   1c2c7:	75 21                	jne    1c2ea <_Z14physalloc_initP13memory_info_t+0x74>
   1c2c9:	8b 45 f4             	mov    -0xc(%ebp),%eax
   1c2cc:	8b 50 10             	mov    0x10(%eax),%edx
   1c2cf:	8b 40 0c             	mov    0xc(%eax),%eax
   1c2d2:	89 c1                	mov    %eax,%ecx
   1c2d4:	8b 45 f4             	mov    -0xc(%ebp),%eax
   1c2d7:	8b 50 08             	mov    0x8(%eax),%edx
   1c2da:	8b 40 04             	mov    0x4(%eax),%eax
   1c2dd:	83 ec 08             	sub    $0x8,%esp
   1c2e0:	51                   	push   %ecx
   1c2e1:	50                   	push   %eax
   1c2e2:	e8 fe 00 00 00       	call   1c3e5 <_Z26physalloc_mark_region_freejj>
   1c2e7:	83 c4 10             	add    $0x10,%esp
   1c2ea:	8b 45 f4             	mov    -0xc(%ebp),%eax
   1c2ed:	8b 10                	mov    (%eax),%edx
   1c2ef:	8b 45 f4             	mov    -0xc(%ebp),%eax
   1c2f2:	01 d0                	add    %edx,%eax
   1c2f4:	83 c0 04             	add    $0x4,%eax
   1c2f7:	89 45 f4             	mov    %eax,-0xc(%ebp)
   1c2fa:	eb ba                	jmp    1c2b6 <_Z14physalloc_initP13memory_info_t+0x40>
   1c2fc:	8b 45 08             	mov    0x8(%ebp),%eax
   1c2ff:	8b 40 04             	mov    0x4(%eax),%eax
   1c302:	c1 e0 0a             	shl    $0xa,%eax
   1c305:	c1 e8 0c             	shr    $0xc,%eax
   1c308:	a3 24 80 44 00       	mov    %eax,0x448024
   1c30d:	83 ec 08             	sub    $0x8,%esp
   1c310:	68 00 00 40 01       	push   $0x1400000
   1c315:	6a 00                	push   $0x0
   1c317:	e8 7d 00 00 00       	call   1c399 <_Z26physalloc_mark_region_usedjj>
   1c31c:	83 c4 10             	add    $0x10,%esp
   1c31f:	90                   	nop
   1c320:	c9                   	leave  
   1c321:	c3                   	ret    

0001c322 <_Z26physalloc_first_free_blockv>:
   1c322:	55                   	push   %ebp
   1c323:	89 e5                	mov    %esp,%ebp
   1c325:	53                   	push   %ebx
   1c326:	83 ec 10             	sub    $0x10,%esp
   1c329:	c7 45 f8 00 00 00 00 	movl   $0x0,-0x8(%ebp)
   1c330:	81 7d f8 ff 7f 00 00 	cmpl   $0x7fff,-0x8(%ebp)
   1c337:	77 55                	ja     1c38e <_Z26physalloc_first_free_blockv+0x6c>
   1c339:	8b 45 f8             	mov    -0x8(%ebp),%eax
   1c33c:	8b 04 85 20 80 42 00 	mov    0x428020(,%eax,4),%eax
   1c343:	83 f8 ff             	cmp    $0xffffffff,%eax
   1c346:	74 40                	je     1c388 <_Z26physalloc_first_free_blockv+0x66>
   1c348:	c7 45 f4 00 00 00 00 	movl   $0x0,-0xc(%ebp)
   1c34f:	83 7d f4 1f          	cmpl   $0x1f,-0xc(%ebp)
   1c353:	77 33                	ja     1c388 <_Z26physalloc_first_free_blockv+0x66>
   1c355:	8b 45 f8             	mov    -0x8(%ebp),%eax
   1c358:	8b 14 85 20 80 42 00 	mov    0x428020(,%eax,4),%edx
   1c35f:	8b 45 f4             	mov    -0xc(%ebp),%eax
   1c362:	bb 01 00 00 00       	mov    $0x1,%ebx
   1c367:	89 c1                	mov    %eax,%ecx
   1c369:	d3 e3                	shl    %cl,%ebx
   1c36b:	89 d8                	mov    %ebx,%eax
   1c36d:	21 d0                	and    %edx,%eax
   1c36f:	85 c0                	test   %eax,%eax
   1c371:	75 0f                	jne    1c382 <_Z26physalloc_first_free_blockv+0x60>
   1c373:	8b 45 f8             	mov    -0x8(%ebp),%eax
   1c376:	c1 e0 05             	shl    $0x5,%eax
   1c379:	89 c2                	mov    %eax,%edx
   1c37b:	8b 45 f4             	mov    -0xc(%ebp),%eax
   1c37e:	01 d0                	add    %edx,%eax
   1c380:	eb 11                	jmp    1c393 <_Z26physalloc_first_free_blockv+0x71>
   1c382:	83 45 f4 01          	addl   $0x1,-0xc(%ebp)
   1c386:	eb c7                	jmp    1c34f <_Z26physalloc_first_free_blockv+0x2d>
   1c388:	83 45 f8 01          	addl   $0x1,-0x8(%ebp)
   1c38c:	eb a2                	jmp    1c330 <_Z26physalloc_first_free_blockv+0xe>
   1c38e:	b8 00 00 00 00       	mov    $0x0,%eax
   1c393:	83 c4 10             	add    $0x10,%esp
   1c396:	5b                   	pop    %ebx
   1c397:	5d                   	pop    %ebp
   1c398:	c3                   	ret    

0001c399 <_Z26physalloc_mark_region_usedjj>:
   1c399:	55                   	push   %ebp
   1c39a:	89 e5                	mov    %esp,%ebp
   1c39c:	83 ec 18             	sub    $0x18,%esp
   1c39f:	8b 45 0c             	mov    0xc(%ebp),%eax
   1c3a2:	c1 e8 0c             	shr    $0xc,%eax
   1c3a5:	83 c0 01             	add    $0x1,%eax
   1c3a8:	89 45 f4             	mov    %eax,-0xc(%ebp)
   1c3ab:	8b 45 08             	mov    0x8(%ebp),%eax
   1c3ae:	c1 e8 0c             	shr    $0xc,%eax
   1c3b1:	89 45 f0             	mov    %eax,-0x10(%ebp)
   1c3b4:	83 7d f4 00          	cmpl   $0x0,-0xc(%ebp)
   1c3b8:	74 28                	je     1c3e2 <_Z26physalloc_mark_region_usedjj+0x49>
   1c3ba:	8b 45 f0             	mov    -0x10(%ebp),%eax
   1c3bd:	8d 50 01             	lea    0x1(%eax),%edx
   1c3c0:	89 55 f0             	mov    %edx,-0x10(%ebp)
   1c3c3:	83 ec 0c             	sub    $0xc,%esp
   1c3c6:	50                   	push   %eax
   1c3c7:	e8 77 48 00 00       	call   20c43 <_Z17physalloc_bit_setj>
   1c3cc:	83 c4 10             	add    $0x10,%esp
   1c3cf:	83 6d f4 01          	subl   $0x1,-0xc(%ebp)
   1c3d3:	a1 20 80 44 00       	mov    0x448020,%eax
   1c3d8:	83 c0 01             	add    $0x1,%eax
   1c3db:	a3 20 80 44 00       	mov    %eax,0x448020
   1c3e0:	eb d2                	jmp    1c3b4 <_Z26physalloc_mark_region_usedjj+0x1b>
   1c3e2:	90                   	nop
   1c3e3:	c9                   	leave  
   1c3e4:	c3                   	ret    

0001c3e5 <_Z26physalloc_mark_region_freejj>:
   1c3e5:	55                   	push   %ebp
   1c3e6:	89 e5                	mov    %esp,%ebp
   1c3e8:	83 ec 18             	sub    $0x18,%esp
   1c3eb:	8b 45 0c             	mov    0xc(%ebp),%eax
   1c3ee:	c1 e8 0c             	shr    $0xc,%eax
   1c3f1:	83 c0 01             	add    $0x1,%eax
   1c3f4:	89 45 f4             	mov    %eax,-0xc(%ebp)
   1c3f7:	8b 45 08             	mov    0x8(%ebp),%eax
   1c3fa:	c1 e8 0c             	shr    $0xc,%eax
   1c3fd:	89 45 f0             	mov    %eax,-0x10(%ebp)
   1c400:	83 7d f4 00          	cmpl   $0x0,-0xc(%ebp)
   1c404:	74 28                	je     1c42e <_Z26physalloc_mark_region_freejj+0x49>
   1c406:	8b 45 f0             	mov    -0x10(%ebp),%eax
   1c409:	8d 50 01             	lea    0x1(%eax),%edx
   1c40c:	89 55 f0             	mov    %edx,-0x10(%ebp)
   1c40f:	83 ec 0c             	sub    $0xc,%esp
   1c412:	50                   	push   %eax
   1c413:	e8 58 48 00 00       	call   20c70 <_Z19physalloc_bit_clearj>
   1c418:	83 c4 10             	add    $0x10,%esp
   1c41b:	83 6d f4 01          	subl   $0x1,-0xc(%ebp)
   1c41f:	a1 20 80 44 00       	mov    0x448020,%eax
   1c424:	83 c0 01             	add    $0x1,%eax
   1c427:	a3 20 80 44 00       	mov    %eax,0x448020
   1c42c:	eb d2                	jmp    1c400 <_Z26physalloc_mark_region_freejj+0x1b>
   1c42e:	90                   	nop
   1c42f:	c9                   	leave  
   1c430:	c3                   	ret    

0001c431 <_Z21physalloc_alloc_blockv>:
   1c431:	55                   	push   %ebp
   1c432:	89 e5                	mov    %esp,%ebp
   1c434:	83 ec 18             	sub    $0x18,%esp
   1c437:	e8 e6 fe ff ff       	call   1c322 <_Z26physalloc_first_free_blockv>
   1c43c:	89 45 f4             	mov    %eax,-0xc(%ebp)
   1c43f:	83 7d f4 00          	cmpl   $0x0,-0xc(%ebp)
   1c443:	75 07                	jne    1c44c <_Z21physalloc_alloc_blockv+0x1b>
   1c445:	b8 00 00 00 00       	mov    $0x0,%eax
   1c44a:	eb 21                	jmp    1c46d <_Z21physalloc_alloc_blockv+0x3c>
   1c44c:	83 ec 0c             	sub    $0xc,%esp
   1c44f:	ff 75 f4             	pushl  -0xc(%ebp)
   1c452:	e8 ec 47 00 00       	call   20c43 <_Z17physalloc_bit_setj>
   1c457:	83 c4 10             	add    $0x10,%esp
   1c45a:	a1 20 80 44 00       	mov    0x448020,%eax
   1c45f:	83 c0 01             	add    $0x1,%eax
   1c462:	a3 20 80 44 00       	mov    %eax,0x448020
   1c467:	8b 45 f4             	mov    -0xc(%ebp),%eax
   1c46a:	c1 e0 0c             	shl    $0xc,%eax
   1c46d:	c9                   	leave  
   1c46e:	c3                   	ret    

0001c46f <_Z20physalloc_free_blockj>:
   1c46f:	55                   	push   %ebp
   1c470:	89 e5                	mov    %esp,%ebp
   1c472:	83 ec 18             	sub    $0x18,%esp
   1c475:	8b 45 08             	mov    0x8(%ebp),%eax
   1c478:	c1 e8 0c             	shr    $0xc,%eax
   1c47b:	89 45 f4             	mov    %eax,-0xc(%ebp)
   1c47e:	83 ec 0c             	sub    $0xc,%esp
   1c481:	ff 75 f4             	pushl  -0xc(%ebp)
   1c484:	e8 e7 47 00 00       	call   20c70 <_Z19physalloc_bit_clearj>
   1c489:	83 c4 10             	add    $0x10,%esp
   1c48c:	a1 20 80 44 00       	mov    0x448020,%eax
   1c491:	83 e8 01             	sub    $0x1,%eax
   1c494:	a3 20 80 44 00       	mov    %eax,0x448020
   1c499:	90                   	nop
   1c49a:	c9                   	leave  
   1c49b:	c3                   	ret    

0001c49c <_ZN3RPGC1EiiPcPPv>:
   1c49c:	55                   	push   %ebp
   1c49d:	89 e5                	mov    %esp,%ebp
   1c49f:	83 ec 18             	sub    $0x18,%esp
   1c4a2:	8b 45 08             	mov    0x8(%ebp),%eax
   1c4a5:	c7 40 0c bc 1b 02 00 	movl   $0x21bbc,0xc(%eax)
   1c4ac:	8b 45 08             	mov    0x8(%ebp),%eax
   1c4af:	c6 40 10 00          	movb   $0x0,0x10(%eax)
   1c4b3:	8b 45 08             	mov    0x8(%ebp),%eax
   1c4b6:	c7 40 18 00 00 00 00 	movl   $0x0,0x18(%eax)
   1c4bd:	8b 45 08             	mov    0x8(%ebp),%eax
   1c4c0:	c7 40 1c 00 00 00 00 	movl   $0x0,0x1c(%eax)
   1c4c7:	8b 45 08             	mov    0x8(%ebp),%eax
   1c4ca:	c7 40 20 00 00 00 00 	movl   $0x0,0x20(%eax)
   1c4d1:	8b 45 08             	mov    0x8(%ebp),%eax
   1c4d4:	c7 40 24 00 00 00 00 	movl   $0x0,0x24(%eax)
   1c4db:	8b 45 08             	mov    0x8(%ebp),%eax
   1c4de:	c7 40 28 10 00 00 00 	movl   $0x10,0x28(%eax)
   1c4e5:	8b 45 08             	mov    0x8(%ebp),%eax
   1c4e8:	c7 40 2c 10 00 00 00 	movl   $0x10,0x2c(%eax)
   1c4ef:	8b 45 08             	mov    0x8(%ebp),%eax
   1c4f2:	c7 40 30 20 00 00 00 	movl   $0x20,0x30(%eax)
   1c4f9:	8b 45 08             	mov    0x8(%ebp),%eax
   1c4fc:	c7 40 34 40 00 00 00 	movl   $0x40,0x34(%eax)
   1c503:	8b 45 08             	mov    0x8(%ebp),%eax
   1c506:	c7 40 38 40 00 00 00 	movl   $0x40,0x38(%eax)
   1c50d:	8b 45 08             	mov    0x8(%ebp),%eax
   1c510:	8b 55 0c             	mov    0xc(%ebp),%edx
   1c513:	89 50 18             	mov    %edx,0x18(%eax)
   1c516:	8b 45 08             	mov    0x8(%ebp),%eax
   1c519:	8b 55 10             	mov    0x10(%ebp),%edx
   1c51c:	89 50 1c             	mov    %edx,0x1c(%eax)
   1c51f:	8b 45 08             	mov    0x8(%ebp),%eax
   1c522:	8b 48 30             	mov    0x30(%eax),%ecx
   1c525:	b8 80 02 00 00       	mov    $0x280,%eax
   1c52a:	99                   	cltd   
   1c52b:	f7 f9                	idiv   %ecx
   1c52d:	89 c2                	mov    %eax,%edx
   1c52f:	8b 45 08             	mov    0x8(%ebp),%eax
   1c532:	89 50 3c             	mov    %edx,0x3c(%eax)
   1c535:	8b 45 08             	mov    0x8(%ebp),%eax
   1c538:	8b 48 30             	mov    0x30(%eax),%ecx
   1c53b:	b8 e0 01 00 00       	mov    $0x1e0,%eax
   1c540:	99                   	cltd   
   1c541:	f7 f9                	idiv   %ecx
   1c543:	89 c2                	mov    %eax,%edx
   1c545:	8b 45 08             	mov    0x8(%ebp),%eax
   1c548:	89 50 40             	mov    %edx,0x40(%eax)
   1c54b:	8b 45 18             	mov    0x18(%ebp),%eax
   1c54e:	8b 10                	mov    (%eax),%edx
   1c550:	8b 45 08             	mov    0x8(%ebp),%eax
   1c553:	89 10                	mov    %edx,(%eax)
   1c555:	8b 45 08             	mov    0x8(%ebp),%eax
   1c558:	8b 50 34             	mov    0x34(%eax),%edx
   1c55b:	8b 45 08             	mov    0x8(%ebp),%eax
   1c55e:	8b 40 38             	mov    0x38(%eax),%eax
   1c561:	0f af c2             	imul   %edx,%eax
   1c564:	83 ec 0c             	sub    $0xc,%esp
   1c567:	50                   	push   %eax
   1c568:	e8 d7 c5 ff ff       	call   18b44 <kmalloc>
   1c56d:	83 c4 10             	add    $0x10,%esp
   1c570:	89 c2                	mov    %eax,%edx
   1c572:	8b 45 08             	mov    0x8(%ebp),%eax
   1c575:	89 50 44             	mov    %edx,0x44(%eax)
   1c578:	c7 45 f4 00 00 00 00 	movl   $0x0,-0xc(%ebp)
   1c57f:	c7 45 f0 00 00 00 00 	movl   $0x0,-0x10(%ebp)
   1c586:	8b 45 08             	mov    0x8(%ebp),%eax
   1c589:	8b 40 38             	mov    0x38(%eax),%eax
   1c58c:	3b 45 f0             	cmp    -0x10(%ebp),%eax
   1c58f:	0f 8e e0 00 00 00    	jle    1c675 <_ZN3RPGC1EiiPcPPv+0x1d9>
   1c595:	c7 45 ec 00 00 00 00 	movl   $0x0,-0x14(%ebp)
   1c59c:	8b 45 08             	mov    0x8(%ebp),%eax
   1c59f:	8b 40 34             	mov    0x34(%eax),%eax
   1c5a2:	3b 45 ec             	cmp    -0x14(%ebp),%eax
   1c5a5:	0f 8e c1 00 00 00    	jle    1c66c <_ZN3RPGC1EiiPcPPv+0x1d0>
   1c5ab:	8b 55 f4             	mov    -0xc(%ebp),%edx
   1c5ae:	8b 45 14             	mov    0x14(%ebp),%eax
   1c5b1:	01 d0                	add    %edx,%eax
   1c5b3:	0f b6 00             	movzbl (%eax),%eax
   1c5b6:	0f be c0             	movsbl %al,%eax
   1c5b9:	83 f8 2e             	cmp    $0x2e,%eax
   1c5bc:	74 54                	je     1c612 <_ZN3RPGC1EiiPcPPv+0x176>
   1c5be:	83 f8 2e             	cmp    $0x2e,%eax
   1c5c1:	7f 0f                	jg     1c5d2 <_ZN3RPGC1EiiPcPPv+0x136>
   1c5c3:	83 f8 20             	cmp    $0x20,%eax
   1c5c6:	74 30                	je     1c5f8 <_ZN3RPGC1EiiPcPPv+0x15c>
   1c5c8:	83 f8 23             	cmp    $0x23,%eax
   1c5cb:	74 11                	je     1c5de <_ZN3RPGC1EiiPcPPv+0x142>
   1c5cd:	e9 84 00 00 00       	jmp    1c656 <_ZN3RPGC1EiiPcPPv+0x1ba>
   1c5d2:	83 f8 2f             	cmp    $0x2f,%eax
   1c5d5:	74 6f                	je     1c646 <_ZN3RPGC1EiiPcPPv+0x1aa>
   1c5d7:	83 f8 78             	cmp    $0x78,%eax
   1c5da:	74 50                	je     1c62c <_ZN3RPGC1EiiPcPPv+0x190>
   1c5dc:	eb 78                	jmp    1c656 <_ZN3RPGC1EiiPcPPv+0x1ba>
   1c5de:	8b 45 08             	mov    0x8(%ebp),%eax
   1c5e1:	8b 40 44             	mov    0x44(%eax),%eax
   1c5e4:	8b 55 ec             	mov    -0x14(%ebp),%edx
   1c5e7:	c1 e2 02             	shl    $0x2,%edx
   1c5ea:	01 d0                	add    %edx,%eax
   1c5ec:	8b 10                	mov    (%eax),%edx
   1c5ee:	8b 45 f0             	mov    -0x10(%ebp),%eax
   1c5f1:	01 d0                	add    %edx,%eax
   1c5f3:	c6 00 02             	movb   $0x2,(%eax)
   1c5f6:	eb 67                	jmp    1c65f <_ZN3RPGC1EiiPcPPv+0x1c3>
   1c5f8:	8b 45 08             	mov    0x8(%ebp),%eax
   1c5fb:	8b 40 44             	mov    0x44(%eax),%eax
   1c5fe:	8b 55 ec             	mov    -0x14(%ebp),%edx
   1c601:	c1 e2 02             	shl    $0x2,%edx
   1c604:	01 d0                	add    %edx,%eax
   1c606:	8b 10                	mov    (%eax),%edx
   1c608:	8b 45 f0             	mov    -0x10(%ebp),%eax
   1c60b:	01 d0                	add    %edx,%eax
   1c60d:	c6 00 00             	movb   $0x0,(%eax)
   1c610:	eb 4d                	jmp    1c65f <_ZN3RPGC1EiiPcPPv+0x1c3>
   1c612:	8b 45 08             	mov    0x8(%ebp),%eax
   1c615:	8b 40 44             	mov    0x44(%eax),%eax
   1c618:	8b 55 ec             	mov    -0x14(%ebp),%edx
   1c61b:	c1 e2 02             	shl    $0x2,%edx
   1c61e:	01 d0                	add    %edx,%eax
   1c620:	8b 10                	mov    (%eax),%edx
   1c622:	8b 45 f0             	mov    -0x10(%ebp),%eax
   1c625:	01 d0                	add    %edx,%eax
   1c627:	c6 00 01             	movb   $0x1,(%eax)
   1c62a:	eb 33                	jmp    1c65f <_ZN3RPGC1EiiPcPPv+0x1c3>
   1c62c:	8b 45 08             	mov    0x8(%ebp),%eax
   1c62f:	8b 40 44             	mov    0x44(%eax),%eax
   1c632:	8b 55 ec             	mov    -0x14(%ebp),%edx
   1c635:	c1 e2 02             	shl    $0x2,%edx
   1c638:	01 d0                	add    %edx,%eax
   1c63a:	8b 10                	mov    (%eax),%edx
   1c63c:	8b 45 f0             	mov    -0x10(%ebp),%eax
   1c63f:	01 d0                	add    %edx,%eax
   1c641:	c6 00 02             	movb   $0x2,(%eax)
   1c644:	eb 19                	jmp    1c65f <_ZN3RPGC1EiiPcPPv+0x1c3>
   1c646:	c7 45 ec 3f 42 0f 00 	movl   $0xf423f,-0x14(%ebp)
   1c64d:	c7 45 f0 3f 42 0f 00 	movl   $0xf423f,-0x10(%ebp)
   1c654:	eb 09                	jmp    1c65f <_ZN3RPGC1EiiPcPPv+0x1c3>
   1c656:	83 45 f4 01          	addl   $0x1,-0xc(%ebp)
   1c65a:	e9 4c ff ff ff       	jmp    1c5ab <_ZN3RPGC1EiiPcPPv+0x10f>
   1c65f:	83 45 f4 01          	addl   $0x1,-0xc(%ebp)
   1c663:	83 45 ec 01          	addl   $0x1,-0x14(%ebp)
   1c667:	e9 30 ff ff ff       	jmp    1c59c <_ZN3RPGC1EiiPcPPv+0x100>
   1c66c:	83 45 f0 01          	addl   $0x1,-0x10(%ebp)
   1c670:	e9 11 ff ff ff       	jmp    1c586 <_ZN3RPGC1EiiPcPPv+0xea>
   1c675:	90                   	nop
   1c676:	c9                   	leave  
   1c677:	c3                   	ret    

0001c678 <_ZN3RPG6UpdateEv>:
   1c678:	55                   	push   %ebp
   1c679:	89 e5                	mov    %esp,%ebp
   1c67b:	83 ec 08             	sub    $0x8,%esp
   1c67e:	e8 34 e7 ff ff       	call   1adb7 <_Z11key_updatedv>
   1c683:	84 c0                	test   %al,%al
   1c685:	0f 84 c9 01 00 00    	je     1c854 <_ZN3RPG6UpdateEv+0x1dc>
   1c68b:	e8 44 e7 ff ff       	call   1add4 <_Z7get_keyv>
   1c690:	0f be c0             	movsbl %al,%eax
   1c693:	83 f8 64             	cmp    $0x64,%eax
   1c696:	0f 84 40 01 00 00    	je     1c7dc <_ZN3RPG6UpdateEv+0x164>
   1c69c:	83 f8 64             	cmp    $0x64,%eax
   1c69f:	7f 13                	jg     1c6b4 <_ZN3RPG6UpdateEv+0x3c>
   1c6a1:	83 f8 20             	cmp    $0x20,%eax
   1c6a4:	0f 84 88 01 00 00    	je     1c832 <_ZN3RPG6UpdateEv+0x1ba>
   1c6aa:	83 f8 61             	cmp    $0x61,%eax
   1c6ad:	74 72                	je     1c721 <_ZN3RPG6UpdateEv+0xa9>
   1c6af:	e9 a0 01 00 00       	jmp    1c854 <_ZN3RPG6UpdateEv+0x1dc>
   1c6b4:	83 f8 73             	cmp    $0x73,%eax
   1c6b7:	0f 84 c1 00 00 00    	je     1c77e <_ZN3RPG6UpdateEv+0x106>
   1c6bd:	83 f8 77             	cmp    $0x77,%eax
   1c6c0:	0f 85 8e 01 00 00    	jne    1c854 <_ZN3RPG6UpdateEv+0x1dc>
   1c6c6:	8b 45 08             	mov    0x8(%ebp),%eax
   1c6c9:	8b 40 24             	mov    0x24(%eax),%eax
   1c6cc:	85 c0                	test   %eax,%eax
   1c6ce:	0f 8e 76 01 00 00    	jle    1c84a <_ZN3RPG6UpdateEv+0x1d2>
   1c6d4:	8b 45 08             	mov    0x8(%ebp),%eax
   1c6d7:	8b 50 44             	mov    0x44(%eax),%edx
   1c6da:	8b 45 08             	mov    0x8(%ebp),%eax
   1c6dd:	8b 48 28             	mov    0x28(%eax),%ecx
   1c6e0:	8b 45 08             	mov    0x8(%ebp),%eax
   1c6e3:	8b 40 20             	mov    0x20(%eax),%eax
   1c6e6:	01 c8                	add    %ecx,%eax
   1c6e8:	c1 e0 02             	shl    $0x2,%eax
   1c6eb:	01 d0                	add    %edx,%eax
   1c6ed:	8b 10                	mov    (%eax),%edx
   1c6ef:	8b 45 08             	mov    0x8(%ebp),%eax
   1c6f2:	8b 48 2c             	mov    0x2c(%eax),%ecx
   1c6f5:	8b 45 08             	mov    0x8(%ebp),%eax
   1c6f8:	8b 40 24             	mov    0x24(%eax),%eax
   1c6fb:	01 c8                	add    %ecx,%eax
   1c6fd:	83 e8 01             	sub    $0x1,%eax
   1c700:	01 d0                	add    %edx,%eax
   1c702:	0f b6 00             	movzbl (%eax),%eax
   1c705:	3c 02                	cmp    $0x2,%al
   1c707:	0f 84 3d 01 00 00    	je     1c84a <_ZN3RPG6UpdateEv+0x1d2>
   1c70d:	8b 45 08             	mov    0x8(%ebp),%eax
   1c710:	8b 40 24             	mov    0x24(%eax),%eax
   1c713:	8d 50 ff             	lea    -0x1(%eax),%edx
   1c716:	8b 45 08             	mov    0x8(%ebp),%eax
   1c719:	89 50 24             	mov    %edx,0x24(%eax)
   1c71c:	e9 29 01 00 00       	jmp    1c84a <_ZN3RPG6UpdateEv+0x1d2>
   1c721:	8b 45 08             	mov    0x8(%ebp),%eax
   1c724:	8b 40 20             	mov    0x20(%eax),%eax
   1c727:	85 c0                	test   %eax,%eax
   1c729:	0f 8e 1e 01 00 00    	jle    1c84d <_ZN3RPG6UpdateEv+0x1d5>
   1c72f:	8b 45 08             	mov    0x8(%ebp),%eax
   1c732:	8b 50 44             	mov    0x44(%eax),%edx
   1c735:	8b 45 08             	mov    0x8(%ebp),%eax
   1c738:	8b 48 28             	mov    0x28(%eax),%ecx
   1c73b:	8b 45 08             	mov    0x8(%ebp),%eax
   1c73e:	8b 40 20             	mov    0x20(%eax),%eax
   1c741:	01 c8                	add    %ecx,%eax
   1c743:	05 ff ff ff 3f       	add    $0x3fffffff,%eax
   1c748:	c1 e0 02             	shl    $0x2,%eax
   1c74b:	01 d0                	add    %edx,%eax
   1c74d:	8b 10                	mov    (%eax),%edx
   1c74f:	8b 45 08             	mov    0x8(%ebp),%eax
   1c752:	8b 48 2c             	mov    0x2c(%eax),%ecx
   1c755:	8b 45 08             	mov    0x8(%ebp),%eax
   1c758:	8b 40 24             	mov    0x24(%eax),%eax
   1c75b:	01 c8                	add    %ecx,%eax
   1c75d:	01 d0                	add    %edx,%eax
   1c75f:	0f b6 00             	movzbl (%eax),%eax
   1c762:	3c 02                	cmp    $0x2,%al
   1c764:	0f 84 e3 00 00 00    	je     1c84d <_ZN3RPG6UpdateEv+0x1d5>
   1c76a:	8b 45 08             	mov    0x8(%ebp),%eax
   1c76d:	8b 40 20             	mov    0x20(%eax),%eax
   1c770:	8d 50 ff             	lea    -0x1(%eax),%edx
   1c773:	8b 45 08             	mov    0x8(%ebp),%eax
   1c776:	89 50 20             	mov    %edx,0x20(%eax)
   1c779:	e9 cf 00 00 00       	jmp    1c84d <_ZN3RPG6UpdateEv+0x1d5>
   1c77e:	8b 45 08             	mov    0x8(%ebp),%eax
   1c781:	8b 50 24             	mov    0x24(%eax),%edx
   1c784:	8b 45 08             	mov    0x8(%ebp),%eax
   1c787:	8b 40 38             	mov    0x38(%eax),%eax
   1c78a:	39 c2                	cmp    %eax,%edx
   1c78c:	0f 8d be 00 00 00    	jge    1c850 <_ZN3RPG6UpdateEv+0x1d8>
   1c792:	8b 45 08             	mov    0x8(%ebp),%eax
   1c795:	8b 50 44             	mov    0x44(%eax),%edx
   1c798:	8b 45 08             	mov    0x8(%ebp),%eax
   1c79b:	8b 48 28             	mov    0x28(%eax),%ecx
   1c79e:	8b 45 08             	mov    0x8(%ebp),%eax
   1c7a1:	8b 40 20             	mov    0x20(%eax),%eax
   1c7a4:	01 c8                	add    %ecx,%eax
   1c7a6:	c1 e0 02             	shl    $0x2,%eax
   1c7a9:	01 d0                	add    %edx,%eax
   1c7ab:	8b 10                	mov    (%eax),%edx
   1c7ad:	8b 45 08             	mov    0x8(%ebp),%eax
   1c7b0:	8b 48 2c             	mov    0x2c(%eax),%ecx
   1c7b3:	8b 45 08             	mov    0x8(%ebp),%eax
   1c7b6:	8b 40 24             	mov    0x24(%eax),%eax
   1c7b9:	01 c8                	add    %ecx,%eax
   1c7bb:	83 c0 01             	add    $0x1,%eax
   1c7be:	01 d0                	add    %edx,%eax
   1c7c0:	0f b6 00             	movzbl (%eax),%eax
   1c7c3:	3c 02                	cmp    $0x2,%al
   1c7c5:	0f 84 85 00 00 00    	je     1c850 <_ZN3RPG6UpdateEv+0x1d8>
   1c7cb:	8b 45 08             	mov    0x8(%ebp),%eax
   1c7ce:	8b 40 24             	mov    0x24(%eax),%eax
   1c7d1:	8d 50 01             	lea    0x1(%eax),%edx
   1c7d4:	8b 45 08             	mov    0x8(%ebp),%eax
   1c7d7:	89 50 24             	mov    %edx,0x24(%eax)
   1c7da:	eb 74                	jmp    1c850 <_ZN3RPG6UpdateEv+0x1d8>
   1c7dc:	8b 45 08             	mov    0x8(%ebp),%eax
   1c7df:	8b 50 20             	mov    0x20(%eax),%edx
   1c7e2:	8b 45 08             	mov    0x8(%ebp),%eax
   1c7e5:	8b 40 34             	mov    0x34(%eax),%eax
   1c7e8:	39 c2                	cmp    %eax,%edx
   1c7ea:	7d 67                	jge    1c853 <_ZN3RPG6UpdateEv+0x1db>
   1c7ec:	8b 45 08             	mov    0x8(%ebp),%eax
   1c7ef:	8b 50 44             	mov    0x44(%eax),%edx
   1c7f2:	8b 45 08             	mov    0x8(%ebp),%eax
   1c7f5:	8b 48 28             	mov    0x28(%eax),%ecx
   1c7f8:	8b 45 08             	mov    0x8(%ebp),%eax
   1c7fb:	8b 40 20             	mov    0x20(%eax),%eax
   1c7fe:	01 c8                	add    %ecx,%eax
   1c800:	83 c0 01             	add    $0x1,%eax
   1c803:	c1 e0 02             	shl    $0x2,%eax
   1c806:	01 d0                	add    %edx,%eax
   1c808:	8b 10                	mov    (%eax),%edx
   1c80a:	8b 45 08             	mov    0x8(%ebp),%eax
   1c80d:	8b 48 2c             	mov    0x2c(%eax),%ecx
   1c810:	8b 45 08             	mov    0x8(%ebp),%eax
   1c813:	8b 40 24             	mov    0x24(%eax),%eax
   1c816:	01 c8                	add    %ecx,%eax
   1c818:	01 d0                	add    %edx,%eax
   1c81a:	0f b6 00             	movzbl (%eax),%eax
   1c81d:	3c 02                	cmp    $0x2,%al
   1c81f:	74 32                	je     1c853 <_ZN3RPG6UpdateEv+0x1db>
   1c821:	8b 45 08             	mov    0x8(%ebp),%eax
   1c824:	8b 40 20             	mov    0x20(%eax),%eax
   1c827:	8d 50 01             	lea    0x1(%eax),%edx
   1c82a:	8b 45 08             	mov    0x8(%ebp),%eax
   1c82d:	89 50 20             	mov    %edx,0x20(%eax)
   1c830:	eb 21                	jmp    1c853 <_ZN3RPG6UpdateEv+0x1db>
   1c832:	8b 45 08             	mov    0x8(%ebp),%eax
   1c835:	8b 40 0c             	mov    0xc(%eax),%eax
   1c838:	83 ec 08             	sub    $0x8,%esp
   1c83b:	50                   	push   %eax
   1c83c:	ff 75 08             	pushl  0x8(%ebp)
   1c83f:	e8 7a 04 00 00       	call   1ccbe <_ZN3RPG8DialogueEPc>
   1c844:	83 c4 10             	add    $0x10,%esp
   1c847:	90                   	nop
   1c848:	eb 0a                	jmp    1c854 <_ZN3RPG6UpdateEv+0x1dc>
   1c84a:	90                   	nop
   1c84b:	eb 07                	jmp    1c854 <_ZN3RPG6UpdateEv+0x1dc>
   1c84d:	90                   	nop
   1c84e:	eb 04                	jmp    1c854 <_ZN3RPG6UpdateEv+0x1dc>
   1c850:	90                   	nop
   1c851:	eb 01                	jmp    1c854 <_ZN3RPG6UpdateEv+0x1dc>
   1c853:	90                   	nop
   1c854:	8b 45 08             	mov    0x8(%ebp),%eax
   1c857:	8b 40 20             	mov    0x20(%eax),%eax
   1c85a:	83 f8 03             	cmp    $0x3,%eax
   1c85d:	7f 45                	jg     1c8a4 <_ZN3RPG6UpdateEv+0x22c>
   1c85f:	8b 45 08             	mov    0x8(%ebp),%eax
   1c862:	8b 40 28             	mov    0x28(%eax),%eax
   1c865:	85 c0                	test   %eax,%eax
   1c867:	74 3b                	je     1c8a4 <_ZN3RPG6UpdateEv+0x22c>
   1c869:	8b 45 08             	mov    0x8(%ebp),%eax
   1c86c:	8b 50 28             	mov    0x28(%eax),%edx
   1c86f:	8b 45 08             	mov    0x8(%ebp),%eax
   1c872:	8b 40 20             	mov    0x20(%eax),%eax
   1c875:	b9 04 00 00 00       	mov    $0x4,%ecx
   1c87a:	29 c1                	sub    %eax,%ecx
   1c87c:	89 c8                	mov    %ecx,%eax
   1c87e:	29 c2                	sub    %eax,%edx
   1c880:	8b 45 08             	mov    0x8(%ebp),%eax
   1c883:	89 50 28             	mov    %edx,0x28(%eax)
   1c886:	8b 45 08             	mov    0x8(%ebp),%eax
   1c889:	c7 40 20 04 00 00 00 	movl   $0x4,0x20(%eax)
   1c890:	8b 45 08             	mov    0x8(%ebp),%eax
   1c893:	8b 40 28             	mov    0x28(%eax),%eax
   1c896:	85 c0                	test   %eax,%eax
   1c898:	79 0a                	jns    1c8a4 <_ZN3RPG6UpdateEv+0x22c>
   1c89a:	8b 45 08             	mov    0x8(%ebp),%eax
   1c89d:	c7 40 28 00 00 00 00 	movl   $0x0,0x28(%eax)
   1c8a4:	8b 45 08             	mov    0x8(%ebp),%eax
   1c8a7:	8b 50 20             	mov    0x20(%eax),%edx
   1c8aa:	8b 45 08             	mov    0x8(%ebp),%eax
   1c8ad:	8b 40 3c             	mov    0x3c(%eax),%eax
   1c8b0:	83 e8 04             	sub    $0x4,%eax
   1c8b3:	39 c2                	cmp    %eax,%edx
   1c8b5:	7e 66                	jle    1c91d <_ZN3RPG6UpdateEv+0x2a5>
   1c8b7:	8b 45 08             	mov    0x8(%ebp),%eax
   1c8ba:	8b 50 28             	mov    0x28(%eax),%edx
   1c8bd:	8b 45 08             	mov    0x8(%ebp),%eax
   1c8c0:	8b 48 34             	mov    0x34(%eax),%ecx
   1c8c3:	8b 45 08             	mov    0x8(%ebp),%eax
   1c8c6:	8b 40 3c             	mov    0x3c(%eax),%eax
   1c8c9:	29 c1                	sub    %eax,%ecx
   1c8cb:	89 c8                	mov    %ecx,%eax
   1c8cd:	39 c2                	cmp    %eax,%edx
   1c8cf:	74 4c                	je     1c91d <_ZN3RPG6UpdateEv+0x2a5>
   1c8d1:	8b 45 08             	mov    0x8(%ebp),%eax
   1c8d4:	8b 40 28             	mov    0x28(%eax),%eax
   1c8d7:	8d 50 01             	lea    0x1(%eax),%edx
   1c8da:	8b 45 08             	mov    0x8(%ebp),%eax
   1c8dd:	89 50 28             	mov    %edx,0x28(%eax)
   1c8e0:	8b 45 08             	mov    0x8(%ebp),%eax
   1c8e3:	8b 40 3c             	mov    0x3c(%eax),%eax
   1c8e6:	8d 50 fc             	lea    -0x4(%eax),%edx
   1c8e9:	8b 45 08             	mov    0x8(%ebp),%eax
   1c8ec:	89 50 20             	mov    %edx,0x20(%eax)
   1c8ef:	8b 45 08             	mov    0x8(%ebp),%eax
   1c8f2:	8b 50 28             	mov    0x28(%eax),%edx
   1c8f5:	8b 45 08             	mov    0x8(%ebp),%eax
   1c8f8:	8b 48 34             	mov    0x34(%eax),%ecx
   1c8fb:	8b 45 08             	mov    0x8(%ebp),%eax
   1c8fe:	8b 40 3c             	mov    0x3c(%eax),%eax
   1c901:	29 c1                	sub    %eax,%ecx
   1c903:	89 c8                	mov    %ecx,%eax
   1c905:	39 c2                	cmp    %eax,%edx
   1c907:	7e 14                	jle    1c91d <_ZN3RPG6UpdateEv+0x2a5>
   1c909:	8b 45 08             	mov    0x8(%ebp),%eax
   1c90c:	8b 50 34             	mov    0x34(%eax),%edx
   1c90f:	8b 45 08             	mov    0x8(%ebp),%eax
   1c912:	8b 40 3c             	mov    0x3c(%eax),%eax
   1c915:	29 c2                	sub    %eax,%edx
   1c917:	8b 45 08             	mov    0x8(%ebp),%eax
   1c91a:	89 50 28             	mov    %edx,0x28(%eax)
   1c91d:	8b 45 08             	mov    0x8(%ebp),%eax
   1c920:	8b 40 24             	mov    0x24(%eax),%eax
   1c923:	83 f8 03             	cmp    $0x3,%eax
   1c926:	7f 45                	jg     1c96d <_ZN3RPG6UpdateEv+0x2f5>
   1c928:	8b 45 08             	mov    0x8(%ebp),%eax
   1c92b:	8b 40 2c             	mov    0x2c(%eax),%eax
   1c92e:	85 c0                	test   %eax,%eax
   1c930:	74 3b                	je     1c96d <_ZN3RPG6UpdateEv+0x2f5>
   1c932:	8b 45 08             	mov    0x8(%ebp),%eax
   1c935:	8b 50 2c             	mov    0x2c(%eax),%edx
   1c938:	8b 45 08             	mov    0x8(%ebp),%eax
   1c93b:	8b 40 24             	mov    0x24(%eax),%eax
   1c93e:	b9 04 00 00 00       	mov    $0x4,%ecx
   1c943:	29 c1                	sub    %eax,%ecx
   1c945:	89 c8                	mov    %ecx,%eax
   1c947:	29 c2                	sub    %eax,%edx
   1c949:	8b 45 08             	mov    0x8(%ebp),%eax
   1c94c:	89 50 2c             	mov    %edx,0x2c(%eax)
   1c94f:	8b 45 08             	mov    0x8(%ebp),%eax
   1c952:	c7 40 24 04 00 00 00 	movl   $0x4,0x24(%eax)
   1c959:	8b 45 08             	mov    0x8(%ebp),%eax
   1c95c:	8b 40 2c             	mov    0x2c(%eax),%eax
   1c95f:	85 c0                	test   %eax,%eax
   1c961:	79 0a                	jns    1c96d <_ZN3RPG6UpdateEv+0x2f5>
   1c963:	8b 45 08             	mov    0x8(%ebp),%eax
   1c966:	c7 40 2c 00 00 00 00 	movl   $0x0,0x2c(%eax)
   1c96d:	8b 45 08             	mov    0x8(%ebp),%eax
   1c970:	8b 50 24             	mov    0x24(%eax),%edx
   1c973:	8b 45 08             	mov    0x8(%ebp),%eax
   1c976:	8b 40 40             	mov    0x40(%eax),%eax
   1c979:	83 e8 04             	sub    $0x4,%eax
   1c97c:	39 c2                	cmp    %eax,%edx
   1c97e:	7e 66                	jle    1c9e6 <_ZN3RPG6UpdateEv+0x36e>
   1c980:	8b 45 08             	mov    0x8(%ebp),%eax
   1c983:	8b 50 2c             	mov    0x2c(%eax),%edx
   1c986:	8b 45 08             	mov    0x8(%ebp),%eax
   1c989:	8b 48 38             	mov    0x38(%eax),%ecx
   1c98c:	8b 45 08             	mov    0x8(%ebp),%eax
   1c98f:	8b 40 40             	mov    0x40(%eax),%eax
   1c992:	29 c1                	sub    %eax,%ecx
   1c994:	89 c8                	mov    %ecx,%eax
   1c996:	39 c2                	cmp    %eax,%edx
   1c998:	74 4c                	je     1c9e6 <_ZN3RPG6UpdateEv+0x36e>
   1c99a:	8b 45 08             	mov    0x8(%ebp),%eax
   1c99d:	8b 40 2c             	mov    0x2c(%eax),%eax
   1c9a0:	8d 50 01             	lea    0x1(%eax),%edx
   1c9a3:	8b 45 08             	mov    0x8(%ebp),%eax
   1c9a6:	89 50 2c             	mov    %edx,0x2c(%eax)
   1c9a9:	8b 45 08             	mov    0x8(%ebp),%eax
   1c9ac:	8b 40 40             	mov    0x40(%eax),%eax
   1c9af:	8d 50 fc             	lea    -0x4(%eax),%edx
   1c9b2:	8b 45 08             	mov    0x8(%ebp),%eax
   1c9b5:	89 50 24             	mov    %edx,0x24(%eax)
   1c9b8:	8b 45 08             	mov    0x8(%ebp),%eax
   1c9bb:	8b 50 2c             	mov    0x2c(%eax),%edx
   1c9be:	8b 45 08             	mov    0x8(%ebp),%eax
   1c9c1:	8b 48 38             	mov    0x38(%eax),%ecx
   1c9c4:	8b 45 08             	mov    0x8(%ebp),%eax
   1c9c7:	8b 40 40             	mov    0x40(%eax),%eax
   1c9ca:	29 c1                	sub    %eax,%ecx
   1c9cc:	89 c8                	mov    %ecx,%eax
   1c9ce:	39 c2                	cmp    %eax,%edx
   1c9d0:	7e 14                	jle    1c9e6 <_ZN3RPG6UpdateEv+0x36e>
   1c9d2:	8b 45 08             	mov    0x8(%ebp),%eax
   1c9d5:	8b 50 38             	mov    0x38(%eax),%edx
   1c9d8:	8b 45 08             	mov    0x8(%ebp),%eax
   1c9db:	8b 40 40             	mov    0x40(%eax),%eax
   1c9de:	29 c2                	sub    %eax,%edx
   1c9e0:	8b 45 08             	mov    0x8(%ebp),%eax
   1c9e3:	89 50 2c             	mov    %edx,0x2c(%eax)
   1c9e6:	90                   	nop
   1c9e7:	c9                   	leave  
   1c9e8:	c3                   	ret    
   1c9e9:	90                   	nop

0001c9ea <_ZN3RPG6RenderEv>:
   1c9ea:	55                   	push   %ebp
   1c9eb:	89 e5                	mov    %esp,%ebp
   1c9ed:	57                   	push   %edi
   1c9ee:	56                   	push   %esi
   1c9ef:	53                   	push   %ebx
   1c9f0:	83 ec 2c             	sub    $0x2c,%esp
   1c9f3:	8b 45 08             	mov    0x8(%ebp),%eax
   1c9f6:	8b 40 1c             	mov    0x1c(%eax),%eax
   1c9f9:	89 c2                	mov    %eax,%edx
   1c9fb:	8b 45 08             	mov    0x8(%ebp),%eax
   1c9fe:	8b 40 18             	mov    0x18(%eax),%eax
   1ca01:	83 ec 04             	sub    $0x4,%esp
   1ca04:	6a 00                	push   $0x0
   1ca06:	6a 00                	push   $0x0
   1ca08:	6a 00                	push   $0x0
   1ca0a:	68 e0 01 00 00       	push   $0x1e0
   1ca0f:	68 80 02 00 00       	push   $0x280
   1ca14:	52                   	push   %edx
   1ca15:	50                   	push   %eax
   1ca16:	e8 63 2b 00 00       	call   1f57e <_Z15screen_fillrectjjjjhhh>
   1ca1b:	83 c4 20             	add    $0x20,%esp
   1ca1e:	c7 45 e4 00 00 00 00 	movl   $0x0,-0x1c(%ebp)
   1ca25:	8b 45 08             	mov    0x8(%ebp),%eax
   1ca28:	8b 40 3c             	mov    0x3c(%eax),%eax
   1ca2b:	3b 45 e4             	cmp    -0x1c(%ebp),%eax
   1ca2e:	0f 8e 70 01 00 00    	jle    1cba4 <_ZN3RPG6RenderEv+0x1ba>
   1ca34:	c7 45 e0 00 00 00 00 	movl   $0x0,-0x20(%ebp)
   1ca3b:	8b 45 08             	mov    0x8(%ebp),%eax
   1ca3e:	8b 40 40             	mov    0x40(%eax),%eax
   1ca41:	3b 45 e0             	cmp    -0x20(%ebp),%eax
   1ca44:	0f 8e 51 01 00 00    	jle    1cb9b <_ZN3RPG6RenderEv+0x1b1>
   1ca4a:	8b 45 08             	mov    0x8(%ebp),%eax
   1ca4d:	8b 50 44             	mov    0x44(%eax),%edx
   1ca50:	8b 45 08             	mov    0x8(%ebp),%eax
   1ca53:	8b 48 28             	mov    0x28(%eax),%ecx
   1ca56:	8b 45 e4             	mov    -0x1c(%ebp),%eax
   1ca59:	01 c8                	add    %ecx,%eax
   1ca5b:	c1 e0 02             	shl    $0x2,%eax
   1ca5e:	01 d0                	add    %edx,%eax
   1ca60:	8b 10                	mov    (%eax),%edx
   1ca62:	8b 45 08             	mov    0x8(%ebp),%eax
   1ca65:	8b 48 2c             	mov    0x2c(%eax),%ecx
   1ca68:	8b 45 e0             	mov    -0x20(%ebp),%eax
   1ca6b:	01 c8                	add    %ecx,%eax
   1ca6d:	01 d0                	add    %edx,%eax
   1ca6f:	0f b6 00             	movzbl (%eax),%eax
   1ca72:	0f b6 c0             	movzbl %al,%eax
   1ca75:	83 f8 01             	cmp    $0x1,%eax
   1ca78:	0f 84 c5 00 00 00    	je     1cb43 <_ZN3RPG6RenderEv+0x159>
   1ca7e:	83 f8 02             	cmp    $0x2,%eax
   1ca81:	74 6a                	je     1caed <_ZN3RPG6RenderEv+0x103>
   1ca83:	85 c0                	test   %eax,%eax
   1ca85:	0f 85 07 01 00 00    	jne    1cb92 <_ZN3RPG6RenderEv+0x1a8>
   1ca8b:	8b 45 08             	mov    0x8(%ebp),%eax
   1ca8e:	8b 00                	mov    (%eax),%eax
   1ca90:	89 45 d4             	mov    %eax,-0x2c(%ebp)
   1ca93:	8b 45 08             	mov    0x8(%ebp),%eax
   1ca96:	8b 78 30             	mov    0x30(%eax),%edi
   1ca99:	89 7d d0             	mov    %edi,-0x30(%ebp)
   1ca9c:	8b 45 08             	mov    0x8(%ebp),%eax
   1ca9f:	8b 78 30             	mov    0x30(%eax),%edi
   1caa2:	8b 45 08             	mov    0x8(%ebp),%eax
   1caa5:	8b 70 30             	mov    0x30(%eax),%esi
   1caa8:	8b 45 08             	mov    0x8(%ebp),%eax
   1caab:	8b 58 30             	mov    0x30(%eax),%ebx
   1caae:	8b 45 08             	mov    0x8(%ebp),%eax
   1cab1:	8b 50 1c             	mov    0x1c(%eax),%edx
   1cab4:	8b 45 08             	mov    0x8(%ebp),%eax
   1cab7:	8b 40 30             	mov    0x30(%eax),%eax
   1caba:	0f af 45 e0          	imul   -0x20(%ebp),%eax
   1cabe:	8d 0c 02             	lea    (%edx,%eax,1),%ecx
   1cac1:	8b 45 08             	mov    0x8(%ebp),%eax
   1cac4:	8b 50 18             	mov    0x18(%eax),%edx
   1cac7:	8b 45 08             	mov    0x8(%ebp),%eax
   1caca:	8b 40 30             	mov    0x30(%eax),%eax
   1cacd:	0f af 45 e4          	imul   -0x1c(%ebp),%eax
   1cad1:	01 d0                	add    %edx,%eax
   1cad3:	6a 18                	push   $0x18
   1cad5:	ff 75 d4             	pushl  -0x2c(%ebp)
   1cad8:	ff 75 d0             	pushl  -0x30(%ebp)
   1cadb:	57                   	push   %edi
   1cadc:	56                   	push   %esi
   1cadd:	53                   	push   %ebx
   1cade:	51                   	push   %ecx
   1cadf:	50                   	push   %eax
   1cae0:	e8 b5 2f 00 00       	call   1fa9a <_Z10drawbitmapiiiiiiPhi>
   1cae5:	83 c4 20             	add    $0x20,%esp
   1cae8:	e9 a5 00 00 00       	jmp    1cb92 <_ZN3RPG6RenderEv+0x1a8>
   1caed:	8b 45 08             	mov    0x8(%ebp),%eax
   1caf0:	8b 40 30             	mov    0x30(%eax),%eax
   1caf3:	89 c6                	mov    %eax,%esi
   1caf5:	8b 45 08             	mov    0x8(%ebp),%eax
   1caf8:	8b 40 30             	mov    0x30(%eax),%eax
   1cafb:	89 c3                	mov    %eax,%ebx
   1cafd:	8b 45 08             	mov    0x8(%ebp),%eax
   1cb00:	8b 50 1c             	mov    0x1c(%eax),%edx
   1cb03:	8b 45 08             	mov    0x8(%ebp),%eax
   1cb06:	8b 40 30             	mov    0x30(%eax),%eax
   1cb09:	0f af 45 e0          	imul   -0x20(%ebp),%eax
   1cb0d:	01 d0                	add    %edx,%eax
   1cb0f:	89 c1                	mov    %eax,%ecx
   1cb11:	8b 45 08             	mov    0x8(%ebp),%eax
   1cb14:	8b 50 18             	mov    0x18(%eax),%edx
   1cb17:	8b 45 08             	mov    0x8(%ebp),%eax
   1cb1a:	8b 40 30             	mov    0x30(%eax),%eax
   1cb1d:	0f af 45 e4          	imul   -0x1c(%ebp),%eax
   1cb21:	01 d0                	add    %edx,%eax
   1cb23:	83 ec 04             	sub    $0x4,%esp
   1cb26:	68 80 00 00 00       	push   $0x80
   1cb2b:	68 80 00 00 00       	push   $0x80
   1cb30:	68 80 00 00 00       	push   $0x80
   1cb35:	56                   	push   %esi
   1cb36:	53                   	push   %ebx
   1cb37:	51                   	push   %ecx
   1cb38:	50                   	push   %eax
   1cb39:	e8 40 2a 00 00       	call   1f57e <_Z15screen_fillrectjjjjhhh>
   1cb3e:	83 c4 20             	add    $0x20,%esp
   1cb41:	eb 4f                	jmp    1cb92 <_ZN3RPG6RenderEv+0x1a8>
   1cb43:	8b 45 08             	mov    0x8(%ebp),%eax
   1cb46:	8b 40 30             	mov    0x30(%eax),%eax
   1cb49:	89 c6                	mov    %eax,%esi
   1cb4b:	8b 45 08             	mov    0x8(%ebp),%eax
   1cb4e:	8b 40 30             	mov    0x30(%eax),%eax
   1cb51:	89 c3                	mov    %eax,%ebx
   1cb53:	8b 45 08             	mov    0x8(%ebp),%eax
   1cb56:	8b 50 1c             	mov    0x1c(%eax),%edx
   1cb59:	8b 45 08             	mov    0x8(%ebp),%eax
   1cb5c:	8b 40 30             	mov    0x30(%eax),%eax
   1cb5f:	0f af 45 e0          	imul   -0x20(%ebp),%eax
   1cb63:	01 d0                	add    %edx,%eax
   1cb65:	89 c1                	mov    %eax,%ecx
   1cb67:	8b 45 08             	mov    0x8(%ebp),%eax
   1cb6a:	8b 50 18             	mov    0x18(%eax),%edx
   1cb6d:	8b 45 08             	mov    0x8(%ebp),%eax
   1cb70:	8b 40 30             	mov    0x30(%eax),%eax
   1cb73:	0f af 45 e4          	imul   -0x1c(%ebp),%eax
   1cb77:	01 d0                	add    %edx,%eax
   1cb79:	83 ec 04             	sub    $0x4,%esp
   1cb7c:	6a 00                	push   $0x0
   1cb7e:	6a 64                	push   $0x64
   1cb80:	68 80 00 00 00       	push   $0x80
   1cb85:	56                   	push   %esi
   1cb86:	53                   	push   %ebx
   1cb87:	51                   	push   %ecx
   1cb88:	50                   	push   %eax
   1cb89:	e8 f0 29 00 00       	call   1f57e <_Z15screen_fillrectjjjjhhh>
   1cb8e:	83 c4 20             	add    $0x20,%esp
   1cb91:	90                   	nop
   1cb92:	83 45 e0 01          	addl   $0x1,-0x20(%ebp)
   1cb96:	e9 a0 fe ff ff       	jmp    1ca3b <_ZN3RPG6RenderEv+0x51>
   1cb9b:	83 45 e4 01          	addl   $0x1,-0x1c(%ebp)
   1cb9f:	e9 81 fe ff ff       	jmp    1ca25 <_ZN3RPG6RenderEv+0x3b>
   1cba4:	8b 45 08             	mov    0x8(%ebp),%eax
   1cba7:	8b 40 30             	mov    0x30(%eax),%eax
   1cbaa:	89 c7                	mov    %eax,%edi
   1cbac:	8b 45 08             	mov    0x8(%ebp),%eax
   1cbaf:	8b 40 30             	mov    0x30(%eax),%eax
   1cbb2:	89 c6                	mov    %eax,%esi
   1cbb4:	8b 45 08             	mov    0x8(%ebp),%eax
   1cbb7:	8b 50 1c             	mov    0x1c(%eax),%edx
   1cbba:	8b 45 08             	mov    0x8(%ebp),%eax
   1cbbd:	8b 48 24             	mov    0x24(%eax),%ecx
   1cbc0:	8b 45 08             	mov    0x8(%ebp),%eax
   1cbc3:	8b 40 30             	mov    0x30(%eax),%eax
   1cbc6:	0f af c1             	imul   %ecx,%eax
   1cbc9:	01 d0                	add    %edx,%eax
   1cbcb:	89 c3                	mov    %eax,%ebx
   1cbcd:	8b 45 08             	mov    0x8(%ebp),%eax
   1cbd0:	8b 50 18             	mov    0x18(%eax),%edx
   1cbd3:	8b 45 08             	mov    0x8(%ebp),%eax
   1cbd6:	8b 48 20             	mov    0x20(%eax),%ecx
   1cbd9:	8b 45 08             	mov    0x8(%ebp),%eax
   1cbdc:	8b 40 30             	mov    0x30(%eax),%eax
   1cbdf:	0f af c1             	imul   %ecx,%eax
   1cbe2:	01 d0                	add    %edx,%eax
   1cbe4:	83 ec 04             	sub    $0x4,%esp
   1cbe7:	6a 00                	push   $0x0
   1cbe9:	68 ff 00 00 00       	push   $0xff
   1cbee:	68 ff 00 00 00       	push   $0xff
   1cbf3:	57                   	push   %edi
   1cbf4:	56                   	push   %esi
   1cbf5:	53                   	push   %ebx
   1cbf6:	50                   	push   %eax
   1cbf7:	e8 82 29 00 00       	call   1f57e <_Z15screen_fillrectjjjjhhh>
   1cbfc:	83 c4 20             	add    $0x20,%esp
   1cbff:	8b 45 08             	mov    0x8(%ebp),%eax
   1cc02:	0f b6 40 10          	movzbl 0x10(%eax),%eax
   1cc06:	84 c0                	test   %al,%al
   1cc08:	0f 84 a6 00 00 00    	je     1ccb4 <_ZN3RPG6RenderEv+0x2ca>
   1cc0e:	8b 45 08             	mov    0x8(%ebp),%eax
   1cc11:	8b 40 1c             	mov    0x1c(%eax),%eax
   1cc14:	05 86 01 00 00       	add    $0x186,%eax
   1cc19:	89 c2                	mov    %eax,%edx
   1cc1b:	8b 45 08             	mov    0x8(%ebp),%eax
   1cc1e:	8b 40 18             	mov    0x18(%eax),%eax
   1cc21:	83 c0 0a             	add    $0xa,%eax
   1cc24:	83 ec 04             	sub    $0x4,%esp
   1cc27:	68 ff 00 00 00       	push   $0xff
   1cc2c:	68 ff 00 00 00       	push   $0xff
   1cc31:	68 ff 00 00 00       	push   $0xff
   1cc36:	6a 50                	push   $0x50
   1cc38:	68 6c 02 00 00       	push   $0x26c
   1cc3d:	52                   	push   %edx
   1cc3e:	50                   	push   %eax
   1cc3f:	e8 3a 29 00 00       	call   1f57e <_Z15screen_fillrectjjjjhhh>
   1cc44:	83 c4 20             	add    $0x20,%esp
   1cc47:	8b 45 08             	mov    0x8(%ebp),%eax
   1cc4a:	8b 40 1c             	mov    0x1c(%eax),%eax
   1cc4d:	05 8b 01 00 00       	add    $0x18b,%eax
   1cc52:	89 c2                	mov    %eax,%edx
   1cc54:	8b 45 08             	mov    0x8(%ebp),%eax
   1cc57:	8b 40 18             	mov    0x18(%eax),%eax
   1cc5a:	83 c0 0f             	add    $0xf,%eax
   1cc5d:	83 ec 04             	sub    $0x4,%esp
   1cc60:	6a 00                	push   $0x0
   1cc62:	6a 00                	push   $0x0
   1cc64:	6a 00                	push   $0x0
   1cc66:	6a 46                	push   $0x46
   1cc68:	68 62 02 00 00       	push   $0x262
   1cc6d:	52                   	push   %edx
   1cc6e:	50                   	push   %eax
   1cc6f:	e8 0a 29 00 00       	call   1f57e <_Z15screen_fillrectjjjjhhh>
   1cc74:	83 c4 20             	add    $0x20,%esp
   1cc77:	8b 45 08             	mov    0x8(%ebp),%eax
   1cc7a:	8b 40 1c             	mov    0x1c(%eax),%eax
   1cc7d:	05 90 01 00 00       	add    $0x190,%eax
   1cc82:	89 c1                	mov    %eax,%ecx
   1cc84:	8b 45 08             	mov    0x8(%ebp),%eax
   1cc87:	8b 40 18             	mov    0x18(%eax),%eax
   1cc8a:	83 c0 14             	add    $0x14,%eax
   1cc8d:	89 c2                	mov    %eax,%edx
   1cc8f:	8b 45 08             	mov    0x8(%ebp),%eax
   1cc92:	8b 40 14             	mov    0x14(%eax),%eax
   1cc95:	83 ec 04             	sub    $0x4,%esp
   1cc98:	6a 01                	push   $0x1
   1cc9a:	68 ff 00 00 00       	push   $0xff
   1cc9f:	68 ff 00 00 00       	push   $0xff
   1cca4:	68 ff 00 00 00       	push   $0xff
   1cca9:	51                   	push   %ecx
   1ccaa:	52                   	push   %edx
   1ccab:	50                   	push   %eax
   1ccac:	e8 f7 2b 00 00       	call   1f8a8 <_Z10drawstringPcjjhhhi>
   1ccb1:	83 c4 20             	add    $0x20,%esp
   1ccb4:	90                   	nop
   1ccb5:	8d 65 f4             	lea    -0xc(%ebp),%esp
   1ccb8:	5b                   	pop    %ebx
   1ccb9:	5e                   	pop    %esi
   1ccba:	5f                   	pop    %edi
   1ccbb:	5d                   	pop    %ebp
   1ccbc:	c3                   	ret    
   1ccbd:	90                   	nop

0001ccbe <_ZN3RPG8DialogueEPc>:
   1ccbe:	55                   	push   %ebp
   1ccbf:	89 e5                	mov    %esp,%ebp
   1ccc1:	8b 45 08             	mov    0x8(%ebp),%eax
   1ccc4:	c6 40 10 01          	movb   $0x1,0x10(%eax)
   1ccc8:	8b 45 08             	mov    0x8(%ebp),%eax
   1cccb:	8b 55 0c             	mov    0xc(%ebp),%edx
   1ccce:	89 50 14             	mov    %edx,0x14(%eax)
   1ccd1:	90                   	nop
   1ccd2:	5d                   	pop    %ebp
   1ccd3:	c3                   	ret    

0001ccd4 <_ZN3RPG8RelocateEii>:
   1ccd4:	55                   	push   %ebp
   1ccd5:	89 e5                	mov    %esp,%ebp
   1ccd7:	8b 45 08             	mov    0x8(%ebp),%eax
   1ccda:	8b 55 0c             	mov    0xc(%ebp),%edx
   1ccdd:	89 50 18             	mov    %edx,0x18(%eax)
   1cce0:	8b 45 08             	mov    0x8(%ebp),%eax
   1cce3:	8b 55 10             	mov    0x10(%ebp),%edx
   1cce6:	89 50 1c             	mov    %edx,0x1c(%eax)
   1cce9:	90                   	nop
   1ccea:	5d                   	pop    %ebp
   1cceb:	c3                   	ret    

0001ccec <_Znwj>:
   1ccec:	55                   	push   %ebp
   1cced:	89 e5                	mov    %esp,%ebp
   1ccef:	83 ec 08             	sub    $0x8,%esp
   1ccf2:	83 ec 0c             	sub    $0xc,%esp
   1ccf5:	ff 75 08             	pushl  0x8(%ebp)
   1ccf8:	e8 47 be ff ff       	call   18b44 <kmalloc>
   1ccfd:	83 c4 10             	add    $0x10,%esp
   1cd00:	c9                   	leave  
   1cd01:	c3                   	ret    

0001cd02 <_Znaj>:
   1cd02:	55                   	push   %ebp
   1cd03:	89 e5                	mov    %esp,%ebp
   1cd05:	83 ec 08             	sub    $0x8,%esp
   1cd08:	83 ec 0c             	sub    $0xc,%esp
   1cd0b:	ff 75 08             	pushl  0x8(%ebp)
   1cd0e:	e8 31 be ff ff       	call   18b44 <kmalloc>
   1cd13:	83 c4 10             	add    $0x10,%esp
   1cd16:	c9                   	leave  
   1cd17:	c3                   	ret    

0001cd18 <_ZdlPv>:
   1cd18:	55                   	push   %ebp
   1cd19:	89 e5                	mov    %esp,%ebp
   1cd1b:	83 ec 08             	sub    $0x8,%esp
   1cd1e:	83 ec 0c             	sub    $0xc,%esp
   1cd21:	ff 75 08             	pushl  0x8(%ebp)
   1cd24:	e8 5a c5 ff ff       	call   19283 <kfree>
   1cd29:	83 c4 10             	add    $0x10,%esp
   1cd2c:	90                   	nop
   1cd2d:	c9                   	leave  
   1cd2e:	c3                   	ret    

0001cd2f <_ZdaPv>:
   1cd2f:	55                   	push   %ebp
   1cd30:	89 e5                	mov    %esp,%ebp
   1cd32:	83 ec 08             	sub    $0x8,%esp
   1cd35:	83 ec 0c             	sub    $0xc,%esp
   1cd38:	ff 75 08             	pushl  0x8(%ebp)
   1cd3b:	e8 43 c5 ff ff       	call   19283 <kfree>
   1cd40:	83 c4 10             	add    $0x10,%esp
   1cd43:	90                   	nop
   1cd44:	c9                   	leave  
   1cd45:	c3                   	ret    

0001cd46 <_Z11init_serialv>:
   1cd46:	55                   	push   %ebp
   1cd47:	89 e5                	mov    %esp,%ebp
   1cd49:	83 ec 08             	sub    $0x8,%esp
   1cd4c:	83 ec 08             	sub    $0x8,%esp
   1cd4f:	6a 00                	push   $0x0
   1cd51:	68 f9 03 00 00       	push   $0x3f9
   1cd56:	e8 64 23 00 00       	call   1f0bf <_Z8outportbth>
   1cd5b:	83 c4 10             	add    $0x10,%esp
   1cd5e:	83 ec 08             	sub    $0x8,%esp
   1cd61:	68 80 00 00 00       	push   $0x80
   1cd66:	68 fb 03 00 00       	push   $0x3fb
   1cd6b:	e8 4f 23 00 00       	call   1f0bf <_Z8outportbth>
   1cd70:	83 c4 10             	add    $0x10,%esp
   1cd73:	83 ec 08             	sub    $0x8,%esp
   1cd76:	6a 03                	push   $0x3
   1cd78:	68 f8 03 00 00       	push   $0x3f8
   1cd7d:	e8 3d 23 00 00       	call   1f0bf <_Z8outportbth>
   1cd82:	83 c4 10             	add    $0x10,%esp
   1cd85:	83 ec 08             	sub    $0x8,%esp
   1cd88:	6a 00                	push   $0x0
   1cd8a:	68 f9 03 00 00       	push   $0x3f9
   1cd8f:	e8 2b 23 00 00       	call   1f0bf <_Z8outportbth>
   1cd94:	83 c4 10             	add    $0x10,%esp
   1cd97:	83 ec 08             	sub    $0x8,%esp
   1cd9a:	6a 03                	push   $0x3
   1cd9c:	68 fb 03 00 00       	push   $0x3fb
   1cda1:	e8 19 23 00 00       	call   1f0bf <_Z8outportbth>
   1cda6:	83 c4 10             	add    $0x10,%esp
   1cda9:	83 ec 08             	sub    $0x8,%esp
   1cdac:	68 c7 00 00 00       	push   $0xc7
   1cdb1:	68 fa 03 00 00       	push   $0x3fa
   1cdb6:	e8 04 23 00 00       	call   1f0bf <_Z8outportbth>
   1cdbb:	83 c4 10             	add    $0x10,%esp
   1cdbe:	83 ec 08             	sub    $0x8,%esp
   1cdc1:	6a 0b                	push   $0xb
   1cdc3:	68 fc 03 00 00       	push   $0x3fc
   1cdc8:	e8 f2 22 00 00       	call   1f0bf <_Z8outportbth>
   1cdcd:	83 c4 10             	add    $0x10,%esp
   1cdd0:	90                   	nop
   1cdd1:	c9                   	leave  
   1cdd2:	c3                   	ret    

0001cdd3 <_Z17is_transmit_emptyv>:
   1cdd3:	55                   	push   %ebp
   1cdd4:	89 e5                	mov    %esp,%ebp
   1cdd6:	83 ec 08             	sub    $0x8,%esp
   1cdd9:	83 ec 0c             	sub    $0xc,%esp
   1cddc:	68 fd 03 00 00       	push   $0x3fd
   1cde1:	e8 f8 22 00 00       	call   1f0de <_Z7inportbt>
   1cde6:	83 c4 10             	add    $0x10,%esp
   1cde9:	0f b6 c0             	movzbl %al,%eax
   1cdec:	83 e0 20             	and    $0x20,%eax
   1cdef:	c9                   	leave  
   1cdf0:	c3                   	ret    

0001cdf1 <_Z12write_serialc>:
   1cdf1:	55                   	push   %ebp
   1cdf2:	89 e5                	mov    %esp,%ebp
   1cdf4:	83 ec 18             	sub    $0x18,%esp
   1cdf7:	8b 45 08             	mov    0x8(%ebp),%eax
   1cdfa:	88 45 f4             	mov    %al,-0xc(%ebp)
   1cdfd:	e8 d1 ff ff ff       	call   1cdd3 <_Z17is_transmit_emptyv>
   1ce02:	85 c0                	test   %eax,%eax
   1ce04:	0f 94 c0             	sete   %al
   1ce07:	84 c0                	test   %al,%al
   1ce09:	74 02                	je     1ce0d <_Z12write_serialc+0x1c>
   1ce0b:	eb f0                	jmp    1cdfd <_Z12write_serialc+0xc>
   1ce0d:	0f b6 45 f4          	movzbl -0xc(%ebp),%eax
   1ce11:	0f b6 c0             	movzbl %al,%eax
   1ce14:	83 ec 08             	sub    $0x8,%esp
   1ce17:	50                   	push   %eax
   1ce18:	68 f8 03 00 00       	push   $0x3f8
   1ce1d:	e8 9d 22 00 00       	call   1f0bf <_Z8outportbth>
   1ce22:	83 c4 10             	add    $0x10,%esp
   1ce25:	90                   	nop
   1ce26:	c9                   	leave  
   1ce27:	c3                   	ret    

0001ce28 <_Z19write_serial_stringPc>:
   1ce28:	55                   	push   %ebp
   1ce29:	89 e5                	mov    %esp,%ebp
   1ce2b:	83 ec 08             	sub    $0x8,%esp
   1ce2e:	8b 45 08             	mov    0x8(%ebp),%eax
   1ce31:	0f b6 00             	movzbl (%eax),%eax
   1ce34:	84 c0                	test   %al,%al
   1ce36:	74 1d                	je     1ce55 <_Z19write_serial_stringPc+0x2d>
   1ce38:	8b 45 08             	mov    0x8(%ebp),%eax
   1ce3b:	8d 50 01             	lea    0x1(%eax),%edx
   1ce3e:	89 55 08             	mov    %edx,0x8(%ebp)
   1ce41:	0f b6 00             	movzbl (%eax),%eax
   1ce44:	0f be c0             	movsbl %al,%eax
   1ce47:	83 ec 0c             	sub    $0xc,%esp
   1ce4a:	50                   	push   %eax
   1ce4b:	e8 a1 ff ff ff       	call   1cdf1 <_Z12write_serialc>
   1ce50:	83 c4 10             	add    $0x10,%esp
   1ce53:	eb d9                	jmp    1ce2e <_Z19write_serial_stringPc+0x6>
   1ce55:	90                   	nop
   1ce56:	c9                   	leave  
   1ce57:	c3                   	ret    

0001ce58 <_ZN5ShellC1EP7Console>:
   1ce58:	55                   	push   %ebp
   1ce59:	89 e5                	mov    %esp,%ebp
   1ce5b:	83 ec 08             	sub    $0x8,%esp
   1ce5e:	8b 45 08             	mov    0x8(%ebp),%eax
   1ce61:	c7 00 00 00 00 00    	movl   $0x0,(%eax)
   1ce67:	8b 45 08             	mov    0x8(%ebp),%eax
   1ce6a:	c7 40 04 0a 00 00 00 	movl   $0xa,0x4(%eax)
   1ce71:	8b 45 0c             	mov    0xc(%ebp),%eax
   1ce74:	a3 54 82 44 00       	mov    %eax,0x448254
   1ce79:	83 ec 04             	sub    $0x4,%esp
   1ce7c:	68 00 02 00 00       	push   $0x200
   1ce81:	6a 00                	push   $0x0
   1ce83:	68 40 80 44 00       	push   $0x448040
   1ce88:	e8 e8 df ff ff       	call   1ae75 <memset>
   1ce8d:	83 c4 10             	add    $0x10,%esp
   1ce90:	a1 54 82 44 00       	mov    0x448254,%eax
   1ce95:	83 ec 0c             	sub    $0xc,%esp
   1ce98:	68 ff 00 00 00       	push   $0xff
   1ce9d:	68 ff 00 00 00       	push   $0xff
   1cea2:	68 ff 00 00 00       	push   $0xff
   1cea7:	68 90 1c 02 00       	push   $0x21c90
   1ceac:	50                   	push   %eax
   1cead:	e8 02 cb ff ff       	call   199b4 <_ZN7Console4putsEPchhh>
   1ceb2:	83 c4 20             	add    $0x20,%esp
   1ceb5:	b8 28 00 00 00       	mov    $0x28,%eax
   1ceba:	83 ec 0c             	sub    $0xc,%esp
   1cebd:	50                   	push   %eax
   1cebe:	e8 81 bc ff ff       	call   18b44 <kmalloc>
   1cec3:	83 c4 10             	add    $0x10,%esp
   1cec6:	a3 44 82 44 00       	mov    %eax,0x448244
   1cecb:	90                   	nop
   1cecc:	c9                   	leave  
   1cecd:	c3                   	ret    

0001cece <_Z10split_linePc>:
   1cece:	55                   	push   %ebp
   1cecf:	89 e5                	mov    %esp,%ebp
   1ced1:	83 ec 18             	sub    $0x18,%esp
   1ced4:	c7 45 f4 40 00 00 00 	movl   $0x40,-0xc(%ebp)
   1cedb:	c7 45 f0 00 00 00 00 	movl   $0x0,-0x10(%ebp)
   1cee2:	8b 45 f4             	mov    -0xc(%ebp),%eax
   1cee5:	c1 e0 02             	shl    $0x2,%eax
   1cee8:	83 ec 0c             	sub    $0xc,%esp
   1ceeb:	50                   	push   %eax
   1ceec:	e8 53 bc ff ff       	call   18b44 <kmalloc>
   1cef1:	83 c4 10             	add    $0x10,%esp
   1cef4:	89 45 ec             	mov    %eax,-0x14(%ebp)
   1cef7:	83 ec 08             	sub    $0x8,%esp
   1cefa:	68 99 1c 02 00       	push   $0x21c99
   1ceff:	ff 75 0c             	pushl  0xc(%ebp)
   1cf02:	e8 3f 1e 00 00       	call   1ed46 <_Z6strtokPcPKc>
   1cf07:	83 c4 10             	add    $0x10,%esp
   1cf0a:	89 45 e8             	mov    %eax,-0x18(%ebp)
   1cf0d:	83 7d e8 00          	cmpl   $0x0,-0x18(%ebp)
   1cf11:	74 61                	je     1cf74 <_Z10split_linePc+0xa6>
   1cf13:	83 ec 0c             	sub    $0xc,%esp
   1cf16:	ff 75 e8             	pushl  -0x18(%ebp)
   1cf19:	e8 0a ff ff ff       	call   1ce28 <_Z19write_serial_stringPc>
   1cf1e:	83 c4 10             	add    $0x10,%esp
   1cf21:	8b 45 f0             	mov    -0x10(%ebp),%eax
   1cf24:	8d 14 85 00 00 00 00 	lea    0x0(,%eax,4),%edx
   1cf2b:	8b 45 ec             	mov    -0x14(%ebp),%eax
   1cf2e:	01 c2                	add    %eax,%edx
   1cf30:	8b 45 e8             	mov    -0x18(%ebp),%eax
   1cf33:	89 02                	mov    %eax,(%edx)
   1cf35:	83 45 f0 01          	addl   $0x1,-0x10(%ebp)
   1cf39:	8b 45 f0             	mov    -0x10(%ebp),%eax
   1cf3c:	3b 45 f4             	cmp    -0xc(%ebp),%eax
   1cf3f:	7c 1c                	jl     1cf5d <_Z10split_linePc+0x8f>
   1cf41:	83 45 f4 40          	addl   $0x40,-0xc(%ebp)
   1cf45:	8b 45 f4             	mov    -0xc(%ebp),%eax
   1cf48:	c1 e0 02             	shl    $0x2,%eax
   1cf4b:	83 ec 08             	sub    $0x8,%esp
   1cf4e:	50                   	push   %eax
   1cf4f:	ff 75 ec             	pushl  -0x14(%ebp)
   1cf52:	e8 c4 c5 ff ff       	call   1951b <krealloc>
   1cf57:	83 c4 10             	add    $0x10,%esp
   1cf5a:	89 45 ec             	mov    %eax,-0x14(%ebp)
   1cf5d:	83 ec 08             	sub    $0x8,%esp
   1cf60:	68 9e 1c 02 00       	push   $0x21c9e
   1cf65:	6a 00                	push   $0x0
   1cf67:	e8 da 1d 00 00       	call   1ed46 <_Z6strtokPcPKc>
   1cf6c:	83 c4 10             	add    $0x10,%esp
   1cf6f:	89 45 e8             	mov    %eax,-0x18(%ebp)
   1cf72:	eb 99                	jmp    1cf0d <_Z10split_linePc+0x3f>
   1cf74:	8b 45 f0             	mov    -0x10(%ebp),%eax
   1cf77:	8d 14 85 00 00 00 00 	lea    0x0(,%eax,4),%edx
   1cf7e:	8b 45 ec             	mov    -0x14(%ebp),%eax
   1cf81:	01 d0                	add    %edx,%eax
   1cf83:	c7 00 00 00 00 00    	movl   $0x0,(%eax)
   1cf89:	8b 45 08             	mov    0x8(%ebp),%eax
   1cf8c:	8b 55 ec             	mov    -0x14(%ebp),%edx
   1cf8f:	89 10                	mov    %edx,(%eax)
   1cf91:	8b 45 08             	mov    0x8(%ebp),%eax
   1cf94:	8b 55 f0             	mov    -0x10(%ebp),%edx
   1cf97:	89 50 04             	mov    %edx,0x4(%eax)
   1cf9a:	8b 45 08             	mov    0x8(%ebp),%eax
   1cf9d:	c9                   	leave  
   1cf9e:	c2 04 00             	ret    $0x4
   1cfa1:	90                   	nop

0001cfa2 <_ZN5Shell6UpdateEv>:
   1cfa2:	55                   	push   %ebp
   1cfa3:	89 e5                	mov    %esp,%ebp
   1cfa5:	53                   	push   %ebx
   1cfa6:	83 ec 24             	sub    $0x24,%esp
   1cfa9:	e8 09 de ff ff       	call   1adb7 <_Z11key_updatedv>
   1cfae:	84 c0                	test   %al,%al
   1cfb0:	0f 84 e6 02 00 00    	je     1d29c <_ZN5Shell6UpdateEv+0x2fa>
   1cfb6:	e8 19 de ff ff       	call   1add4 <_Z7get_keyv>
   1cfbb:	88 45 eb             	mov    %al,-0x15(%ebp)
   1cfbe:	80 7d eb 0a          	cmpb   $0xa,-0x15(%ebp)
   1cfc2:	0f 85 d4 01 00 00    	jne    1d19c <_ZN5Shell6UpdateEv+0x1fa>
   1cfc8:	8b 45 08             	mov    0x8(%ebp),%eax
   1cfcb:	8b 00                	mov    (%eax),%eax
   1cfcd:	c6 80 40 80 44 00 00 	movb   $0x0,0x448040(%eax)
   1cfd4:	0f b6 05 50 82 44 00 	movzbl 0x448250,%eax
   1cfdb:	84 c0                	test   %al,%al
   1cfdd:	74 4a                	je     1d029 <_ZN5Shell6UpdateEv+0x87>
   1cfdf:	8b 1d 48 82 44 00    	mov    0x448248,%ebx
   1cfe5:	83 ec 0c             	sub    $0xc,%esp
   1cfe8:	68 40 80 44 00       	push   $0x448040
   1cfed:	e8 18 1c 00 00       	call   1ec0a <_Z6strlenPc>
   1cff2:	83 c4 10             	add    $0x10,%esp
   1cff5:	83 ec 0c             	sub    $0xc,%esp
   1cff8:	50                   	push   %eax
   1cff9:	e8 46 bb ff ff       	call   18b44 <kmalloc>
   1cffe:	83 c4 10             	add    $0x10,%esp
   1d001:	89 43 04             	mov    %eax,0x4(%ebx)
   1d004:	a1 48 82 44 00       	mov    0x448248,%eax
   1d009:	8b 40 04             	mov    0x4(%eax),%eax
   1d00c:	83 ec 08             	sub    $0x8,%esp
   1d00f:	68 40 80 44 00       	push   $0x448040
   1d014:	50                   	push   %eax
   1d015:	e8 08 20 00 00       	call   1f022 <_Z6strcpyPcPKc>
   1d01a:	83 c4 10             	add    $0x10,%esp
   1d01d:	c6 05 50 82 44 00 00 	movb   $0x0,0x448250
   1d024:	e9 07 01 00 00       	jmp    1d130 <_ZN5Shell6UpdateEv+0x18e>
   1d029:	8d 45 d8             	lea    -0x28(%ebp),%eax
   1d02c:	83 ec 08             	sub    $0x8,%esp
   1d02f:	68 40 80 44 00       	push   $0x448040
   1d034:	50                   	push   %eax
   1d035:	e8 94 fe ff ff       	call   1cece <_Z10split_linePc>
   1d03a:	83 c4 0c             	add    $0xc,%esp
   1d03d:	8b 45 d8             	mov    -0x28(%ebp),%eax
   1d040:	89 45 e4             	mov    %eax,-0x1c(%ebp)
   1d043:	8b 45 dc             	mov    -0x24(%ebp),%eax
   1d046:	89 45 e0             	mov    %eax,-0x20(%ebp)
   1d049:	c7 45 f0 00 00 00 00 	movl   $0x0,-0x10(%ebp)
   1d050:	83 7d f0 09          	cmpl   $0x9,-0x10(%ebp)
   1d054:	7f 47                	jg     1d09d <_ZN5Shell6UpdateEv+0xfb>
   1d056:	8b 45 f0             	mov    -0x10(%ebp),%eax
   1d059:	8b 14 c5 40 1c 02 00 	mov    0x21c40(,%eax,8),%edx
   1d060:	8b 45 e4             	mov    -0x1c(%ebp),%eax
   1d063:	8b 00                	mov    (%eax),%eax
   1d065:	83 ec 08             	sub    $0x8,%esp
   1d068:	52                   	push   %edx
   1d069:	50                   	push   %eax
   1d06a:	e8 7c 1d 00 00       	call   1edeb <_Z6strcmpPcS_>
   1d06f:	83 c4 10             	add    $0x10,%esp
   1d072:	85 c0                	test   %eax,%eax
   1d074:	0f 94 c0             	sete   %al
   1d077:	84 c0                	test   %al,%al
   1d079:	74 1c                	je     1d097 <_ZN5Shell6UpdateEv+0xf5>
   1d07b:	8b 45 f0             	mov    -0x10(%ebp),%eax
   1d07e:	8b 04 c5 44 1c 02 00 	mov    0x21c44(,%eax,8),%eax
   1d085:	83 ec 08             	sub    $0x8,%esp
   1d088:	ff 75 e4             	pushl  -0x1c(%ebp)
   1d08b:	ff 75 e0             	pushl  -0x20(%ebp)
   1d08e:	ff d0                	call   *%eax
   1d090:	83 c4 10             	add    $0x10,%esp
   1d093:	c6 45 f7 01          	movb   $0x1,-0x9(%ebp)
   1d097:	83 45 f0 01          	addl   $0x1,-0x10(%ebp)
   1d09b:	eb b3                	jmp    1d050 <_ZN5Shell6UpdateEv+0xae>
   1d09d:	c7 45 ec 00 00 00 00 	movl   $0x0,-0x14(%ebp)
   1d0a4:	8b 45 ec             	mov    -0x14(%ebp),%eax
   1d0a7:	3b 45 e0             	cmp    -0x20(%ebp),%eax
   1d0aa:	7d 1f                	jge    1d0cb <_ZN5Shell6UpdateEv+0x129>
   1d0ac:	8b 45 d8             	mov    -0x28(%ebp),%eax
   1d0af:	8b 55 ec             	mov    -0x14(%ebp),%edx
   1d0b2:	c1 e2 02             	shl    $0x2,%edx
   1d0b5:	01 d0                	add    %edx,%eax
   1d0b7:	8b 00                	mov    (%eax),%eax
   1d0b9:	83 ec 0c             	sub    $0xc,%esp
   1d0bc:	50                   	push   %eax
   1d0bd:	e8 c1 c1 ff ff       	call   19283 <kfree>
   1d0c2:	83 c4 10             	add    $0x10,%esp
   1d0c5:	83 45 ec 01          	addl   $0x1,-0x14(%ebp)
   1d0c9:	eb d9                	jmp    1d0a4 <_ZN5Shell6UpdateEv+0x102>
   1d0cb:	8b 45 d8             	mov    -0x28(%ebp),%eax
   1d0ce:	83 ec 0c             	sub    $0xc,%esp
   1d0d1:	50                   	push   %eax
   1d0d2:	e8 ac c1 ff ff       	call   19283 <kfree>
   1d0d7:	83 c4 10             	add    $0x10,%esp
   1d0da:	0f b6 45 f7          	movzbl -0x9(%ebp),%eax
   1d0de:	83 f0 01             	xor    $0x1,%eax
   1d0e1:	84 c0                	test   %al,%al
   1d0e3:	74 4b                	je     1d130 <_ZN5Shell6UpdateEv+0x18e>
   1d0e5:	a1 54 82 44 00       	mov    0x448254,%eax
   1d0ea:	83 ec 0c             	sub    $0xc,%esp
   1d0ed:	68 ff 00 00 00       	push   $0xff
   1d0f2:	68 ff 00 00 00       	push   $0xff
   1d0f7:	68 ff 00 00 00       	push   $0xff
   1d0fc:	68 a2 1c 02 00       	push   $0x21ca2
   1d101:	50                   	push   %eax
   1d102:	e8 ad c8 ff ff       	call   199b4 <_ZN7Console4putsEPchhh>
   1d107:	83 c4 20             	add    $0x20,%esp
   1d10a:	8b 45 e4             	mov    -0x1c(%ebp),%eax
   1d10d:	8b 10                	mov    (%eax),%edx
   1d10f:	a1 54 82 44 00       	mov    0x448254,%eax
   1d114:	83 ec 0c             	sub    $0xc,%esp
   1d117:	68 ff 00 00 00       	push   $0xff
   1d11c:	68 ff 00 00 00       	push   $0xff
   1d121:	68 ff 00 00 00       	push   $0xff
   1d126:	52                   	push   %edx
   1d127:	50                   	push   %eax
   1d128:	e8 87 c8 ff ff       	call   199b4 <_ZN7Console4putsEPchhh>
   1d12d:	83 c4 20             	add    $0x20,%esp
   1d130:	8b 45 08             	mov    0x8(%ebp),%eax
   1d133:	c7 00 00 00 00 00    	movl   $0x0,(%eax)
   1d139:	83 ec 04             	sub    $0x4,%esp
   1d13c:	68 00 02 00 00       	push   $0x200
   1d141:	6a 00                	push   $0x0
   1d143:	68 40 80 44 00       	push   $0x448040
   1d148:	e8 28 dd ff ff       	call   1ae75 <memset>
   1d14d:	83 c4 10             	add    $0x10,%esp
   1d150:	a1 54 82 44 00       	mov    0x448254,%eax
   1d155:	83 ec 0c             	sub    $0xc,%esp
   1d158:	68 ff 00 00 00       	push   $0xff
   1d15d:	68 ff 00 00 00       	push   $0xff
   1d162:	68 ff 00 00 00       	push   $0xff
   1d167:	6a 0a                	push   $0xa
   1d169:	50                   	push   %eax
   1d16a:	e8 af c6 ff ff       	call   1981e <_ZN7Console4putcEchhh>
   1d16f:	83 c4 20             	add    $0x20,%esp
   1d172:	a1 54 82 44 00       	mov    0x448254,%eax
   1d177:	83 ec 0c             	sub    $0xc,%esp
   1d17a:	68 ff 00 00 00       	push   $0xff
   1d17f:	68 ff 00 00 00       	push   $0xff
   1d184:	68 ff 00 00 00       	push   $0xff
   1d189:	68 90 1c 02 00       	push   $0x21c90
   1d18e:	50                   	push   %eax
   1d18f:	e8 20 c8 ff ff       	call   199b4 <_ZN7Console4putsEPchhh>
   1d194:	83 c4 20             	add    $0x20,%esp
   1d197:	e9 00 01 00 00       	jmp    1d29c <_ZN5Shell6UpdateEv+0x2fa>
   1d19c:	e8 4b dc ff ff       	call   1adec <_Z7is_capsv>
   1d1a1:	84 c0                	test   %al,%al
   1d1a3:	74 0d                	je     1d1b2 <_ZN5Shell6UpdateEv+0x210>
   1d1a5:	80 7d eb 34          	cmpb   $0x34,-0x15(%ebp)
   1d1a9:	75 07                	jne    1d1b2 <_ZN5Shell6UpdateEv+0x210>
   1d1ab:	b8 01 00 00 00       	mov    $0x1,%eax
   1d1b0:	eb 05                	jmp    1d1b7 <_ZN5Shell6UpdateEv+0x215>
   1d1b2:	b8 00 00 00 00       	mov    $0x0,%eax
   1d1b7:	84 c0                	test   %al,%al
   1d1b9:	74 4c                	je     1d207 <_ZN5Shell6UpdateEv+0x265>
   1d1bb:	8b 45 08             	mov    0x8(%ebp),%eax
   1d1be:	8b 00                	mov    (%eax),%eax
   1d1c0:	8d 48 01             	lea    0x1(%eax),%ecx
   1d1c3:	8b 55 08             	mov    0x8(%ebp),%edx
   1d1c6:	89 0a                	mov    %ecx,(%edx)
   1d1c8:	c6 80 40 80 44 00 24 	movb   $0x24,0x448040(%eax)
   1d1cf:	8b 45 08             	mov    0x8(%ebp),%eax
   1d1d2:	8b 00                	mov    (%eax),%eax
   1d1d4:	83 e8 01             	sub    $0x1,%eax
   1d1d7:	0f b6 80 40 80 44 00 	movzbl 0x448040(%eax),%eax
   1d1de:	0f be d0             	movsbl %al,%edx
   1d1e1:	a1 54 82 44 00       	mov    0x448254,%eax
   1d1e6:	83 ec 0c             	sub    $0xc,%esp
   1d1e9:	68 ff 00 00 00       	push   $0xff
   1d1ee:	68 ff 00 00 00       	push   $0xff
   1d1f3:	68 ff 00 00 00       	push   $0xff
   1d1f8:	52                   	push   %edx
   1d1f9:	50                   	push   %eax
   1d1fa:	e8 1f c6 ff ff       	call   1981e <_ZN7Console4putcEchhh>
   1d1ff:	83 c4 20             	add    $0x20,%esp
   1d202:	e9 95 00 00 00       	jmp    1d29c <_ZN5Shell6UpdateEv+0x2fa>
   1d207:	80 7d eb 08          	cmpb   $0x8,-0x15(%ebp)
   1d20b:	75 45                	jne    1d252 <_ZN5Shell6UpdateEv+0x2b0>
   1d20d:	8b 45 08             	mov    0x8(%ebp),%eax
   1d210:	8b 00                	mov    (%eax),%eax
   1d212:	85 c0                	test   %eax,%eax
   1d214:	0f 8e 82 00 00 00    	jle    1d29c <_ZN5Shell6UpdateEv+0x2fa>
   1d21a:	8b 45 08             	mov    0x8(%ebp),%eax
   1d21d:	8b 00                	mov    (%eax),%eax
   1d21f:	8d 48 ff             	lea    -0x1(%eax),%ecx
   1d222:	8b 55 08             	mov    0x8(%ebp),%edx
   1d225:	89 0a                	mov    %ecx,(%edx)
   1d227:	c6 80 40 80 44 00 00 	movb   $0x0,0x448040(%eax)
   1d22e:	a1 54 82 44 00       	mov    0x448254,%eax
   1d233:	83 ec 0c             	sub    $0xc,%esp
   1d236:	68 ff 00 00 00       	push   $0xff
   1d23b:	68 ff 00 00 00       	push   $0xff
   1d240:	68 ff 00 00 00       	push   $0xff
   1d245:	6a 08                	push   $0x8
   1d247:	50                   	push   %eax
   1d248:	e8 d1 c5 ff ff       	call   1981e <_ZN7Console4putcEchhh>
   1d24d:	83 c4 20             	add    $0x20,%esp
   1d250:	eb 4a                	jmp    1d29c <_ZN5Shell6UpdateEv+0x2fa>
   1d252:	8b 45 08             	mov    0x8(%ebp),%eax
   1d255:	8b 00                	mov    (%eax),%eax
   1d257:	8d 48 01             	lea    0x1(%eax),%ecx
   1d25a:	8b 55 08             	mov    0x8(%ebp),%edx
   1d25d:	89 0a                	mov    %ecx,(%edx)
   1d25f:	0f b6 55 eb          	movzbl -0x15(%ebp),%edx
   1d263:	88 90 40 80 44 00    	mov    %dl,0x448040(%eax)
   1d269:	8b 45 08             	mov    0x8(%ebp),%eax
   1d26c:	8b 00                	mov    (%eax),%eax
   1d26e:	83 e8 01             	sub    $0x1,%eax
   1d271:	0f b6 80 40 80 44 00 	movzbl 0x448040(%eax),%eax
   1d278:	0f be d0             	movsbl %al,%edx
   1d27b:	a1 54 82 44 00       	mov    0x448254,%eax
   1d280:	83 ec 0c             	sub    $0xc,%esp
   1d283:	68 ff 00 00 00       	push   $0xff
   1d288:	68 ff 00 00 00       	push   $0xff
   1d28d:	68 ff 00 00 00       	push   $0xff
   1d292:	52                   	push   %edx
   1d293:	50                   	push   %eax
   1d294:	e8 85 c5 ff ff       	call   1981e <_ZN7Console4putcEchhh>
   1d299:	83 c4 20             	add    $0x20,%esp
   1d29c:	90                   	nop
   1d29d:	8b 5d fc             	mov    -0x4(%ebp),%ebx
   1d2a0:	c9                   	leave  
   1d2a1:	c3                   	ret    

0001d2a2 <_Z5crashiPPc>:
   1d2a2:	55                   	push   %ebp
   1d2a3:	89 e5                	mov    %esp,%ebp
   1d2a5:	83 ec 08             	sub    $0x8,%esp
   1d2a8:	83 ec 08             	sub    $0x8,%esp
   1d2ab:	68 b5 1c 02 00       	push   $0x21cb5
   1d2b0:	68 cc 1c 02 00       	push   $0x21ccc
   1d2b5:	e8 f6 c9 ff ff       	call   19cb0 <fatal_error>
   1d2ba:	83 c4 10             	add    $0x10,%esp
   1d2bd:	90                   	nop
   1d2be:	c9                   	leave  
   1d2bf:	c3                   	ret    

0001d2c0 <_Z5cleariPPc>:
   1d2c0:	55                   	push   %ebp
   1d2c1:	89 e5                	mov    %esp,%ebp
   1d2c3:	83 ec 08             	sub    $0x8,%esp
   1d2c6:	a1 54 82 44 00       	mov    0x448254,%eax
   1d2cb:	6a 00                	push   $0x0
   1d2cd:	6a 00                	push   $0x0
   1d2cf:	6a 00                	push   $0x0
   1d2d1:	50                   	push   %eax
   1d2d2:	e8 4b c7 ff ff       	call   19a22 <_ZN7Console5clearEhhh>
   1d2d7:	83 c4 10             	add    $0x10,%esp
   1d2da:	90                   	nop
   1d2db:	c9                   	leave  
   1d2dc:	c3                   	ret    

0001d2dd <_Z5printiPPc>:
   1d2dd:	55                   	push   %ebp
   1d2de:	89 e5                	mov    %esp,%ebp
   1d2e0:	83 ec 18             	sub    $0x18,%esp
   1d2e3:	a1 54 82 44 00       	mov    0x448254,%eax
   1d2e8:	83 ec 0c             	sub    $0xc,%esp
   1d2eb:	68 ff 00 00 00       	push   $0xff
   1d2f0:	68 ff 00 00 00       	push   $0xff
   1d2f5:	68 ff 00 00 00       	push   $0xff
   1d2fa:	6a 0a                	push   $0xa
   1d2fc:	50                   	push   %eax
   1d2fd:	e8 1c c5 ff ff       	call   1981e <_ZN7Console4putcEchhh>
   1d302:	83 c4 20             	add    $0x20,%esp
   1d305:	c7 45 f4 00 00 00 00 	movl   $0x0,-0xc(%ebp)
   1d30c:	a1 40 82 44 00       	mov    0x448240,%eax
   1d311:	39 45 f4             	cmp    %eax,-0xc(%ebp)
   1d314:	7d 5b                	jge    1d371 <_Z5printiPPc+0x94>
   1d316:	a1 54 82 44 00       	mov    0x448254,%eax
   1d31b:	83 ec 0c             	sub    $0xc,%esp
   1d31e:	68 ff 00 00 00       	push   $0xff
   1d323:	68 ff 00 00 00       	push   $0xff
   1d328:	68 ff 00 00 00       	push   $0xff
   1d32d:	68 e8 1c 02 00       	push   $0x21ce8
   1d332:	50                   	push   %eax
   1d333:	e8 7c c6 ff ff       	call   199b4 <_ZN7Console4putsEPchhh>
   1d338:	83 c4 20             	add    $0x20,%esp
   1d33b:	a1 44 82 44 00       	mov    0x448244,%eax
   1d340:	8b 55 f4             	mov    -0xc(%ebp),%edx
   1d343:	c1 e2 03             	shl    $0x3,%edx
   1d346:	01 d0                	add    %edx,%eax
   1d348:	8b 10                	mov    (%eax),%edx
   1d34a:	a1 54 82 44 00       	mov    0x448254,%eax
   1d34f:	83 ec 0c             	sub    $0xc,%esp
   1d352:	68 ff 00 00 00       	push   $0xff
   1d357:	68 ff 00 00 00       	push   $0xff
   1d35c:	68 ff 00 00 00       	push   $0xff
   1d361:	52                   	push   %edx
   1d362:	50                   	push   %eax
   1d363:	e8 4c c6 ff ff       	call   199b4 <_ZN7Console4putsEPchhh>
   1d368:	83 c4 20             	add    $0x20,%esp
   1d36b:	83 45 f4 01          	addl   $0x1,-0xc(%ebp)
   1d36f:	eb 9b                	jmp    1d30c <_Z5printiPPc+0x2f>
   1d371:	c7 45 f0 01 00 00 00 	movl   $0x1,-0x10(%ebp)
   1d378:	8b 45 f0             	mov    -0x10(%ebp),%eax
   1d37b:	3b 45 08             	cmp    0x8(%ebp),%eax
   1d37e:	0f 8d 4e 01 00 00    	jge    1d4d2 <_Z5printiPPc+0x1f5>
   1d384:	8b 45 f0             	mov    -0x10(%ebp),%eax
   1d387:	8d 14 85 00 00 00 00 	lea    0x0(,%eax,4),%edx
   1d38e:	8b 45 0c             	mov    0xc(%ebp),%eax
   1d391:	01 d0                	add    %edx,%eax
   1d393:	8b 00                	mov    (%eax),%eax
   1d395:	0f b6 00             	movzbl (%eax),%eax
   1d398:	3c 24                	cmp    $0x24,%al
   1d39a:	74 37                	je     1d3d3 <_Z5printiPPc+0xf6>
   1d39c:	8b 45 f0             	mov    -0x10(%ebp),%eax
   1d39f:	8d 14 85 00 00 00 00 	lea    0x0(,%eax,4),%edx
   1d3a6:	8b 45 0c             	mov    0xc(%ebp),%eax
   1d3a9:	01 d0                	add    %edx,%eax
   1d3ab:	8b 10                	mov    (%eax),%edx
   1d3ad:	a1 54 82 44 00       	mov    0x448254,%eax
   1d3b2:	83 ec 0c             	sub    $0xc,%esp
   1d3b5:	68 ff 00 00 00       	push   $0xff
   1d3ba:	68 ff 00 00 00       	push   $0xff
   1d3bf:	68 ff 00 00 00       	push   $0xff
   1d3c4:	52                   	push   %edx
   1d3c5:	50                   	push   %eax
   1d3c6:	e8 e9 c5 ff ff       	call   199b4 <_ZN7Console4putsEPchhh>
   1d3cb:	83 c4 20             	add    $0x20,%esp
   1d3ce:	e9 f6 00 00 00       	jmp    1d4c9 <_Z5printiPPc+0x1ec>
   1d3d3:	c7 45 ec 00 00 00 00 	movl   $0x0,-0x14(%ebp)
   1d3da:	a1 40 82 44 00       	mov    0x448240,%eax
   1d3df:	39 45 ec             	cmp    %eax,-0x14(%ebp)
   1d3e2:	7d 5a                	jge    1d43e <_Z5printiPPc+0x161>
   1d3e4:	a1 44 82 44 00       	mov    0x448244,%eax
   1d3e9:	8b 55 ec             	mov    -0x14(%ebp),%edx
   1d3ec:	c1 e2 03             	shl    $0x3,%edx
   1d3ef:	01 d0                	add    %edx,%eax
   1d3f1:	8b 10                	mov    (%eax),%edx
   1d3f3:	8b 45 f0             	mov    -0x10(%ebp),%eax
   1d3f6:	8d 0c 85 00 00 00 00 	lea    0x0(,%eax,4),%ecx
   1d3fd:	8b 45 0c             	mov    0xc(%ebp),%eax
   1d400:	01 c8                	add    %ecx,%eax
   1d402:	8b 00                	mov    (%eax),%eax
   1d404:	83 ec 08             	sub    $0x8,%esp
   1d407:	52                   	push   %edx
   1d408:	50                   	push   %eax
   1d409:	e8 dd 19 00 00       	call   1edeb <_Z6strcmpPcS_>
   1d40e:	83 c4 10             	add    $0x10,%esp
   1d411:	85 c0                	test   %eax,%eax
   1d413:	0f 94 c0             	sete   %al
   1d416:	84 c0                	test   %al,%al
   1d418:	74 14                	je     1d42e <_Z5printiPPc+0x151>
   1d41a:	a1 44 82 44 00       	mov    0x448244,%eax
   1d41f:	8b 55 ec             	mov    -0x14(%ebp),%edx
   1d422:	c1 e2 03             	shl    $0x3,%edx
   1d425:	01 d0                	add    %edx,%eax
   1d427:	a3 48 82 44 00       	mov    %eax,0x448248
   1d42c:	eb 10                	jmp    1d43e <_Z5printiPPc+0x161>
   1d42e:	c7 05 48 82 44 00 00 	movl   $0x0,0x448248
   1d435:	00 00 00 
   1d438:	83 45 ec 01          	addl   $0x1,-0x14(%ebp)
   1d43c:	eb 9c                	jmp    1d3da <_Z5printiPPc+0xfd>
   1d43e:	a1 48 82 44 00       	mov    0x448248,%eax
   1d443:	85 c0                	test   %eax,%eax
   1d445:	75 59                	jne    1d4a0 <_Z5printiPPc+0x1c3>
   1d447:	a1 54 82 44 00       	mov    0x448254,%eax
   1d44c:	83 ec 0c             	sub    $0xc,%esp
   1d44f:	68 ff 00 00 00       	push   $0xff
   1d454:	68 ff 00 00 00       	push   $0xff
   1d459:	68 ff 00 00 00       	push   $0xff
   1d45e:	68 ee 1c 02 00       	push   $0x21cee
   1d463:	50                   	push   %eax
   1d464:	e8 4b c5 ff ff       	call   199b4 <_ZN7Console4putsEPchhh>
   1d469:	83 c4 20             	add    $0x20,%esp
   1d46c:	8b 45 f0             	mov    -0x10(%ebp),%eax
   1d46f:	8d 14 85 00 00 00 00 	lea    0x0(,%eax,4),%edx
   1d476:	8b 45 0c             	mov    0xc(%ebp),%eax
   1d479:	01 d0                	add    %edx,%eax
   1d47b:	8b 10                	mov    (%eax),%edx
   1d47d:	a1 54 82 44 00       	mov    0x448254,%eax
   1d482:	83 ec 0c             	sub    $0xc,%esp
   1d485:	68 ff 00 00 00       	push   $0xff
   1d48a:	68 ff 00 00 00       	push   $0xff
   1d48f:	68 ff 00 00 00       	push   $0xff
   1d494:	52                   	push   %edx
   1d495:	50                   	push   %eax
   1d496:	e8 19 c5 ff ff       	call   199b4 <_ZN7Console4putsEPchhh>
   1d49b:	83 c4 20             	add    $0x20,%esp
   1d49e:	eb 29                	jmp    1d4c9 <_Z5printiPPc+0x1ec>
   1d4a0:	a1 48 82 44 00       	mov    0x448248,%eax
   1d4a5:	8b 50 04             	mov    0x4(%eax),%edx
   1d4a8:	a1 54 82 44 00       	mov    0x448254,%eax
   1d4ad:	83 ec 0c             	sub    $0xc,%esp
   1d4b0:	68 ff 00 00 00       	push   $0xff
   1d4b5:	68 ff 00 00 00       	push   $0xff
   1d4ba:	68 ff 00 00 00       	push   $0xff
   1d4bf:	52                   	push   %edx
   1d4c0:	50                   	push   %eax
   1d4c1:	e8 ee c4 ff ff       	call   199b4 <_ZN7Console4putsEPchhh>
   1d4c6:	83 c4 20             	add    $0x20,%esp
   1d4c9:	83 45 f0 01          	addl   $0x1,-0x10(%ebp)
   1d4cd:	e9 a6 fe ff ff       	jmp    1d378 <_Z5printiPPc+0x9b>
   1d4d2:	90                   	nop
   1d4d3:	c9                   	leave  
   1d4d4:	c3                   	ret    

0001d4d5 <_Z5inputiPPc>:
   1d4d5:	55                   	push   %ebp
   1d4d6:	89 e5                	mov    %esp,%ebp
   1d4d8:	53                   	push   %ebx
   1d4d9:	83 ec 14             	sub    $0x14,%esp
   1d4dc:	83 7d 08 01          	cmpl   $0x1,0x8(%ebp)
   1d4e0:	7e 0f                	jle    1d4f1 <_Z5inputiPPc+0x1c>
   1d4e2:	8b 45 0c             	mov    0xc(%ebp),%eax
   1d4e5:	83 c0 04             	add    $0x4,%eax
   1d4e8:	8b 00                	mov    (%eax),%eax
   1d4ea:	0f b6 00             	movzbl (%eax),%eax
   1d4ed:	3c 24                	cmp    $0x24,%al
   1d4ef:	74 2a                	je     1d51b <_Z5inputiPPc+0x46>
   1d4f1:	a1 54 82 44 00       	mov    0x448254,%eax
   1d4f6:	83 ec 0c             	sub    $0xc,%esp
   1d4f9:	68 ff 00 00 00       	push   $0xff
   1d4fe:	68 ff 00 00 00       	push   $0xff
   1d503:	68 ff 00 00 00       	push   $0xff
   1d508:	68 01 1d 02 00       	push   $0x21d01
   1d50d:	50                   	push   %eax
   1d50e:	e8 a1 c4 ff ff       	call   199b4 <_ZN7Console4putsEPchhh>
   1d513:	83 c4 20             	add    $0x20,%esp
   1d516:	e9 63 01 00 00       	jmp    1d67e <_Z5inputiPPc+0x1a9>
   1d51b:	a1 40 82 44 00       	mov    0x448240,%eax
   1d520:	85 c0                	test   %eax,%eax
   1d522:	7e 62                	jle    1d586 <_Z5inputiPPc+0xb1>
   1d524:	c7 45 f4 00 00 00 00 	movl   $0x0,-0xc(%ebp)
   1d52b:	a1 40 82 44 00       	mov    0x448240,%eax
   1d530:	39 45 f4             	cmp    %eax,-0xc(%ebp)
   1d533:	7d 51                	jge    1d586 <_Z5inputiPPc+0xb1>
   1d535:	a1 44 82 44 00       	mov    0x448244,%eax
   1d53a:	8b 55 f4             	mov    -0xc(%ebp),%edx
   1d53d:	c1 e2 03             	shl    $0x3,%edx
   1d540:	01 d0                	add    %edx,%eax
   1d542:	8b 10                	mov    (%eax),%edx
   1d544:	8b 45 0c             	mov    0xc(%ebp),%eax
   1d547:	83 c0 04             	add    $0x4,%eax
   1d54a:	8b 00                	mov    (%eax),%eax
   1d54c:	83 ec 08             	sub    $0x8,%esp
   1d54f:	52                   	push   %edx
   1d550:	50                   	push   %eax
   1d551:	e8 95 18 00 00       	call   1edeb <_Z6strcmpPcS_>
   1d556:	83 c4 10             	add    $0x10,%esp
   1d559:	85 c0                	test   %eax,%eax
   1d55b:	0f 94 c0             	sete   %al
   1d55e:	84 c0                	test   %al,%al
   1d560:	74 14                	je     1d576 <_Z5inputiPPc+0xa1>
   1d562:	a1 44 82 44 00       	mov    0x448244,%eax
   1d567:	8b 55 f4             	mov    -0xc(%ebp),%edx
   1d56a:	c1 e2 03             	shl    $0x3,%edx
   1d56d:	01 d0                	add    %edx,%eax
   1d56f:	a3 48 82 44 00       	mov    %eax,0x448248
   1d574:	eb 10                	jmp    1d586 <_Z5inputiPPc+0xb1>
   1d576:	c7 05 48 82 44 00 00 	movl   $0x0,0x448248
   1d57d:	00 00 00 
   1d580:	83 45 f4 01          	addl   $0x1,-0xc(%ebp)
   1d584:	eb a5                	jmp    1d52b <_Z5inputiPPc+0x56>
   1d586:	a1 48 82 44 00       	mov    0x448248,%eax
   1d58b:	85 c0                	test   %eax,%eax
   1d58d:	0f 85 e4 00 00 00    	jne    1d677 <_Z5inputiPPc+0x1a2>
   1d593:	a1 54 82 44 00       	mov    0x448254,%eax
   1d598:	83 ec 0c             	sub    $0xc,%esp
   1d59b:	68 ff 00 00 00       	push   $0xff
   1d5a0:	68 ff 00 00 00       	push   $0xff
   1d5a5:	68 ff 00 00 00       	push   $0xff
   1d5aa:	68 14 1d 02 00       	push   $0x21d14
   1d5af:	50                   	push   %eax
   1d5b0:	e8 ff c3 ff ff       	call   199b4 <_ZN7Console4putsEPchhh>
   1d5b5:	83 c4 20             	add    $0x20,%esp
   1d5b8:	8b 45 0c             	mov    0xc(%ebp),%eax
   1d5bb:	83 c0 04             	add    $0x4,%eax
   1d5be:	8b 10                	mov    (%eax),%edx
   1d5c0:	a1 54 82 44 00       	mov    0x448254,%eax
   1d5c5:	83 ec 0c             	sub    $0xc,%esp
   1d5c8:	68 ff 00 00 00       	push   $0xff
   1d5cd:	68 ff 00 00 00       	push   $0xff
   1d5d2:	68 ff 00 00 00       	push   $0xff
   1d5d7:	52                   	push   %edx
   1d5d8:	50                   	push   %eax
   1d5d9:	e8 d6 c3 ff ff       	call   199b4 <_ZN7Console4putsEPchhh>
   1d5de:	83 c4 20             	add    $0x20,%esp
   1d5e1:	a1 40 82 44 00       	mov    0x448240,%eax
   1d5e6:	83 c0 01             	add    $0x1,%eax
   1d5e9:	a3 40 82 44 00       	mov    %eax,0x448240
   1d5ee:	a1 40 82 44 00       	mov    0x448240,%eax
   1d5f3:	8d 14 c5 00 00 00 00 	lea    0x0(,%eax,8),%edx
   1d5fa:	a1 44 82 44 00       	mov    0x448244,%eax
   1d5ff:	83 ec 08             	sub    $0x8,%esp
   1d602:	52                   	push   %edx
   1d603:	50                   	push   %eax
   1d604:	e8 12 bf ff ff       	call   1951b <krealloc>
   1d609:	83 c4 10             	add    $0x10,%esp
   1d60c:	a3 44 82 44 00       	mov    %eax,0x448244
   1d611:	a1 44 82 44 00       	mov    0x448244,%eax
   1d616:	8b 15 40 82 44 00    	mov    0x448240,%edx
   1d61c:	81 c2 ff ff ff 1f    	add    $0x1fffffff,%edx
   1d622:	c1 e2 03             	shl    $0x3,%edx
   1d625:	8d 1c 10             	lea    (%eax,%edx,1),%ebx
   1d628:	8b 45 0c             	mov    0xc(%ebp),%eax
   1d62b:	83 c0 04             	add    $0x4,%eax
   1d62e:	8b 00                	mov    (%eax),%eax
   1d630:	83 ec 0c             	sub    $0xc,%esp
   1d633:	50                   	push   %eax
   1d634:	e8 d1 15 00 00       	call   1ec0a <_Z6strlenPc>
   1d639:	83 c4 10             	add    $0x10,%esp
   1d63c:	83 ec 0c             	sub    $0xc,%esp
   1d63f:	50                   	push   %eax
   1d640:	e8 ff b4 ff ff       	call   18b44 <kmalloc>
   1d645:	83 c4 10             	add    $0x10,%esp
   1d648:	89 03                	mov    %eax,(%ebx)
   1d64a:	8b 45 0c             	mov    0xc(%ebp),%eax
   1d64d:	83 c0 04             	add    $0x4,%eax
   1d650:	8b 10                	mov    (%eax),%edx
   1d652:	a1 44 82 44 00       	mov    0x448244,%eax
   1d657:	8b 0d 40 82 44 00    	mov    0x448240,%ecx
   1d65d:	81 c1 ff ff ff 1f    	add    $0x1fffffff,%ecx
   1d663:	c1 e1 03             	shl    $0x3,%ecx
   1d666:	01 c8                	add    %ecx,%eax
   1d668:	8b 00                	mov    (%eax),%eax
   1d66a:	83 ec 08             	sub    $0x8,%esp
   1d66d:	52                   	push   %edx
   1d66e:	50                   	push   %eax
   1d66f:	e8 ae 19 00 00       	call   1f022 <_Z6strcpyPcPKc>
   1d674:	83 c4 10             	add    $0x10,%esp
   1d677:	c6 05 50 82 44 00 01 	movb   $0x1,0x448250
   1d67e:	8b 5d fc             	mov    -0x4(%ebp),%ebx
   1d681:	c9                   	leave  
   1d682:	c3                   	ret    

0001d683 <_Z7sysinfoiPPc>:
   1d683:	55                   	push   %ebp
   1d684:	89 e5                	mov    %esp,%ebp
   1d686:	83 ec 08             	sub    $0x8,%esp
   1d689:	a1 54 82 44 00       	mov    0x448254,%eax
   1d68e:	83 ec 0c             	sub    $0xc,%esp
   1d691:	6a 00                	push   $0x0
   1d693:	68 ff 00 00 00       	push   $0xff
   1d698:	68 ff 00 00 00       	push   $0xff
   1d69d:	68 29 1d 02 00       	push   $0x21d29
   1d6a2:	50                   	push   %eax
   1d6a3:	e8 0c c3 ff ff       	call   199b4 <_ZN7Console4putsEPchhh>
   1d6a8:	83 c4 20             	add    $0x20,%esp
   1d6ab:	a1 54 82 44 00       	mov    0x448254,%eax
   1d6b0:	83 ec 0c             	sub    $0xc,%esp
   1d6b3:	6a 00                	push   $0x0
   1d6b5:	68 ff 00 00 00       	push   $0xff
   1d6ba:	68 ff 00 00 00       	push   $0xff
   1d6bf:	68 3c 1d 02 00       	push   $0x21d3c
   1d6c4:	50                   	push   %eax
   1d6c5:	e8 ea c2 ff ff       	call   199b4 <_ZN7Console4putsEPchhh>
   1d6ca:	83 c4 20             	add    $0x20,%esp
   1d6cd:	90                   	nop
   1d6ce:	c9                   	leave  
   1d6cf:	c3                   	ret    

0001d6d0 <_Z10randomtextiPPc>:
   1d6d0:	55                   	push   %ebp
   1d6d1:	89 e5                	mov    %esp,%ebp
   1d6d3:	57                   	push   %edi
   1d6d4:	56                   	push   %esi
   1d6d5:	53                   	push   %ebx
   1d6d6:	83 ec 1c             	sub    $0x1c,%esp
   1d6d9:	a1 54 82 44 00       	mov    0x448254,%eax
   1d6de:	6a 00                	push   $0x0
   1d6e0:	6a 00                	push   $0x0
   1d6e2:	6a 00                	push   $0x0
   1d6e4:	50                   	push   %eax
   1d6e5:	e8 38 c3 ff ff       	call   19a22 <_ZN7Console5clearEhhh>
   1d6ea:	83 c4 10             	add    $0x10,%esp
   1d6ed:	c7 45 e4 00 00 00 00 	movl   $0x0,-0x1c(%ebp)
   1d6f4:	81 7d e4 e7 03 00 00 	cmpl   $0x3e7,-0x1c(%ebp)
   1d6fb:	0f 8f 99 00 00 00    	jg     1d79a <_Z10randomtextiPPc+0xca>
   1d701:	e8 f2 d6 ff ff       	call   1adf8 <_Z4randv>
   1d706:	89 c1                	mov    %eax,%ecx
   1d708:	ba 81 80 80 80       	mov    $0x80808081,%edx
   1d70d:	89 c8                	mov    %ecx,%eax
   1d70f:	f7 e2                	mul    %edx
   1d711:	89 d0                	mov    %edx,%eax
   1d713:	c1 e8 07             	shr    $0x7,%eax
   1d716:	89 c2                	mov    %eax,%edx
   1d718:	c1 e2 08             	shl    $0x8,%edx
   1d71b:	29 c2                	sub    %eax,%edx
   1d71d:	89 c8                	mov    %ecx,%eax
   1d71f:	29 d0                	sub    %edx,%eax
   1d721:	0f b6 f8             	movzbl %al,%edi
   1d724:	e8 cf d6 ff ff       	call   1adf8 <_Z4randv>
   1d729:	89 c1                	mov    %eax,%ecx
   1d72b:	ba 81 80 80 80       	mov    $0x80808081,%edx
   1d730:	89 c8                	mov    %ecx,%eax
   1d732:	f7 e2                	mul    %edx
   1d734:	89 d0                	mov    %edx,%eax
   1d736:	c1 e8 07             	shr    $0x7,%eax
   1d739:	89 c2                	mov    %eax,%edx
   1d73b:	c1 e2 08             	shl    $0x8,%edx
   1d73e:	29 c2                	sub    %eax,%edx
   1d740:	89 c8                	mov    %ecx,%eax
   1d742:	29 d0                	sub    %edx,%eax
   1d744:	0f b6 f0             	movzbl %al,%esi
   1d747:	e8 ac d6 ff ff       	call   1adf8 <_Z4randv>
   1d74c:	89 c1                	mov    %eax,%ecx
   1d74e:	ba 81 80 80 80       	mov    $0x80808081,%edx
   1d753:	89 c8                	mov    %ecx,%eax
   1d755:	f7 e2                	mul    %edx
   1d757:	89 d0                	mov    %edx,%eax
   1d759:	c1 e8 07             	shr    $0x7,%eax
   1d75c:	89 c2                	mov    %eax,%edx
   1d75e:	c1 e2 08             	shl    $0x8,%edx
   1d761:	29 c2                	sub    %eax,%edx
   1d763:	89 c8                	mov    %ecx,%eax
   1d765:	29 d0                	sub    %edx,%eax
   1d767:	0f b6 d8             	movzbl %al,%ebx
   1d76a:	e8 89 d6 ff ff       	call   1adf8 <_Z4randv>
   1d76f:	0f be c0             	movsbl %al,%eax
   1d772:	83 e0 7f             	and    $0x7f,%eax
   1d775:	89 c2                	mov    %eax,%edx
   1d777:	a1 54 82 44 00       	mov    0x448254,%eax
   1d77c:	83 ec 0c             	sub    $0xc,%esp
   1d77f:	57                   	push   %edi
   1d780:	56                   	push   %esi
   1d781:	53                   	push   %ebx
   1d782:	52                   	push   %edx
   1d783:	50                   	push   %eax
   1d784:	e8 95 c0 ff ff       	call   1981e <_ZN7Console4putcEchhh>
   1d789:	83 c4 20             	add    $0x20,%esp
   1d78c:	e8 89 28 00 00       	call   2001a <_Z13screen_updatev>
   1d791:	83 45 e4 01          	addl   $0x1,-0x1c(%ebp)
   1d795:	e9 5a ff ff ff       	jmp    1d6f4 <_Z10randomtextiPPc+0x24>
   1d79a:	90                   	nop
   1d79b:	8d 65 f4             	lea    -0xc(%ebp),%esp
   1d79e:	5b                   	pop    %ebx
   1d79f:	5e                   	pop    %esi
   1d7a0:	5f                   	pop    %edi
   1d7a1:	5d                   	pop    %ebp
   1d7a2:	c3                   	ret    

0001d7a3 <_Z2lsiPPc>:
   1d7a3:	55                   	push   %ebp
   1d7a4:	89 e5                	mov    %esp,%ebp
   1d7a6:	83 ec 08             	sub    $0x8,%esp
   1d7a9:	a1 54 82 44 00       	mov    0x448254,%eax
   1d7ae:	83 ec 0c             	sub    $0xc,%esp
   1d7b1:	68 ff 00 00 00       	push   $0xff
   1d7b6:	68 ff 00 00 00       	push   $0xff
   1d7bb:	68 ff 00 00 00       	push   $0xff
   1d7c0:	68 c3 1d 02 00       	push   $0x21dc3
   1d7c5:	50                   	push   %eax
   1d7c6:	e8 e9 c1 ff ff       	call   199b4 <_ZN7Console4putsEPchhh>
   1d7cb:	83 c4 20             	add    $0x20,%esp
   1d7ce:	90                   	nop
   1d7cf:	c9                   	leave  
   1d7d0:	c3                   	ret    

0001d7d1 <_Z7randintiPPc>:
   1d7d1:	55                   	push   %ebp
   1d7d2:	89 e5                	mov    %esp,%ebp
   1d7d4:	83 ec 18             	sub    $0x18,%esp
   1d7d7:	83 ec 0c             	sub    $0xc,%esp
   1d7da:	6a 0c                	push   $0xc
   1d7dc:	e8 63 b3 ff ff       	call   18b44 <kmalloc>
   1d7e1:	83 c4 10             	add    $0x10,%esp
   1d7e4:	89 45 f4             	mov    %eax,-0xc(%ebp)
   1d7e7:	a1 54 82 44 00       	mov    0x448254,%eax
   1d7ec:	83 ec 0c             	sub    $0xc,%esp
   1d7ef:	68 ff 00 00 00       	push   $0xff
   1d7f4:	68 ff 00 00 00       	push   $0xff
   1d7f9:	68 ff 00 00 00       	push   $0xff
   1d7fe:	6a 0a                	push   $0xa
   1d800:	50                   	push   %eax
   1d801:	e8 18 c0 ff ff       	call   1981e <_ZN7Console4putcEchhh>
   1d806:	83 c4 20             	add    $0x20,%esp
   1d809:	e8 ea d5 ff ff       	call   1adf8 <_Z4randv>
   1d80e:	89 c1                	mov    %eax,%ecx
   1d810:	ba 1f 85 eb 51       	mov    $0x51eb851f,%edx
   1d815:	89 c8                	mov    %ecx,%eax
   1d817:	f7 e2                	mul    %edx
   1d819:	89 d0                	mov    %edx,%eax
   1d81b:	c1 e8 05             	shr    $0x5,%eax
   1d81e:	6b c0 64             	imul   $0x64,%eax,%eax
   1d821:	29 c1                	sub    %eax,%ecx
   1d823:	89 c8                	mov    %ecx,%eax
   1d825:	83 ec 04             	sub    $0x4,%esp
   1d828:	6a 0a                	push   $0xa
   1d82a:	ff 75 f4             	pushl  -0xc(%ebp)
   1d82d:	50                   	push   %eax
   1d82e:	e8 87 16 00 00       	call   1eeba <_Z4itoamPci>
   1d833:	83 c4 10             	add    $0x10,%esp
   1d836:	89 c2                	mov    %eax,%edx
   1d838:	a1 54 82 44 00       	mov    0x448254,%eax
   1d83d:	83 ec 0c             	sub    $0xc,%esp
   1d840:	68 ff 00 00 00       	push   $0xff
   1d845:	68 ff 00 00 00       	push   $0xff
   1d84a:	68 ff 00 00 00       	push   $0xff
   1d84f:	52                   	push   %edx
   1d850:	50                   	push   %eax
   1d851:	e8 5e c1 ff ff       	call   199b4 <_ZN7Console4putsEPchhh>
   1d856:	83 c4 20             	add    $0x20,%esp
   1d859:	83 ec 0c             	sub    $0xc,%esp
   1d85c:	ff 75 f4             	pushl  -0xc(%ebp)
   1d85f:	e8 1f ba ff ff       	call   19283 <kfree>
   1d864:	83 c4 10             	add    $0x10,%esp
   1d867:	90                   	nop
   1d868:	c9                   	leave  
   1d869:	c3                   	ret    

0001d86a <_Z7randhexiPPc>:
   1d86a:	55                   	push   %ebp
   1d86b:	89 e5                	mov    %esp,%ebp
   1d86d:	53                   	push   %ebx
   1d86e:	83 ec 14             	sub    $0x14,%esp
   1d871:	83 ec 0c             	sub    $0xc,%esp
   1d874:	6a 0c                	push   $0xc
   1d876:	e8 c9 b2 ff ff       	call   18b44 <kmalloc>
   1d87b:	83 c4 10             	add    $0x10,%esp
   1d87e:	89 45 f4             	mov    %eax,-0xc(%ebp)
   1d881:	a1 54 82 44 00       	mov    0x448254,%eax
   1d886:	83 ec 0c             	sub    $0xc,%esp
   1d889:	68 ff 00 00 00       	push   $0xff
   1d88e:	68 ff 00 00 00       	push   $0xff
   1d893:	68 ff 00 00 00       	push   $0xff
   1d898:	68 d7 1d 02 00       	push   $0x21dd7
   1d89d:	50                   	push   %eax
   1d89e:	e8 11 c1 ff ff       	call   199b4 <_ZN7Console4putsEPchhh>
   1d8a3:	83 c4 20             	add    $0x20,%esp
   1d8a6:	e8 4d d5 ff ff       	call   1adf8 <_Z4randv>
   1d8ab:	89 c3                	mov    %eax,%ebx
   1d8ad:	e8 46 d5 ff ff       	call   1adf8 <_Z4randv>
   1d8b2:	0f af c3             	imul   %ebx,%eax
   1d8b5:	83 ec 04             	sub    $0x4,%esp
   1d8b8:	6a 10                	push   $0x10
   1d8ba:	ff 75 f4             	pushl  -0xc(%ebp)
   1d8bd:	50                   	push   %eax
   1d8be:	e8 f7 15 00 00       	call   1eeba <_Z4itoamPci>
   1d8c3:	83 c4 10             	add    $0x10,%esp
   1d8c6:	89 c2                	mov    %eax,%edx
   1d8c8:	a1 54 82 44 00       	mov    0x448254,%eax
   1d8cd:	83 ec 0c             	sub    $0xc,%esp
   1d8d0:	68 ff 00 00 00       	push   $0xff
   1d8d5:	68 ff 00 00 00       	push   $0xff
   1d8da:	68 ff 00 00 00       	push   $0xff
   1d8df:	52                   	push   %edx
   1d8e0:	50                   	push   %eax
   1d8e1:	e8 ce c0 ff ff       	call   199b4 <_ZN7Console4putsEPchhh>
   1d8e6:	83 c4 20             	add    $0x20,%esp
   1d8e9:	83 ec 0c             	sub    $0xc,%esp
   1d8ec:	ff 75 f4             	pushl  -0xc(%ebp)
   1d8ef:	e8 8f b9 ff ff       	call   19283 <kfree>
   1d8f4:	83 c4 10             	add    $0x10,%esp
   1d8f7:	90                   	nop
   1d8f8:	8b 5d fc             	mov    -0x4(%ebp),%ebx
   1d8fb:	c9                   	leave  
   1d8fc:	c3                   	ret    

0001d8fd <_Z8commandsiPPc>:
   1d8fd:	55                   	push   %ebp
   1d8fe:	89 e5                	mov    %esp,%ebp
   1d900:	83 ec 18             	sub    $0x18,%esp
   1d903:	a1 54 82 44 00       	mov    0x448254,%eax
   1d908:	83 ec 0c             	sub    $0xc,%esp
   1d90b:	68 ff 00 00 00       	push   $0xff
   1d910:	68 ff 00 00 00       	push   $0xff
   1d915:	68 ff 00 00 00       	push   $0xff
   1d91a:	6a 0a                	push   $0xa
   1d91c:	50                   	push   %eax
   1d91d:	e8 fc be ff ff       	call   1981e <_ZN7Console4putcEchhh>
   1d922:	83 c4 20             	add    $0x20,%esp
   1d925:	c7 45 f4 00 00 00 00 	movl   $0x0,-0xc(%ebp)
   1d92c:	83 7d f4 09          	cmpl   $0x9,-0xc(%ebp)
   1d930:	7f 53                	jg     1d985 <_Z8commandsiPPc+0x88>
   1d932:	8b 45 f4             	mov    -0xc(%ebp),%eax
   1d935:	8b 14 c5 40 1c 02 00 	mov    0x21c40(,%eax,8),%edx
   1d93c:	a1 54 82 44 00       	mov    0x448254,%eax
   1d941:	83 ec 0c             	sub    $0xc,%esp
   1d944:	68 ff 00 00 00       	push   $0xff
   1d949:	68 ff 00 00 00       	push   $0xff
   1d94e:	68 ff 00 00 00       	push   $0xff
   1d953:	52                   	push   %edx
   1d954:	50                   	push   %eax
   1d955:	e8 5a c0 ff ff       	call   199b4 <_ZN7Console4putsEPchhh>
   1d95a:	83 c4 20             	add    $0x20,%esp
   1d95d:	a1 54 82 44 00       	mov    0x448254,%eax
   1d962:	83 ec 0c             	sub    $0xc,%esp
   1d965:	68 ff 00 00 00       	push   $0xff
   1d96a:	68 ff 00 00 00       	push   $0xff
   1d96f:	68 ff 00 00 00       	push   $0xff
   1d974:	6a 0a                	push   $0xa
   1d976:	50                   	push   %eax
   1d977:	e8 a2 be ff ff       	call   1981e <_ZN7Console4putcEchhh>
   1d97c:	83 c4 20             	add    $0x20,%esp
   1d97f:	83 45 f4 01          	addl   $0x1,-0xc(%ebp)
   1d983:	eb a7                	jmp    1d92c <_Z8commandsiPPc+0x2f>
   1d985:	90                   	nop
   1d986:	c9                   	leave  
   1d987:	c3                   	ret    

0001d988 <_ZeqRK8Vector2iS1_>:
   1d988:	55                   	push   %ebp
   1d989:	89 e5                	mov    %esp,%ebp
   1d98b:	8b 45 08             	mov    0x8(%ebp),%eax
   1d98e:	8b 10                	mov    (%eax),%edx
   1d990:	8b 45 0c             	mov    0xc(%ebp),%eax
   1d993:	8b 00                	mov    (%eax),%eax
   1d995:	39 c2                	cmp    %eax,%edx
   1d997:	75 17                	jne    1d9b0 <_ZeqRK8Vector2iS1_+0x28>
   1d999:	8b 45 08             	mov    0x8(%ebp),%eax
   1d99c:	8b 50 04             	mov    0x4(%eax),%edx
   1d99f:	8b 45 0c             	mov    0xc(%ebp),%eax
   1d9a2:	8b 40 04             	mov    0x4(%eax),%eax
   1d9a5:	39 c2                	cmp    %eax,%edx
   1d9a7:	75 07                	jne    1d9b0 <_ZeqRK8Vector2iS1_+0x28>
   1d9a9:	b8 01 00 00 00       	mov    $0x1,%eax
   1d9ae:	eb 05                	jmp    1d9b5 <_ZeqRK8Vector2iS1_+0x2d>
   1d9b0:	b8 00 00 00 00       	mov    $0x0,%eax
   1d9b5:	5d                   	pop    %ebp
   1d9b6:	c3                   	ret    

0001d9b7 <_Z14fps_timer_tickt>:
   1d9b7:	55                   	push   %ebp
   1d9b8:	89 e5                	mov    %esp,%ebp
   1d9ba:	83 ec 04             	sub    $0x4,%esp
   1d9bd:	8b 45 08             	mov    0x8(%ebp),%eax
   1d9c0:	66 89 45 fc          	mov    %ax,-0x4(%ebp)
   1d9c4:	c6 05 58 82 44 00 01 	movb   $0x1,0x448258
   1d9cb:	90                   	nop
   1d9cc:	c9                   	leave  
   1d9cd:	c3                   	ret    

0001d9ce <_ZN5SnakeC1Eiiii>:
   1d9ce:	55                   	push   %ebp
   1d9cf:	89 e5                	mov    %esp,%ebp
   1d9d1:	57                   	push   %edi
   1d9d2:	56                   	push   %esi
   1d9d3:	53                   	push   %ebx
   1d9d4:	83 ec 2c             	sub    $0x2c,%esp
   1d9d7:	8b 45 08             	mov    0x8(%ebp),%eax
   1d9da:	c7 00 10 00 00 00    	movl   $0x10,(%eax)
   1d9e0:	8b 45 08             	mov    0x8(%ebp),%eax
   1d9e3:	c6 40 1c aa          	movb   $0xaa,0x1c(%eax)
   1d9e7:	8b 45 08             	mov    0x8(%ebp),%eax
   1d9ea:	c6 40 1d c8          	movb   $0xc8,0x1d(%eax)
   1d9ee:	8b 45 08             	mov    0x8(%ebp),%eax
   1d9f1:	c6 40 1e aa          	movb   $0xaa,0x1e(%eax)
   1d9f5:	8b 45 08             	mov    0x8(%ebp),%eax
   1d9f8:	c6 40 1f 60          	movb   $0x60,0x1f(%eax)
   1d9fc:	8b 45 08             	mov    0x8(%ebp),%eax
   1d9ff:	c6 40 20 60          	movb   $0x60,0x20(%eax)
   1da03:	8b 45 08             	mov    0x8(%ebp),%eax
   1da06:	c6 40 21 60          	movb   $0x60,0x21(%eax)
   1da0a:	8b 45 08             	mov    0x8(%ebp),%eax
   1da0d:	83 c0 24             	add    $0x24,%eax
   1da10:	83 ec 0c             	sub    $0xc,%esp
   1da13:	50                   	push   %eax
   1da14:	e8 87 32 00 00       	call   20ca0 <_ZN4ListI8Vector2iEC1Ev>
   1da19:	83 c4 10             	add    $0x10,%esp
   1da1c:	8b 45 08             	mov    0x8(%ebp),%eax
   1da1f:	c6 40 40 03          	movb   $0x3,0x40(%eax)
   1da23:	8b 55 08             	mov    0x8(%ebp),%edx
   1da26:	8b 45 0c             	mov    0xc(%ebp),%eax
   1da29:	89 42 04             	mov    %eax,0x4(%edx)
   1da2c:	8b 55 08             	mov    0x8(%ebp),%edx
   1da2f:	8b 45 10             	mov    0x10(%ebp),%eax
   1da32:	89 42 08             	mov    %eax,0x8(%edx)
   1da35:	8b 55 08             	mov    0x8(%ebp),%edx
   1da38:	8b 45 14             	mov    0x14(%ebp),%eax
   1da3b:	89 42 0c             	mov    %eax,0xc(%edx)
   1da3e:	8b 55 08             	mov    0x8(%ebp),%edx
   1da41:	8b 45 18             	mov    0x18(%ebp),%eax
   1da44:	89 42 10             	mov    %eax,0x10(%edx)
   1da47:	8b 45 08             	mov    0x8(%ebp),%eax
   1da4a:	8b 08                	mov    (%eax),%ecx
   1da4c:	8b 45 14             	mov    0x14(%ebp),%eax
   1da4f:	99                   	cltd   
   1da50:	f7 f9                	idiv   %ecx
   1da52:	8b 45 14             	mov    0x14(%ebp),%eax
   1da55:	29 d0                	sub    %edx,%eax
   1da57:	89 c1                	mov    %eax,%ecx
   1da59:	8b 45 08             	mov    0x8(%ebp),%eax
   1da5c:	8b 38                	mov    (%eax),%edi
   1da5e:	89 c8                	mov    %ecx,%eax
   1da60:	99                   	cltd   
   1da61:	f7 ff                	idiv   %edi
   1da63:	89 c2                	mov    %eax,%edx
   1da65:	8b 45 08             	mov    0x8(%ebp),%eax
   1da68:	89 50 14             	mov    %edx,0x14(%eax)
   1da6b:	8b 45 08             	mov    0x8(%ebp),%eax
   1da6e:	8b 08                	mov    (%eax),%ecx
   1da70:	8b 45 18             	mov    0x18(%ebp),%eax
   1da73:	99                   	cltd   
   1da74:	f7 f9                	idiv   %ecx
   1da76:	8b 45 18             	mov    0x18(%ebp),%eax
   1da79:	29 d0                	sub    %edx,%eax
   1da7b:	89 c1                	mov    %eax,%ecx
   1da7d:	8b 45 08             	mov    0x8(%ebp),%eax
   1da80:	8b 38                	mov    (%eax),%edi
   1da82:	89 c8                	mov    %ecx,%eax
   1da84:	99                   	cltd   
   1da85:	f7 ff                	idiv   %edi
   1da87:	89 c2                	mov    %eax,%edx
   1da89:	8b 45 08             	mov    0x8(%ebp),%eax
   1da8c:	89 50 18             	mov    %edx,0x18(%eax)
   1da8f:	83 ec 0c             	sub    $0xc,%esp
   1da92:	68 b7 d9 01 00       	push   $0x1d9b7
   1da97:	e8 c1 16 00 00       	call   1f15d <_Z23timer_register_callbackPFvtE>
   1da9c:	83 c4 10             	add    $0x10,%esp
   1da9f:	c7 45 d0 06 00 00 00 	movl   $0x6,-0x30(%ebp)
   1daa6:	c7 45 d4 04 00 00 00 	movl   $0x4,-0x2c(%ebp)
   1daad:	8b 45 08             	mov    0x8(%ebp),%eax
   1dab0:	83 c0 24             	add    $0x24,%eax
   1dab3:	83 ec 04             	sub    $0x4,%esp
   1dab6:	ff 75 d4             	pushl  -0x2c(%ebp)
   1dab9:	ff 75 d0             	pushl  -0x30(%ebp)
   1dabc:	50                   	push   %eax
   1dabd:	e8 12 32 00 00       	call   20cd4 <_ZN4ListI8Vector2iE8add_backES0_>
   1dac2:	83 c4 10             	add    $0x10,%esp
   1dac5:	c7 45 d8 05 00 00 00 	movl   $0x5,-0x28(%ebp)
   1dacc:	c7 45 dc 04 00 00 00 	movl   $0x4,-0x24(%ebp)
   1dad3:	8b 45 08             	mov    0x8(%ebp),%eax
   1dad6:	83 c0 24             	add    $0x24,%eax
   1dad9:	83 ec 04             	sub    $0x4,%esp
   1dadc:	ff 75 dc             	pushl  -0x24(%ebp)
   1dadf:	ff 75 d8             	pushl  -0x28(%ebp)
   1dae2:	50                   	push   %eax
   1dae3:	e8 ec 31 00 00       	call   20cd4 <_ZN4ListI8Vector2iE8add_backES0_>
   1dae8:	83 c4 10             	add    $0x10,%esp
   1daeb:	c7 45 e0 04 00 00 00 	movl   $0x4,-0x20(%ebp)
   1daf2:	c7 45 e4 04 00 00 00 	movl   $0x4,-0x1c(%ebp)
   1daf9:	8b 45 08             	mov    0x8(%ebp),%eax
   1dafc:	83 c0 24             	add    $0x24,%eax
   1daff:	83 ec 04             	sub    $0x4,%esp
   1db02:	ff 75 e4             	pushl  -0x1c(%ebp)
   1db05:	ff 75 e0             	pushl  -0x20(%ebp)
   1db08:	50                   	push   %eax
   1db09:	e8 c6 31 00 00       	call   20cd4 <_ZN4ListI8Vector2iE8add_backES0_>
   1db0e:	83 c4 10             	add    $0x10,%esp
   1db11:	bb 03 00 00 00       	mov    $0x3,%ebx
   1db16:	be 04 00 00 00       	mov    $0x4,%esi
   1db1b:	8b 45 08             	mov    0x8(%ebp),%eax
   1db1e:	83 c0 24             	add    $0x24,%eax
   1db21:	83 ec 04             	sub    $0x4,%esp
   1db24:	56                   	push   %esi
   1db25:	53                   	push   %ebx
   1db26:	50                   	push   %eax
   1db27:	e8 a8 31 00 00       	call   20cd4 <_ZN4ListI8Vector2iE8add_backES0_>
   1db2c:	83 c4 10             	add    $0x10,%esp
   1db2f:	e8 c4 d2 ff ff       	call   1adf8 <_Z4randv>
   1db34:	89 c2                	mov    %eax,%edx
   1db36:	8b 45 08             	mov    0x8(%ebp),%eax
   1db39:	8b 40 14             	mov    0x14(%eax),%eax
   1db3c:	89 c1                	mov    %eax,%ecx
   1db3e:	89 d0                	mov    %edx,%eax
   1db40:	ba 00 00 00 00       	mov    $0x0,%edx
   1db45:	f7 f1                	div    %ecx
   1db47:	89 d0                	mov    %edx,%eax
   1db49:	89 c2                	mov    %eax,%edx
   1db4b:	8b 45 08             	mov    0x8(%ebp),%eax
   1db4e:	89 50 30             	mov    %edx,0x30(%eax)
   1db51:	e8 a2 d2 ff ff       	call   1adf8 <_Z4randv>
   1db56:	89 c2                	mov    %eax,%edx
   1db58:	8b 45 08             	mov    0x8(%ebp),%eax
   1db5b:	8b 40 18             	mov    0x18(%eax),%eax
   1db5e:	89 c1                	mov    %eax,%ecx
   1db60:	89 d0                	mov    %edx,%eax
   1db62:	ba 00 00 00 00       	mov    $0x0,%edx
   1db67:	f7 f1                	div    %ecx
   1db69:	89 d0                	mov    %edx,%eax
   1db6b:	89 c2                	mov    %eax,%edx
   1db6d:	8b 45 08             	mov    0x8(%ebp),%eax
   1db70:	89 50 34             	mov    %edx,0x34(%eax)
   1db73:	90                   	nop
   1db74:	8d 65 f4             	lea    -0xc(%ebp),%esp
   1db77:	5b                   	pop    %ebx
   1db78:	5e                   	pop    %esi
   1db79:	5f                   	pop    %edi
   1db7a:	5d                   	pop    %ebp
   1db7b:	c3                   	ret    

0001db7c <_ZN5Snake6UpdateEv>:
   1db7c:	55                   	push   %ebp
   1db7d:	89 e5                	mov    %esp,%ebp
   1db7f:	56                   	push   %esi
   1db80:	53                   	push   %ebx
   1db81:	81 ec c0 00 00 00    	sub    $0xc0,%esp
   1db87:	e8 48 d2 ff ff       	call   1add4 <_Z7get_keyv>
   1db8c:	3c 0a                	cmp    $0xa,%al
   1db8e:	0f 94 c0             	sete   %al
   1db91:	84 c0                	test   %al,%al
   1db93:	74 0e                	je     1dba3 <_ZN5Snake6UpdateEv+0x27>
   1db95:	83 ec 0c             	sub    $0xc,%esp
   1db98:	ff 75 08             	pushl  0x8(%ebp)
   1db9b:	e8 90 08 00 00       	call   1e430 <_ZN5Snake5ResetEv>
   1dba0:	83 c4 10             	add    $0x10,%esp
   1dba3:	8b 45 08             	mov    0x8(%ebp),%eax
   1dba6:	0f b6 40 41          	movzbl 0x41(%eax),%eax
   1dbaa:	84 c0                	test   %al,%al
   1dbac:	0f 85 1f 05 00 00    	jne    1e0d1 <_ZN5Snake6UpdateEv+0x555>
   1dbb2:	0f b6 05 58 82 44 00 	movzbl 0x448258,%eax
   1dbb9:	83 f0 01             	xor    $0x1,%eax
   1dbbc:	84 c0                	test   %al,%al
   1dbbe:	0f 85 10 05 00 00    	jne    1e0d4 <_ZN5Snake6UpdateEv+0x558>
   1dbc4:	c6 05 58 82 44 00 00 	movb   $0x0,0x448258
   1dbcb:	e8 e7 d1 ff ff       	call   1adb7 <_Z11key_updatedv>
   1dbd0:	84 c0                	test   %al,%al
   1dbd2:	74 7f                	je     1dc53 <_ZN5Snake6UpdateEv+0xd7>
   1dbd4:	e8 fb d1 ff ff       	call   1add4 <_Z7get_keyv>
   1dbd9:	0f be c0             	movsbl %al,%eax
   1dbdc:	83 f8 64             	cmp    $0x64,%eax
   1dbdf:	74 54                	je     1dc35 <_ZN5Snake6UpdateEv+0xb9>
   1dbe1:	83 f8 64             	cmp    $0x64,%eax
   1dbe4:	7f 07                	jg     1dbed <_ZN5Snake6UpdateEv+0x71>
   1dbe6:	83 f8 61             	cmp    $0x61,%eax
   1dbe9:	74 22                	je     1dc0d <_ZN5Snake6UpdateEv+0x91>
   1dbeb:	eb 66                	jmp    1dc53 <_ZN5Snake6UpdateEv+0xd7>
   1dbed:	83 f8 73             	cmp    $0x73,%eax
   1dbf0:	74 2f                	je     1dc21 <_ZN5Snake6UpdateEv+0xa5>
   1dbf2:	83 f8 77             	cmp    $0x77,%eax
   1dbf5:	74 02                	je     1dbf9 <_ZN5Snake6UpdateEv+0x7d>
   1dbf7:	eb 5a                	jmp    1dc53 <_ZN5Snake6UpdateEv+0xd7>
   1dbf9:	8b 45 08             	mov    0x8(%ebp),%eax
   1dbfc:	0f b6 40 40          	movzbl 0x40(%eax),%eax
   1dc00:	3c 01                	cmp    $0x1,%al
   1dc02:	74 45                	je     1dc49 <_ZN5Snake6UpdateEv+0xcd>
   1dc04:	8b 45 08             	mov    0x8(%ebp),%eax
   1dc07:	c6 40 40 00          	movb   $0x0,0x40(%eax)
   1dc0b:	eb 3c                	jmp    1dc49 <_ZN5Snake6UpdateEv+0xcd>
   1dc0d:	8b 45 08             	mov    0x8(%ebp),%eax
   1dc10:	0f b6 40 40          	movzbl 0x40(%eax),%eax
   1dc14:	3c 03                	cmp    $0x3,%al
   1dc16:	74 34                	je     1dc4c <_ZN5Snake6UpdateEv+0xd0>
   1dc18:	8b 45 08             	mov    0x8(%ebp),%eax
   1dc1b:	c6 40 40 02          	movb   $0x2,0x40(%eax)
   1dc1f:	eb 2b                	jmp    1dc4c <_ZN5Snake6UpdateEv+0xd0>
   1dc21:	8b 45 08             	mov    0x8(%ebp),%eax
   1dc24:	0f b6 40 40          	movzbl 0x40(%eax),%eax
   1dc28:	84 c0                	test   %al,%al
   1dc2a:	74 23                	je     1dc4f <_ZN5Snake6UpdateEv+0xd3>
   1dc2c:	8b 45 08             	mov    0x8(%ebp),%eax
   1dc2f:	c6 40 40 01          	movb   $0x1,0x40(%eax)
   1dc33:	eb 1a                	jmp    1dc4f <_ZN5Snake6UpdateEv+0xd3>
   1dc35:	8b 45 08             	mov    0x8(%ebp),%eax
   1dc38:	0f b6 40 40          	movzbl 0x40(%eax),%eax
   1dc3c:	3c 02                	cmp    $0x2,%al
   1dc3e:	74 12                	je     1dc52 <_ZN5Snake6UpdateEv+0xd6>
   1dc40:	8b 45 08             	mov    0x8(%ebp),%eax
   1dc43:	c6 40 40 03          	movb   $0x3,0x40(%eax)
   1dc47:	eb 09                	jmp    1dc52 <_ZN5Snake6UpdateEv+0xd6>
   1dc49:	90                   	nop
   1dc4a:	eb 07                	jmp    1dc53 <_ZN5Snake6UpdateEv+0xd7>
   1dc4c:	90                   	nop
   1dc4d:	eb 04                	jmp    1dc53 <_ZN5Snake6UpdateEv+0xd7>
   1dc4f:	90                   	nop
   1dc50:	eb 01                	jmp    1dc53 <_ZN5Snake6UpdateEv+0xd7>
   1dc52:	90                   	nop
   1dc53:	8b 45 08             	mov    0x8(%ebp),%eax
   1dc56:	0f b6 40 40          	movzbl 0x40(%eax),%eax
   1dc5a:	0f be c0             	movsbl %al,%eax
   1dc5d:	83 f8 01             	cmp    $0x1,%eax
   1dc60:	0f 84 fd 00 00 00    	je     1dd63 <_ZN5Snake6UpdateEv+0x1e7>
   1dc66:	83 f8 01             	cmp    $0x1,%eax
   1dc69:	7f 09                	jg     1dc74 <_ZN5Snake6UpdateEv+0xf8>
   1dc6b:	85 c0                	test   %eax,%eax
   1dc6d:	74 1c                	je     1dc8b <_ZN5Snake6UpdateEv+0x10f>
   1dc6f:	e9 3c 03 00 00       	jmp    1dfb0 <_ZN5Snake6UpdateEv+0x434>
   1dc74:	83 f8 02             	cmp    $0x2,%eax
   1dc77:	0f 84 a2 01 00 00    	je     1de1f <_ZN5Snake6UpdateEv+0x2a3>
   1dc7d:	83 f8 03             	cmp    $0x3,%eax
   1dc80:	0f 84 5c 02 00 00    	je     1dee2 <_ZN5Snake6UpdateEv+0x366>
   1dc86:	e9 25 03 00 00       	jmp    1dfb0 <_ZN5Snake6UpdateEv+0x434>
   1dc8b:	8b 45 08             	mov    0x8(%ebp),%eax
   1dc8e:	83 c0 24             	add    $0x24,%eax
   1dc91:	83 ec 0c             	sub    $0xc,%esp
   1dc94:	50                   	push   %eax
   1dc95:	e8 ea 30 00 00       	call   20d84 <_ZN4ListI8Vector2iE10get_lengthEv>
   1dc9a:	83 c4 10             	add    $0x10,%esp
   1dc9d:	83 e8 01             	sub    $0x1,%eax
   1dca0:	89 c1                	mov    %eax,%ecx
   1dca2:	8b 45 08             	mov    0x8(%ebp),%eax
   1dca5:	8d 50 24             	lea    0x24(%eax),%edx
   1dca8:	8d 85 5c ff ff ff    	lea    -0xa4(%ebp),%eax
   1dcae:	83 ec 04             	sub    $0x4,%esp
   1dcb1:	51                   	push   %ecx
   1dcb2:	52                   	push   %edx
   1dcb3:	50                   	push   %eax
   1dcb4:	e8 d7 30 00 00       	call   20d90 <_ZN4ListI8Vector2iE9remove_atEj>
   1dcb9:	83 c4 0c             	add    $0xc,%esp
   1dcbc:	8b 45 08             	mov    0x8(%ebp),%eax
   1dcbf:	8d 50 24             	lea    0x24(%eax),%edx
   1dcc2:	8d 85 64 ff ff ff    	lea    -0x9c(%ebp),%eax
   1dcc8:	83 ec 04             	sub    $0x4,%esp
   1dccb:	6a 00                	push   $0x0
   1dccd:	52                   	push   %edx
   1dcce:	50                   	push   %eax
   1dccf:	e8 a4 31 00 00       	call   20e78 <_ZN4ListI8Vector2iEixEj>
   1dcd4:	83 c4 0c             	add    $0xc,%esp
   1dcd7:	8b 85 64 ff ff ff    	mov    -0x9c(%ebp),%eax
   1dcdd:	89 85 38 ff ff ff    	mov    %eax,-0xc8(%ebp)
   1dce3:	8b 45 08             	mov    0x8(%ebp),%eax
   1dce6:	8d 50 24             	lea    0x24(%eax),%edx
   1dce9:	8d 85 6c ff ff ff    	lea    -0x94(%ebp),%eax
   1dcef:	83 ec 04             	sub    $0x4,%esp
   1dcf2:	6a 00                	push   $0x0
   1dcf4:	52                   	push   %edx
   1dcf5:	50                   	push   %eax
   1dcf6:	e8 7d 31 00 00       	call   20e78 <_ZN4ListI8Vector2iEixEj>
   1dcfb:	83 c4 0c             	add    $0xc,%esp
   1dcfe:	8b 85 70 ff ff ff    	mov    -0x90(%ebp),%eax
   1dd04:	83 e8 01             	sub    $0x1,%eax
   1dd07:	89 85 3c ff ff ff    	mov    %eax,-0xc4(%ebp)
   1dd0d:	8b 45 08             	mov    0x8(%ebp),%eax
   1dd10:	83 c0 24             	add    $0x24,%eax
   1dd13:	83 ec 04             	sub    $0x4,%esp
   1dd16:	ff b5 3c ff ff ff    	pushl  -0xc4(%ebp)
   1dd1c:	ff b5 38 ff ff ff    	pushl  -0xc8(%ebp)
   1dd22:	50                   	push   %eax
   1dd23:	e8 b2 31 00 00       	call   20eda <_ZN4ListI8Vector2iE9add_frontES0_>
   1dd28:	83 c4 10             	add    $0x10,%esp
   1dd2b:	8b 45 08             	mov    0x8(%ebp),%eax
   1dd2e:	8d 50 24             	lea    0x24(%eax),%edx
   1dd31:	8d 85 74 ff ff ff    	lea    -0x8c(%ebp),%eax
   1dd37:	83 ec 04             	sub    $0x4,%esp
   1dd3a:	6a 00                	push   $0x0
   1dd3c:	52                   	push   %edx
   1dd3d:	50                   	push   %eax
   1dd3e:	e8 35 31 00 00       	call   20e78 <_ZN4ListI8Vector2iEixEj>
   1dd43:	83 c4 0c             	add    $0xc,%esp
   1dd46:	8b 85 78 ff ff ff    	mov    -0x88(%ebp),%eax
   1dd4c:	c1 e8 1f             	shr    $0x1f,%eax
   1dd4f:	84 c0                	test   %al,%al
   1dd51:	0f 84 4f 02 00 00    	je     1dfa6 <_ZN5Snake6UpdateEv+0x42a>
   1dd57:	8b 45 08             	mov    0x8(%ebp),%eax
   1dd5a:	c6 40 41 01          	movb   $0x1,0x41(%eax)
   1dd5e:	e9 43 02 00 00       	jmp    1dfa6 <_ZN5Snake6UpdateEv+0x42a>
   1dd63:	8b 45 08             	mov    0x8(%ebp),%eax
   1dd66:	83 c0 24             	add    $0x24,%eax
   1dd69:	83 ec 0c             	sub    $0xc,%esp
   1dd6c:	50                   	push   %eax
   1dd6d:	e8 12 30 00 00       	call   20d84 <_ZN4ListI8Vector2iE10get_lengthEv>
   1dd72:	83 c4 10             	add    $0x10,%esp
   1dd75:	83 e8 01             	sub    $0x1,%eax
   1dd78:	89 c1                	mov    %eax,%ecx
   1dd7a:	8b 45 08             	mov    0x8(%ebp),%eax
   1dd7d:	8d 50 24             	lea    0x24(%eax),%edx
   1dd80:	8d 85 7c ff ff ff    	lea    -0x84(%ebp),%eax
   1dd86:	83 ec 04             	sub    $0x4,%esp
   1dd89:	51                   	push   %ecx
   1dd8a:	52                   	push   %edx
   1dd8b:	50                   	push   %eax
   1dd8c:	e8 ff 2f 00 00       	call   20d90 <_ZN4ListI8Vector2iE9remove_atEj>
   1dd91:	83 c4 0c             	add    $0xc,%esp
   1dd94:	8b 45 08             	mov    0x8(%ebp),%eax
   1dd97:	8d 50 24             	lea    0x24(%eax),%edx
   1dd9a:	8d 45 84             	lea    -0x7c(%ebp),%eax
   1dd9d:	83 ec 04             	sub    $0x4,%esp
   1dda0:	6a 00                	push   $0x0
   1dda2:	52                   	push   %edx
   1dda3:	50                   	push   %eax
   1dda4:	e8 cf 30 00 00       	call   20e78 <_ZN4ListI8Vector2iEixEj>
   1dda9:	83 c4 0c             	add    $0xc,%esp
   1ddac:	8b 45 84             	mov    -0x7c(%ebp),%eax
   1ddaf:	89 c3                	mov    %eax,%ebx
   1ddb1:	8b 45 08             	mov    0x8(%ebp),%eax
   1ddb4:	8d 50 24             	lea    0x24(%eax),%edx
   1ddb7:	8d 45 8c             	lea    -0x74(%ebp),%eax
   1ddba:	83 ec 04             	sub    $0x4,%esp
   1ddbd:	6a 00                	push   $0x0
   1ddbf:	52                   	push   %edx
   1ddc0:	50                   	push   %eax
   1ddc1:	e8 b2 30 00 00       	call   20e78 <_ZN4ListI8Vector2iEixEj>
   1ddc6:	83 c4 0c             	add    $0xc,%esp
   1ddc9:	8b 45 90             	mov    -0x70(%ebp),%eax
   1ddcc:	83 c0 01             	add    $0x1,%eax
   1ddcf:	89 c6                	mov    %eax,%esi
   1ddd1:	8b 45 08             	mov    0x8(%ebp),%eax
   1ddd4:	83 c0 24             	add    $0x24,%eax
   1ddd7:	83 ec 04             	sub    $0x4,%esp
   1ddda:	56                   	push   %esi
   1dddb:	53                   	push   %ebx
   1dddc:	50                   	push   %eax
   1dddd:	e8 f8 30 00 00       	call   20eda <_ZN4ListI8Vector2iE9add_frontES0_>
   1dde2:	83 c4 10             	add    $0x10,%esp
   1dde5:	8b 45 08             	mov    0x8(%ebp),%eax
   1dde8:	8d 50 24             	lea    0x24(%eax),%edx
   1ddeb:	8d 45 94             	lea    -0x6c(%ebp),%eax
   1ddee:	83 ec 04             	sub    $0x4,%esp
   1ddf1:	6a 00                	push   $0x0
   1ddf3:	52                   	push   %edx
   1ddf4:	50                   	push   %eax
   1ddf5:	e8 7e 30 00 00       	call   20e78 <_ZN4ListI8Vector2iEixEj>
   1ddfa:	83 c4 0c             	add    $0xc,%esp
   1ddfd:	8b 55 98             	mov    -0x68(%ebp),%edx
   1de00:	8b 45 08             	mov    0x8(%ebp),%eax
   1de03:	8b 40 18             	mov    0x18(%eax),%eax
   1de06:	39 c2                	cmp    %eax,%edx
   1de08:	0f 9d c0             	setge  %al
   1de0b:	84 c0                	test   %al,%al
   1de0d:	0f 84 96 01 00 00    	je     1dfa9 <_ZN5Snake6UpdateEv+0x42d>
   1de13:	8b 45 08             	mov    0x8(%ebp),%eax
   1de16:	c6 40 41 01          	movb   $0x1,0x41(%eax)
   1de1a:	e9 8a 01 00 00       	jmp    1dfa9 <_ZN5Snake6UpdateEv+0x42d>
   1de1f:	8b 45 08             	mov    0x8(%ebp),%eax
   1de22:	83 c0 24             	add    $0x24,%eax
   1de25:	83 ec 0c             	sub    $0xc,%esp
   1de28:	50                   	push   %eax
   1de29:	e8 56 2f 00 00       	call   20d84 <_ZN4ListI8Vector2iE10get_lengthEv>
   1de2e:	83 c4 10             	add    $0x10,%esp
   1de31:	83 e8 01             	sub    $0x1,%eax
   1de34:	89 c1                	mov    %eax,%ecx
   1de36:	8b 45 08             	mov    0x8(%ebp),%eax
   1de39:	8d 50 24             	lea    0x24(%eax),%edx
   1de3c:	8d 45 9c             	lea    -0x64(%ebp),%eax
   1de3f:	83 ec 04             	sub    $0x4,%esp
   1de42:	51                   	push   %ecx
   1de43:	52                   	push   %edx
   1de44:	50                   	push   %eax
   1de45:	e8 46 2f 00 00       	call   20d90 <_ZN4ListI8Vector2iE9remove_atEj>
   1de4a:	83 c4 0c             	add    $0xc,%esp
   1de4d:	8b 45 08             	mov    0x8(%ebp),%eax
   1de50:	8d 50 24             	lea    0x24(%eax),%edx
   1de53:	8d 45 a4             	lea    -0x5c(%ebp),%eax
   1de56:	83 ec 04             	sub    $0x4,%esp
   1de59:	6a 00                	push   $0x0
   1de5b:	52                   	push   %edx
   1de5c:	50                   	push   %eax
   1de5d:	e8 16 30 00 00       	call   20e78 <_ZN4ListI8Vector2iEixEj>
   1de62:	83 c4 0c             	add    $0xc,%esp
   1de65:	8b 45 a4             	mov    -0x5c(%ebp),%eax
   1de68:	83 e8 01             	sub    $0x1,%eax
   1de6b:	89 85 40 ff ff ff    	mov    %eax,-0xc0(%ebp)
   1de71:	8b 45 08             	mov    0x8(%ebp),%eax
   1de74:	8d 50 24             	lea    0x24(%eax),%edx
   1de77:	8d 45 ac             	lea    -0x54(%ebp),%eax
   1de7a:	83 ec 04             	sub    $0x4,%esp
   1de7d:	6a 00                	push   $0x0
   1de7f:	52                   	push   %edx
   1de80:	50                   	push   %eax
   1de81:	e8 f2 2f 00 00       	call   20e78 <_ZN4ListI8Vector2iEixEj>
   1de86:	83 c4 0c             	add    $0xc,%esp
   1de89:	8b 45 b0             	mov    -0x50(%ebp),%eax
   1de8c:	89 85 44 ff ff ff    	mov    %eax,-0xbc(%ebp)
   1de92:	8b 45 08             	mov    0x8(%ebp),%eax
   1de95:	83 c0 24             	add    $0x24,%eax
   1de98:	83 ec 04             	sub    $0x4,%esp
   1de9b:	ff b5 44 ff ff ff    	pushl  -0xbc(%ebp)
   1dea1:	ff b5 40 ff ff ff    	pushl  -0xc0(%ebp)
   1dea7:	50                   	push   %eax
   1dea8:	e8 2d 30 00 00       	call   20eda <_ZN4ListI8Vector2iE9add_frontES0_>
   1dead:	83 c4 10             	add    $0x10,%esp
   1deb0:	8b 45 08             	mov    0x8(%ebp),%eax
   1deb3:	8d 50 24             	lea    0x24(%eax),%edx
   1deb6:	8d 45 b4             	lea    -0x4c(%ebp),%eax
   1deb9:	83 ec 04             	sub    $0x4,%esp
   1debc:	6a 00                	push   $0x0
   1debe:	52                   	push   %edx
   1debf:	50                   	push   %eax
   1dec0:	e8 b3 2f 00 00       	call   20e78 <_ZN4ListI8Vector2iEixEj>
   1dec5:	83 c4 0c             	add    $0xc,%esp
   1dec8:	8b 45 b4             	mov    -0x4c(%ebp),%eax
   1decb:	c1 e8 1f             	shr    $0x1f,%eax
   1dece:	84 c0                	test   %al,%al
   1ded0:	0f 84 d6 00 00 00    	je     1dfac <_ZN5Snake6UpdateEv+0x430>
   1ded6:	8b 45 08             	mov    0x8(%ebp),%eax
   1ded9:	c6 40 41 01          	movb   $0x1,0x41(%eax)
   1dedd:	e9 ca 00 00 00       	jmp    1dfac <_ZN5Snake6UpdateEv+0x430>
   1dee2:	8b 45 08             	mov    0x8(%ebp),%eax
   1dee5:	83 c0 24             	add    $0x24,%eax
   1dee8:	83 ec 0c             	sub    $0xc,%esp
   1deeb:	50                   	push   %eax
   1deec:	e8 93 2e 00 00       	call   20d84 <_ZN4ListI8Vector2iE10get_lengthEv>
   1def1:	83 c4 10             	add    $0x10,%esp
   1def4:	83 e8 01             	sub    $0x1,%eax
   1def7:	89 c1                	mov    %eax,%ecx
   1def9:	8b 45 08             	mov    0x8(%ebp),%eax
   1defc:	8d 50 24             	lea    0x24(%eax),%edx
   1deff:	8d 45 bc             	lea    -0x44(%ebp),%eax
   1df02:	83 ec 04             	sub    $0x4,%esp
   1df05:	51                   	push   %ecx
   1df06:	52                   	push   %edx
   1df07:	50                   	push   %eax
   1df08:	e8 83 2e 00 00       	call   20d90 <_ZN4ListI8Vector2iE9remove_atEj>
   1df0d:	83 c4 0c             	add    $0xc,%esp
   1df10:	8b 45 08             	mov    0x8(%ebp),%eax
   1df13:	8d 50 24             	lea    0x24(%eax),%edx
   1df16:	8d 45 c4             	lea    -0x3c(%ebp),%eax
   1df19:	83 ec 04             	sub    $0x4,%esp
   1df1c:	6a 00                	push   $0x0
   1df1e:	52                   	push   %edx
   1df1f:	50                   	push   %eax
   1df20:	e8 53 2f 00 00       	call   20e78 <_ZN4ListI8Vector2iEixEj>
   1df25:	83 c4 0c             	add    $0xc,%esp
   1df28:	8b 45 c4             	mov    -0x3c(%ebp),%eax
   1df2b:	83 c0 01             	add    $0x1,%eax
   1df2e:	89 85 48 ff ff ff    	mov    %eax,-0xb8(%ebp)
   1df34:	8b 45 08             	mov    0x8(%ebp),%eax
   1df37:	8d 50 24             	lea    0x24(%eax),%edx
   1df3a:	8d 45 cc             	lea    -0x34(%ebp),%eax
   1df3d:	83 ec 04             	sub    $0x4,%esp
   1df40:	6a 00                	push   $0x0
   1df42:	52                   	push   %edx
   1df43:	50                   	push   %eax
   1df44:	e8 2f 2f 00 00       	call   20e78 <_ZN4ListI8Vector2iEixEj>
   1df49:	83 c4 0c             	add    $0xc,%esp
   1df4c:	8b 45 d0             	mov    -0x30(%ebp),%eax
   1df4f:	89 85 4c ff ff ff    	mov    %eax,-0xb4(%ebp)
   1df55:	8b 45 08             	mov    0x8(%ebp),%eax
   1df58:	83 c0 24             	add    $0x24,%eax
   1df5b:	83 ec 04             	sub    $0x4,%esp
   1df5e:	ff b5 4c ff ff ff    	pushl  -0xb4(%ebp)
   1df64:	ff b5 48 ff ff ff    	pushl  -0xb8(%ebp)
   1df6a:	50                   	push   %eax
   1df6b:	e8 6a 2f 00 00       	call   20eda <_ZN4ListI8Vector2iE9add_frontES0_>
   1df70:	83 c4 10             	add    $0x10,%esp
   1df73:	8b 45 08             	mov    0x8(%ebp),%eax
   1df76:	8d 50 24             	lea    0x24(%eax),%edx
   1df79:	8d 45 d4             	lea    -0x2c(%ebp),%eax
   1df7c:	83 ec 04             	sub    $0x4,%esp
   1df7f:	6a 00                	push   $0x0
   1df81:	52                   	push   %edx
   1df82:	50                   	push   %eax
   1df83:	e8 f0 2e 00 00       	call   20e78 <_ZN4ListI8Vector2iEixEj>
   1df88:	83 c4 0c             	add    $0xc,%esp
   1df8b:	8b 55 d4             	mov    -0x2c(%ebp),%edx
   1df8e:	8b 45 08             	mov    0x8(%ebp),%eax
   1df91:	8b 40 14             	mov    0x14(%eax),%eax
   1df94:	39 c2                	cmp    %eax,%edx
   1df96:	0f 9d c0             	setge  %al
   1df99:	84 c0                	test   %al,%al
   1df9b:	74 12                	je     1dfaf <_ZN5Snake6UpdateEv+0x433>
   1df9d:	8b 45 08             	mov    0x8(%ebp),%eax
   1dfa0:	c6 40 41 01          	movb   $0x1,0x41(%eax)
   1dfa4:	eb 09                	jmp    1dfaf <_ZN5Snake6UpdateEv+0x433>
   1dfa6:	90                   	nop
   1dfa7:	eb 07                	jmp    1dfb0 <_ZN5Snake6UpdateEv+0x434>
   1dfa9:	90                   	nop
   1dfaa:	eb 04                	jmp    1dfb0 <_ZN5Snake6UpdateEv+0x434>
   1dfac:	90                   	nop
   1dfad:	eb 01                	jmp    1dfb0 <_ZN5Snake6UpdateEv+0x434>
   1dfaf:	90                   	nop
   1dfb0:	8b 45 08             	mov    0x8(%ebp),%eax
   1dfb3:	8d 58 30             	lea    0x30(%eax),%ebx
   1dfb6:	8b 45 08             	mov    0x8(%ebp),%eax
   1dfb9:	8d 50 24             	lea    0x24(%eax),%edx
   1dfbc:	8d 45 dc             	lea    -0x24(%ebp),%eax
   1dfbf:	83 ec 04             	sub    $0x4,%esp
   1dfc2:	6a 00                	push   $0x0
   1dfc4:	52                   	push   %edx
   1dfc5:	50                   	push   %eax
   1dfc6:	e8 ad 2e 00 00       	call   20e78 <_ZN4ListI8Vector2iEixEj>
   1dfcb:	83 c4 0c             	add    $0xc,%esp
   1dfce:	83 ec 08             	sub    $0x8,%esp
   1dfd1:	53                   	push   %ebx
   1dfd2:	8d 45 dc             	lea    -0x24(%ebp),%eax
   1dfd5:	50                   	push   %eax
   1dfd6:	e8 ad f9 ff ff       	call   1d988 <_ZeqRK8Vector2iS1_>
   1dfdb:	83 c4 10             	add    $0x10,%esp
   1dfde:	84 c0                	test   %al,%al
   1dfe0:	74 76                	je     1e058 <_ZN5Snake6UpdateEv+0x4dc>
   1dfe2:	e8 11 ce ff ff       	call   1adf8 <_Z4randv>
   1dfe7:	89 c2                	mov    %eax,%edx
   1dfe9:	8b 45 08             	mov    0x8(%ebp),%eax
   1dfec:	8b 40 14             	mov    0x14(%eax),%eax
   1dfef:	89 c1                	mov    %eax,%ecx
   1dff1:	89 d0                	mov    %edx,%eax
   1dff3:	ba 00 00 00 00       	mov    $0x0,%edx
   1dff8:	f7 f1                	div    %ecx
   1dffa:	89 d0                	mov    %edx,%eax
   1dffc:	89 c2                	mov    %eax,%edx
   1dffe:	8b 45 08             	mov    0x8(%ebp),%eax
   1e001:	89 50 30             	mov    %edx,0x30(%eax)
   1e004:	e8 ef cd ff ff       	call   1adf8 <_Z4randv>
   1e009:	89 c2                	mov    %eax,%edx
   1e00b:	8b 45 08             	mov    0x8(%ebp),%eax
   1e00e:	8b 40 18             	mov    0x18(%eax),%eax
   1e011:	89 c1                	mov    %eax,%ecx
   1e013:	89 d0                	mov    %edx,%eax
   1e015:	ba 00 00 00 00       	mov    $0x0,%edx
   1e01a:	f7 f1                	div    %ecx
   1e01c:	89 d0                	mov    %edx,%eax
   1e01e:	89 c2                	mov    %eax,%edx
   1e020:	8b 45 08             	mov    0x8(%ebp),%eax
   1e023:	89 50 34             	mov    %edx,0x34(%eax)
   1e026:	c7 85 50 ff ff ff 00 	movl   $0x0,-0xb0(%ebp)
   1e02d:	00 00 00 
   1e030:	c7 85 54 ff ff ff 00 	movl   $0x0,-0xac(%ebp)
   1e037:	00 00 00 
   1e03a:	8b 45 08             	mov    0x8(%ebp),%eax
   1e03d:	83 c0 24             	add    $0x24,%eax
   1e040:	83 ec 04             	sub    $0x4,%esp
   1e043:	ff b5 54 ff ff ff    	pushl  -0xac(%ebp)
   1e049:	ff b5 50 ff ff ff    	pushl  -0xb0(%ebp)
   1e04f:	50                   	push   %eax
   1e050:	e8 7f 2c 00 00       	call   20cd4 <_ZN4ListI8Vector2iE8add_backES0_>
   1e055:	83 c4 10             	add    $0x10,%esp
   1e058:	c7 45 f4 01 00 00 00 	movl   $0x1,-0xc(%ebp)
   1e05f:	8b 45 08             	mov    0x8(%ebp),%eax
   1e062:	83 c0 24             	add    $0x24,%eax
   1e065:	83 ec 0c             	sub    $0xc,%esp
   1e068:	50                   	push   %eax
   1e069:	e8 16 2d 00 00       	call   20d84 <_ZN4ListI8Vector2iE10get_lengthEv>
   1e06e:	83 c4 10             	add    $0x10,%esp
   1e071:	3b 45 f4             	cmp    -0xc(%ebp),%eax
   1e074:	0f 9f c0             	setg   %al
   1e077:	84 c0                	test   %al,%al
   1e079:	74 5a                	je     1e0d5 <_ZN5Snake6UpdateEv+0x559>
   1e07b:	8b 45 08             	mov    0x8(%ebp),%eax
   1e07e:	8d 50 24             	lea    0x24(%eax),%edx
   1e081:	8d 45 e4             	lea    -0x1c(%ebp),%eax
   1e084:	83 ec 04             	sub    $0x4,%esp
   1e087:	6a 00                	push   $0x0
   1e089:	52                   	push   %edx
   1e08a:	50                   	push   %eax
   1e08b:	e8 e8 2d 00 00       	call   20e78 <_ZN4ListI8Vector2iEixEj>
   1e090:	83 c4 0c             	add    $0xc,%esp
   1e093:	8b 55 f4             	mov    -0xc(%ebp),%edx
   1e096:	8b 45 08             	mov    0x8(%ebp),%eax
   1e099:	8d 48 24             	lea    0x24(%eax),%ecx
   1e09c:	8d 45 ec             	lea    -0x14(%ebp),%eax
   1e09f:	83 ec 04             	sub    $0x4,%esp
   1e0a2:	52                   	push   %edx
   1e0a3:	51                   	push   %ecx
   1e0a4:	50                   	push   %eax
   1e0a5:	e8 ce 2d 00 00       	call   20e78 <_ZN4ListI8Vector2iEixEj>
   1e0aa:	83 c4 0c             	add    $0xc,%esp
   1e0ad:	83 ec 08             	sub    $0x8,%esp
   1e0b0:	8d 45 e4             	lea    -0x1c(%ebp),%eax
   1e0b3:	50                   	push   %eax
   1e0b4:	8d 45 ec             	lea    -0x14(%ebp),%eax
   1e0b7:	50                   	push   %eax
   1e0b8:	e8 cb f8 ff ff       	call   1d988 <_ZeqRK8Vector2iS1_>
   1e0bd:	83 c4 10             	add    $0x10,%esp
   1e0c0:	84 c0                	test   %al,%al
   1e0c2:	74 07                	je     1e0cb <_ZN5Snake6UpdateEv+0x54f>
   1e0c4:	8b 45 08             	mov    0x8(%ebp),%eax
   1e0c7:	c6 40 41 01          	movb   $0x1,0x41(%eax)
   1e0cb:	83 45 f4 01          	addl   $0x1,-0xc(%ebp)
   1e0cf:	eb 8e                	jmp    1e05f <_ZN5Snake6UpdateEv+0x4e3>
   1e0d1:	90                   	nop
   1e0d2:	eb 01                	jmp    1e0d5 <_ZN5Snake6UpdateEv+0x559>
   1e0d4:	90                   	nop
   1e0d5:	8d 65 f8             	lea    -0x8(%ebp),%esp
   1e0d8:	5b                   	pop    %ebx
   1e0d9:	5e                   	pop    %esi
   1e0da:	5d                   	pop    %ebp
   1e0db:	c3                   	ret    

0001e0dc <_ZN5Snake6RenderEv>:
   1e0dc:	55                   	push   %ebp
   1e0dd:	89 e5                	mov    %esp,%ebp
   1e0df:	57                   	push   %edi
   1e0e0:	56                   	push   %esi
   1e0e1:	53                   	push   %ebx
   1e0e2:	83 ec 3c             	sub    $0x3c,%esp
   1e0e5:	8b 45 08             	mov    0x8(%ebp),%eax
   1e0e8:	0f b6 40 1e          	movzbl 0x1e(%eax),%eax
   1e0ec:	0f b6 d8             	movzbl %al,%ebx
   1e0ef:	8b 45 08             	mov    0x8(%ebp),%eax
   1e0f2:	0f b6 40 1d          	movzbl 0x1d(%eax),%eax
   1e0f6:	0f b6 c8             	movzbl %al,%ecx
   1e0f9:	8b 45 08             	mov    0x8(%ebp),%eax
   1e0fc:	0f b6 40 1c          	movzbl 0x1c(%eax),%eax
   1e100:	0f b6 d0             	movzbl %al,%edx
   1e103:	8b 45 08             	mov    0x8(%ebp),%eax
   1e106:	8b 40 10             	mov    0x10(%eax),%eax
   1e109:	89 45 c4             	mov    %eax,-0x3c(%ebp)
   1e10c:	8b 45 08             	mov    0x8(%ebp),%eax
   1e10f:	8b 40 0c             	mov    0xc(%eax),%eax
   1e112:	89 c7                	mov    %eax,%edi
   1e114:	8b 45 08             	mov    0x8(%ebp),%eax
   1e117:	8b 40 08             	mov    0x8(%eax),%eax
   1e11a:	89 c6                	mov    %eax,%esi
   1e11c:	8b 45 08             	mov    0x8(%ebp),%eax
   1e11f:	8b 40 04             	mov    0x4(%eax),%eax
   1e122:	83 ec 04             	sub    $0x4,%esp
   1e125:	53                   	push   %ebx
   1e126:	51                   	push   %ecx
   1e127:	52                   	push   %edx
   1e128:	ff 75 c4             	pushl  -0x3c(%ebp)
   1e12b:	57                   	push   %edi
   1e12c:	56                   	push   %esi
   1e12d:	50                   	push   %eax
   1e12e:	e8 4b 14 00 00       	call   1f57e <_Z15screen_fillrectjjjjhhh>
   1e133:	83 c4 20             	add    $0x20,%esp
   1e136:	8b 45 08             	mov    0x8(%ebp),%eax
   1e139:	0f b6 40 41          	movzbl 0x41(%eax),%eax
   1e13d:	84 c0                	test   %al,%al
   1e13f:	0f 84 0d 01 00 00    	je     1e252 <_ZN5Snake6RenderEv+0x176>
   1e145:	8b 45 08             	mov    0x8(%ebp),%eax
   1e148:	8b 50 08             	mov    0x8(%eax),%edx
   1e14b:	8b 45 08             	mov    0x8(%ebp),%eax
   1e14e:	8b 40 10             	mov    0x10(%eax),%eax
   1e151:	89 c1                	mov    %eax,%ecx
   1e153:	c1 e9 1f             	shr    $0x1f,%ecx
   1e156:	01 c8                	add    %ecx,%eax
   1e158:	d1 f8                	sar    %eax
   1e15a:	01 d0                	add    %edx,%eax
   1e15c:	83 e8 18             	sub    $0x18,%eax
   1e15f:	89 c3                	mov    %eax,%ebx
   1e161:	8b 45 08             	mov    0x8(%ebp),%eax
   1e164:	8b 50 04             	mov    0x4(%eax),%edx
   1e167:	8b 45 08             	mov    0x8(%ebp),%eax
   1e16a:	8b 40 0c             	mov    0xc(%eax),%eax
   1e16d:	89 c1                	mov    %eax,%ecx
   1e16f:	c1 e9 1f             	shr    $0x1f,%ecx
   1e172:	01 c8                	add    %ecx,%eax
   1e174:	d1 f8                	sar    %eax
   1e176:	01 d0                	add    %edx,%eax
   1e178:	83 e8 30             	sub    $0x30,%eax
   1e17b:	83 ec 04             	sub    $0x4,%esp
   1e17e:	6a 03                	push   $0x3
   1e180:	68 ff 00 00 00       	push   $0xff
   1e185:	68 ff 00 00 00       	push   $0xff
   1e18a:	68 ff 00 00 00       	push   $0xff
   1e18f:	53                   	push   %ebx
   1e190:	50                   	push   %eax
   1e191:	68 db 1d 02 00       	push   $0x21ddb
   1e196:	e8 0d 17 00 00       	call   1f8a8 <_Z10drawstringPcjjhhhi>
   1e19b:	83 c4 20             	add    $0x20,%esp
   1e19e:	8b 45 08             	mov    0x8(%ebp),%eax
   1e1a1:	8b 50 08             	mov    0x8(%eax),%edx
   1e1a4:	8b 45 08             	mov    0x8(%ebp),%eax
   1e1a7:	8b 40 10             	mov    0x10(%eax),%eax
   1e1aa:	89 c1                	mov    %eax,%ecx
   1e1ac:	c1 e9 1f             	shr    $0x1f,%ecx
   1e1af:	01 c8                	add    %ecx,%eax
   1e1b1:	d1 f8                	sar    %eax
   1e1b3:	01 d0                	add    %edx,%eax
   1e1b5:	89 c3                	mov    %eax,%ebx
   1e1b7:	8b 45 08             	mov    0x8(%ebp),%eax
   1e1ba:	8b 50 04             	mov    0x4(%eax),%edx
   1e1bd:	8b 45 08             	mov    0x8(%ebp),%eax
   1e1c0:	8b 40 0c             	mov    0xc(%eax),%eax
   1e1c3:	89 c1                	mov    %eax,%ecx
   1e1c5:	c1 e9 1f             	shr    $0x1f,%ecx
   1e1c8:	01 c8                	add    %ecx,%eax
   1e1ca:	d1 f8                	sar    %eax
   1e1cc:	01 d0                	add    %edx,%eax
   1e1ce:	83 e8 30             	sub    $0x30,%eax
   1e1d1:	83 ec 04             	sub    $0x4,%esp
   1e1d4:	6a 03                	push   $0x3
   1e1d6:	68 ff 00 00 00       	push   $0xff
   1e1db:	68 ff 00 00 00       	push   $0xff
   1e1e0:	68 ff 00 00 00       	push   $0xff
   1e1e5:	53                   	push   %ebx
   1e1e6:	50                   	push   %eax
   1e1e7:	68 e0 1d 02 00       	push   $0x21de0
   1e1ec:	e8 b7 16 00 00       	call   1f8a8 <_Z10drawstringPcjjhhhi>
   1e1f1:	83 c4 20             	add    $0x20,%esp
   1e1f4:	8b 45 08             	mov    0x8(%ebp),%eax
   1e1f7:	8b 50 08             	mov    0x8(%eax),%edx
   1e1fa:	8b 45 08             	mov    0x8(%ebp),%eax
   1e1fd:	8b 40 10             	mov    0x10(%eax),%eax
   1e200:	89 c1                	mov    %eax,%ecx
   1e202:	c1 e9 1f             	shr    $0x1f,%ecx
   1e205:	01 c8                	add    %ecx,%eax
   1e207:	d1 f8                	sar    %eax
   1e209:	01 d0                	add    %edx,%eax
   1e20b:	83 c0 18             	add    $0x18,%eax
   1e20e:	89 c3                	mov    %eax,%ebx
   1e210:	8b 45 08             	mov    0x8(%ebp),%eax
   1e213:	8b 50 04             	mov    0x4(%eax),%edx
   1e216:	8b 45 08             	mov    0x8(%ebp),%eax
   1e219:	8b 40 0c             	mov    0xc(%eax),%eax
   1e21c:	89 c1                	mov    %eax,%ecx
   1e21e:	c1 e9 1f             	shr    $0x1f,%ecx
   1e221:	01 c8                	add    %ecx,%eax
   1e223:	d1 f8                	sar    %eax
   1e225:	01 d0                	add    %edx,%eax
   1e227:	83 e8 50             	sub    $0x50,%eax
   1e22a:	83 ec 04             	sub    $0x4,%esp
   1e22d:	6a 01                	push   $0x1
   1e22f:	68 ff 00 00 00       	push   $0xff
   1e234:	68 ff 00 00 00       	push   $0xff
   1e239:	68 ff 00 00 00       	push   $0xff
   1e23e:	53                   	push   %ebx
   1e23f:	50                   	push   %eax
   1e240:	68 e5 1d 02 00       	push   $0x21de5
   1e245:	e8 5e 16 00 00       	call   1f8a8 <_Z10drawstringPcjjhhhi>
   1e24a:	83 c4 20             	add    $0x20,%esp
   1e24d:	e9 d5 01 00 00       	jmp    1e427 <_ZN5Snake6RenderEv+0x34b>
   1e252:	c7 45 e4 00 00 00 00 	movl   $0x0,-0x1c(%ebp)
   1e259:	8b 45 08             	mov    0x8(%ebp),%eax
   1e25c:	83 c0 24             	add    $0x24,%eax
   1e25f:	83 ec 0c             	sub    $0xc,%esp
   1e262:	50                   	push   %eax
   1e263:	e8 1c 2b 00 00       	call   20d84 <_ZN4ListI8Vector2iE10get_lengthEv>
   1e268:	83 c4 10             	add    $0x10,%esp
   1e26b:	3b 45 e4             	cmp    -0x1c(%ebp),%eax
   1e26e:	0f 9f c0             	setg   %al
   1e271:	84 c0                	test   %al,%al
   1e273:	0f 84 b1 00 00 00    	je     1e32a <_ZN5Snake6RenderEv+0x24e>
   1e279:	8b 45 08             	mov    0x8(%ebp),%eax
   1e27c:	0f b6 40 21          	movzbl 0x21(%eax),%eax
   1e280:	0f b6 c0             	movzbl %al,%eax
   1e283:	89 45 c4             	mov    %eax,-0x3c(%ebp)
   1e286:	8b 45 08             	mov    0x8(%ebp),%eax
   1e289:	0f b6 40 20          	movzbl 0x20(%eax),%eax
   1e28d:	0f b6 f8             	movzbl %al,%edi
   1e290:	8b 45 08             	mov    0x8(%ebp),%eax
   1e293:	0f b6 40 1f          	movzbl 0x1f(%eax),%eax
   1e297:	0f b6 f0             	movzbl %al,%esi
   1e29a:	8b 45 08             	mov    0x8(%ebp),%eax
   1e29d:	8b 00                	mov    (%eax),%eax
   1e29f:	89 45 c0             	mov    %eax,-0x40(%ebp)
   1e2a2:	8b 45 08             	mov    0x8(%ebp),%eax
   1e2a5:	8b 00                	mov    (%eax),%eax
   1e2a7:	89 45 bc             	mov    %eax,-0x44(%ebp)
   1e2aa:	8b 45 08             	mov    0x8(%ebp),%eax
   1e2ad:	8b 58 08             	mov    0x8(%eax),%ebx
   1e2b0:	8b 4d e4             	mov    -0x1c(%ebp),%ecx
   1e2b3:	8b 45 08             	mov    0x8(%ebp),%eax
   1e2b6:	8d 50 24             	lea    0x24(%eax),%edx
   1e2b9:	8d 45 d4             	lea    -0x2c(%ebp),%eax
   1e2bc:	83 ec 04             	sub    $0x4,%esp
   1e2bf:	51                   	push   %ecx
   1e2c0:	52                   	push   %edx
   1e2c1:	50                   	push   %eax
   1e2c2:	e8 b1 2b 00 00       	call   20e78 <_ZN4ListI8Vector2iEixEj>
   1e2c7:	83 c4 0c             	add    $0xc,%esp
   1e2ca:	8b 55 d8             	mov    -0x28(%ebp),%edx
   1e2cd:	8b 45 08             	mov    0x8(%ebp),%eax
   1e2d0:	8b 00                	mov    (%eax),%eax
   1e2d2:	0f af c2             	imul   %edx,%eax
   1e2d5:	01 d8                	add    %ebx,%eax
   1e2d7:	89 45 b8             	mov    %eax,-0x48(%ebp)
   1e2da:	8b 45 08             	mov    0x8(%ebp),%eax
   1e2dd:	8b 58 04             	mov    0x4(%eax),%ebx
   1e2e0:	8b 4d e4             	mov    -0x1c(%ebp),%ecx
   1e2e3:	8b 45 08             	mov    0x8(%ebp),%eax
   1e2e6:	8d 50 24             	lea    0x24(%eax),%edx
   1e2e9:	8d 45 dc             	lea    -0x24(%ebp),%eax
   1e2ec:	83 ec 04             	sub    $0x4,%esp
   1e2ef:	51                   	push   %ecx
   1e2f0:	52                   	push   %edx
   1e2f1:	50                   	push   %eax
   1e2f2:	e8 81 2b 00 00       	call   20e78 <_ZN4ListI8Vector2iEixEj>
   1e2f7:	83 c4 0c             	add    $0xc,%esp
   1e2fa:	8b 55 dc             	mov    -0x24(%ebp),%edx
   1e2fd:	8b 45 08             	mov    0x8(%ebp),%eax
   1e300:	8b 00                	mov    (%eax),%eax
   1e302:	0f af c2             	imul   %edx,%eax
   1e305:	01 d8                	add    %ebx,%eax
   1e307:	83 ec 04             	sub    $0x4,%esp
   1e30a:	ff 75 c4             	pushl  -0x3c(%ebp)
   1e30d:	57                   	push   %edi
   1e30e:	56                   	push   %esi
   1e30f:	ff 75 c0             	pushl  -0x40(%ebp)
   1e312:	ff 75 bc             	pushl  -0x44(%ebp)
   1e315:	ff 75 b8             	pushl  -0x48(%ebp)
   1e318:	50                   	push   %eax
   1e319:	e8 60 12 00 00       	call   1f57e <_Z15screen_fillrectjjjjhhh>
   1e31e:	83 c4 20             	add    $0x20,%esp
   1e321:	83 45 e4 01          	addl   $0x1,-0x1c(%ebp)
   1e325:	e9 2f ff ff ff       	jmp    1e259 <_ZN5Snake6RenderEv+0x17d>
   1e32a:	8b 45 08             	mov    0x8(%ebp),%eax
   1e32d:	0f b6 40 21          	movzbl 0x21(%eax),%eax
   1e331:	0f b6 f8             	movzbl %al,%edi
   1e334:	8b 45 08             	mov    0x8(%ebp),%eax
   1e337:	0f b6 40 20          	movzbl 0x20(%eax),%eax
   1e33b:	0f b6 f0             	movzbl %al,%esi
   1e33e:	8b 45 08             	mov    0x8(%ebp),%eax
   1e341:	0f b6 40 1f          	movzbl 0x1f(%eax),%eax
   1e345:	0f b6 d8             	movzbl %al,%ebx
   1e348:	8b 45 08             	mov    0x8(%ebp),%eax
   1e34b:	8b 00                	mov    (%eax),%eax
   1e34d:	89 45 c4             	mov    %eax,-0x3c(%ebp)
   1e350:	8b 45 08             	mov    0x8(%ebp),%eax
   1e353:	8b 00                	mov    (%eax),%eax
   1e355:	89 45 c0             	mov    %eax,-0x40(%ebp)
   1e358:	8b 45 08             	mov    0x8(%ebp),%eax
   1e35b:	8b 48 08             	mov    0x8(%eax),%ecx
   1e35e:	8b 45 08             	mov    0x8(%ebp),%eax
   1e361:	8b 50 34             	mov    0x34(%eax),%edx
   1e364:	8b 45 08             	mov    0x8(%ebp),%eax
   1e367:	8b 00                	mov    (%eax),%eax
   1e369:	0f af c2             	imul   %edx,%eax
   1e36c:	01 c8                	add    %ecx,%eax
   1e36e:	89 45 bc             	mov    %eax,-0x44(%ebp)
   1e371:	8b 45 08             	mov    0x8(%ebp),%eax
   1e374:	8b 48 04             	mov    0x4(%eax),%ecx
   1e377:	8b 45 08             	mov    0x8(%ebp),%eax
   1e37a:	8b 50 30             	mov    0x30(%eax),%edx
   1e37d:	8b 45 08             	mov    0x8(%ebp),%eax
   1e380:	8b 00                	mov    (%eax),%eax
   1e382:	0f af c2             	imul   %edx,%eax
   1e385:	01 c8                	add    %ecx,%eax
   1e387:	83 ec 04             	sub    $0x4,%esp
   1e38a:	57                   	push   %edi
   1e38b:	56                   	push   %esi
   1e38c:	53                   	push   %ebx
   1e38d:	ff 75 c4             	pushl  -0x3c(%ebp)
   1e390:	ff 75 c0             	pushl  -0x40(%ebp)
   1e393:	ff 75 bc             	pushl  -0x44(%ebp)
   1e396:	50                   	push   %eax
   1e397:	e8 e2 11 00 00       	call   1f57e <_Z15screen_fillrectjjjjhhh>
   1e39c:	83 c4 20             	add    $0x20,%esp
   1e39f:	8b 45 08             	mov    0x8(%ebp),%eax
   1e3a2:	8b 40 08             	mov    0x8(%eax),%eax
   1e3a5:	89 c2                	mov    %eax,%edx
   1e3a7:	8b 45 08             	mov    0x8(%ebp),%eax
   1e3aa:	8b 40 04             	mov    0x4(%eax),%eax
   1e3ad:	83 ec 04             	sub    $0x4,%esp
   1e3b0:	6a 01                	push   $0x1
   1e3b2:	68 ff 00 00 00       	push   $0xff
   1e3b7:	68 ff 00 00 00       	push   $0xff
   1e3bc:	68 ff 00 00 00       	push   $0xff
   1e3c1:	52                   	push   %edx
   1e3c2:	50                   	push   %eax
   1e3c3:	68 fa 1d 02 00       	push   $0x21dfa
   1e3c8:	e8 db 14 00 00       	call   1f8a8 <_Z10drawstringPcjjhhhi>
   1e3cd:	83 c4 20             	add    $0x20,%esp
   1e3d0:	8b 45 08             	mov    0x8(%ebp),%eax
   1e3d3:	8b 40 08             	mov    0x8(%eax),%eax
   1e3d6:	89 c6                	mov    %eax,%esi
   1e3d8:	8b 45 08             	mov    0x8(%ebp),%eax
   1e3db:	8b 40 04             	mov    0x4(%eax),%eax
   1e3de:	83 c0 38             	add    $0x38,%eax
   1e3e1:	89 c3                	mov    %eax,%ebx
   1e3e3:	8b 45 08             	mov    0x8(%ebp),%eax
   1e3e6:	83 c0 24             	add    $0x24,%eax
   1e3e9:	83 ec 0c             	sub    $0xc,%esp
   1e3ec:	50                   	push   %eax
   1e3ed:	e8 92 29 00 00       	call   20d84 <_ZN4ListI8Vector2iE10get_lengthEv>
   1e3f2:	83 c4 10             	add    $0x10,%esp
   1e3f5:	83 ec 04             	sub    $0x4,%esp
   1e3f8:	6a 0a                	push   $0xa
   1e3fa:	68 5c 82 44 00       	push   $0x44825c
   1e3ff:	50                   	push   %eax
   1e400:	e8 b5 0a 00 00       	call   1eeba <_Z4itoamPci>
   1e405:	83 c4 10             	add    $0x10,%esp
   1e408:	83 ec 04             	sub    $0x4,%esp
   1e40b:	6a 01                	push   $0x1
   1e40d:	68 ff 00 00 00       	push   $0xff
   1e412:	68 ff 00 00 00       	push   $0xff
   1e417:	68 ff 00 00 00       	push   $0xff
   1e41c:	56                   	push   %esi
   1e41d:	53                   	push   %ebx
   1e41e:	50                   	push   %eax
   1e41f:	e8 84 14 00 00       	call   1f8a8 <_Z10drawstringPcjjhhhi>
   1e424:	83 c4 20             	add    $0x20,%esp
   1e427:	8d 65 f4             	lea    -0xc(%ebp),%esp
   1e42a:	5b                   	pop    %ebx
   1e42b:	5e                   	pop    %esi
   1e42c:	5f                   	pop    %edi
   1e42d:	5d                   	pop    %ebp
   1e42e:	c3                   	ret    
   1e42f:	90                   	nop

0001e430 <_ZN5Snake5ResetEv>:
   1e430:	55                   	push   %ebp
   1e431:	89 e5                	mov    %esp,%ebp
   1e433:	56                   	push   %esi
   1e434:	53                   	push   %ebx
   1e435:	83 ec 30             	sub    $0x30,%esp
   1e438:	8b 45 08             	mov    0x8(%ebp),%eax
   1e43b:	c6 40 41 00          	movb   $0x0,0x41(%eax)
   1e43f:	c7 45 f4 00 00 00 00 	movl   $0x0,-0xc(%ebp)
   1e446:	8b 45 08             	mov    0x8(%ebp),%eax
   1e449:	83 c0 24             	add    $0x24,%eax
   1e44c:	83 ec 0c             	sub    $0xc,%esp
   1e44f:	50                   	push   %eax
   1e450:	e8 2f 29 00 00       	call   20d84 <_ZN4ListI8Vector2iE10get_lengthEv>
   1e455:	83 c4 10             	add    $0x10,%esp
   1e458:	3b 45 f4             	cmp    -0xc(%ebp),%eax
   1e45b:	0f 9f c0             	setg   %al
   1e45e:	84 c0                	test   %al,%al
   1e460:	74 20                	je     1e482 <_ZN5Snake5ResetEv+0x52>
   1e462:	8b 4d f4             	mov    -0xc(%ebp),%ecx
   1e465:	8b 45 08             	mov    0x8(%ebp),%eax
   1e468:	8d 50 24             	lea    0x24(%eax),%edx
   1e46b:	8d 45 ec             	lea    -0x14(%ebp),%eax
   1e46e:	83 ec 04             	sub    $0x4,%esp
   1e471:	51                   	push   %ecx
   1e472:	52                   	push   %edx
   1e473:	50                   	push   %eax
   1e474:	e8 17 29 00 00       	call   20d90 <_ZN4ListI8Vector2iE9remove_atEj>
   1e479:	83 c4 0c             	add    $0xc,%esp
   1e47c:	83 45 f4 01          	addl   $0x1,-0xc(%ebp)
   1e480:	eb c4                	jmp    1e446 <_ZN5Snake5ResetEv+0x16>
   1e482:	c7 45 d0 06 00 00 00 	movl   $0x6,-0x30(%ebp)
   1e489:	c7 45 d4 04 00 00 00 	movl   $0x4,-0x2c(%ebp)
   1e490:	8b 45 08             	mov    0x8(%ebp),%eax
   1e493:	83 c0 24             	add    $0x24,%eax
   1e496:	83 ec 04             	sub    $0x4,%esp
   1e499:	ff 75 d4             	pushl  -0x2c(%ebp)
   1e49c:	ff 75 d0             	pushl  -0x30(%ebp)
   1e49f:	50                   	push   %eax
   1e4a0:	e8 2f 28 00 00       	call   20cd4 <_ZN4ListI8Vector2iE8add_backES0_>
   1e4a5:	83 c4 10             	add    $0x10,%esp
   1e4a8:	c7 45 d8 05 00 00 00 	movl   $0x5,-0x28(%ebp)
   1e4af:	c7 45 dc 04 00 00 00 	movl   $0x4,-0x24(%ebp)
   1e4b6:	8b 45 08             	mov    0x8(%ebp),%eax
   1e4b9:	83 c0 24             	add    $0x24,%eax
   1e4bc:	83 ec 04             	sub    $0x4,%esp
   1e4bf:	ff 75 dc             	pushl  -0x24(%ebp)
   1e4c2:	ff 75 d8             	pushl  -0x28(%ebp)
   1e4c5:	50                   	push   %eax
   1e4c6:	e8 09 28 00 00       	call   20cd4 <_ZN4ListI8Vector2iE8add_backES0_>
   1e4cb:	83 c4 10             	add    $0x10,%esp
   1e4ce:	c7 45 e0 04 00 00 00 	movl   $0x4,-0x20(%ebp)
   1e4d5:	c7 45 e4 04 00 00 00 	movl   $0x4,-0x1c(%ebp)
   1e4dc:	8b 45 08             	mov    0x8(%ebp),%eax
   1e4df:	83 c0 24             	add    $0x24,%eax
   1e4e2:	83 ec 04             	sub    $0x4,%esp
   1e4e5:	ff 75 e4             	pushl  -0x1c(%ebp)
   1e4e8:	ff 75 e0             	pushl  -0x20(%ebp)
   1e4eb:	50                   	push   %eax
   1e4ec:	e8 e3 27 00 00       	call   20cd4 <_ZN4ListI8Vector2iE8add_backES0_>
   1e4f1:	83 c4 10             	add    $0x10,%esp
   1e4f4:	bb 03 00 00 00       	mov    $0x3,%ebx
   1e4f9:	be 04 00 00 00       	mov    $0x4,%esi
   1e4fe:	8b 45 08             	mov    0x8(%ebp),%eax
   1e501:	83 c0 24             	add    $0x24,%eax
   1e504:	83 ec 04             	sub    $0x4,%esp
   1e507:	56                   	push   %esi
   1e508:	53                   	push   %ebx
   1e509:	50                   	push   %eax
   1e50a:	e8 c5 27 00 00       	call   20cd4 <_ZN4ListI8Vector2iE8add_backES0_>
   1e50f:	83 c4 10             	add    $0x10,%esp
   1e512:	e8 e1 c8 ff ff       	call   1adf8 <_Z4randv>
   1e517:	89 c2                	mov    %eax,%edx
   1e519:	8b 45 08             	mov    0x8(%ebp),%eax
   1e51c:	8b 40 14             	mov    0x14(%eax),%eax
   1e51f:	89 c1                	mov    %eax,%ecx
   1e521:	89 d0                	mov    %edx,%eax
   1e523:	ba 00 00 00 00       	mov    $0x0,%edx
   1e528:	f7 f1                	div    %ecx
   1e52a:	89 d0                	mov    %edx,%eax
   1e52c:	89 c2                	mov    %eax,%edx
   1e52e:	8b 45 08             	mov    0x8(%ebp),%eax
   1e531:	89 50 30             	mov    %edx,0x30(%eax)
   1e534:	e8 bf c8 ff ff       	call   1adf8 <_Z4randv>
   1e539:	89 c2                	mov    %eax,%edx
   1e53b:	8b 45 08             	mov    0x8(%ebp),%eax
   1e53e:	8b 40 18             	mov    0x18(%eax),%eax
   1e541:	89 c1                	mov    %eax,%ecx
   1e543:	89 d0                	mov    %edx,%eax
   1e545:	ba 00 00 00 00       	mov    $0x0,%edx
   1e54a:	f7 f1                	div    %ecx
   1e54c:	89 d0                	mov    %edx,%eax
   1e54e:	89 c2                	mov    %eax,%edx
   1e550:	8b 45 08             	mov    0x8(%ebp),%eax
   1e553:	89 50 34             	mov    %edx,0x34(%eax)
   1e556:	8b 45 08             	mov    0x8(%ebp),%eax
   1e559:	c6 40 40 03          	movb   $0x3,0x40(%eax)
   1e55d:	90                   	nop
   1e55e:	8d 65 f8             	lea    -0x8(%ebp),%esp
   1e561:	5b                   	pop    %ebx
   1e562:	5e                   	pop    %esi
   1e563:	5d                   	pop    %ebp
   1e564:	c3                   	ret    
   1e565:	90                   	nop

0001e566 <_ZN5Snake8RelocateEii>:
   1e566:	55                   	push   %ebp
   1e567:	89 e5                	mov    %esp,%ebp
   1e569:	8b 45 08             	mov    0x8(%ebp),%eax
   1e56c:	8b 55 0c             	mov    0xc(%ebp),%edx
   1e56f:	89 50 04             	mov    %edx,0x4(%eax)
   1e572:	8b 45 08             	mov    0x8(%ebp),%eax
   1e575:	8b 55 10             	mov    0x10(%ebp),%edx
   1e578:	89 50 08             	mov    %edx,0x8(%eax)
   1e57b:	90                   	nop
   1e57c:	5d                   	pop    %ebp
   1e57d:	c3                   	ret    

0001e57e <_ZN6stringC1Ev>:
   1e57e:	55                   	push   %ebp
   1e57f:	89 e5                	mov    %esp,%ebp
   1e581:	83 ec 08             	sub    $0x8,%esp
   1e584:	8b 45 08             	mov    0x8(%ebp),%eax
   1e587:	c7 40 04 00 00 00 00 	movl   $0x0,0x4(%eax)
   1e58e:	83 ec 0c             	sub    $0xc,%esp
   1e591:	6a 00                	push   $0x0
   1e593:	e8 ac a5 ff ff       	call   18b44 <kmalloc>
   1e598:	83 c4 10             	add    $0x10,%esp
   1e59b:	89 c2                	mov    %eax,%edx
   1e59d:	8b 45 08             	mov    0x8(%ebp),%eax
   1e5a0:	89 10                	mov    %edx,(%eax)
   1e5a2:	90                   	nop
   1e5a3:	c9                   	leave  
   1e5a4:	c3                   	ret    
   1e5a5:	90                   	nop

0001e5a6 <_ZN6stringC1Ec>:
   1e5a6:	55                   	push   %ebp
   1e5a7:	89 e5                	mov    %esp,%ebp
   1e5a9:	83 ec 18             	sub    $0x18,%esp
   1e5ac:	8b 45 0c             	mov    0xc(%ebp),%eax
   1e5af:	88 45 f4             	mov    %al,-0xc(%ebp)
   1e5b2:	8b 45 08             	mov    0x8(%ebp),%eax
   1e5b5:	c7 40 04 01 00 00 00 	movl   $0x1,0x4(%eax)
   1e5bc:	83 ec 0c             	sub    $0xc,%esp
   1e5bf:	6a 01                	push   $0x1
   1e5c1:	e8 7e a5 ff ff       	call   18b44 <kmalloc>
   1e5c6:	83 c4 10             	add    $0x10,%esp
   1e5c9:	89 c2                	mov    %eax,%edx
   1e5cb:	8b 45 08             	mov    0x8(%ebp),%eax
   1e5ce:	89 10                	mov    %edx,(%eax)
   1e5d0:	8b 45 08             	mov    0x8(%ebp),%eax
   1e5d3:	8b 00                	mov    (%eax),%eax
   1e5d5:	0f b6 55 f4          	movzbl -0xc(%ebp),%edx
   1e5d9:	88 10                	mov    %dl,(%eax)
   1e5db:	90                   	nop
   1e5dc:	c9                   	leave  
   1e5dd:	c3                   	ret    

0001e5de <_ZN6stringC1EPKc>:
   1e5de:	55                   	push   %ebp
   1e5df:	89 e5                	mov    %esp,%ebp
   1e5e1:	83 ec 18             	sub    $0x18,%esp
   1e5e4:	83 7d 0c 00          	cmpl   $0x0,0xc(%ebp)
   1e5e8:	74 66                	je     1e650 <_ZN6stringC1EPKc+0x72>
   1e5ea:	c7 45 f4 00 00 00 00 	movl   $0x0,-0xc(%ebp)
   1e5f1:	8b 55 0c             	mov    0xc(%ebp),%edx
   1e5f4:	8b 45 f4             	mov    -0xc(%ebp),%eax
   1e5f7:	01 d0                	add    %edx,%eax
   1e5f9:	0f b6 00             	movzbl (%eax),%eax
   1e5fc:	84 c0                	test   %al,%al
   1e5fe:	74 06                	je     1e606 <_ZN6stringC1EPKc+0x28>
   1e600:	83 45 f4 01          	addl   $0x1,-0xc(%ebp)
   1e604:	eb eb                	jmp    1e5f1 <_ZN6stringC1EPKc+0x13>
   1e606:	8b 45 08             	mov    0x8(%ebp),%eax
   1e609:	8b 55 f4             	mov    -0xc(%ebp),%edx
   1e60c:	89 50 04             	mov    %edx,0x4(%eax)
   1e60f:	83 ec 0c             	sub    $0xc,%esp
   1e612:	ff 75 f4             	pushl  -0xc(%ebp)
   1e615:	e8 2a a5 ff ff       	call   18b44 <kmalloc>
   1e61a:	83 c4 10             	add    $0x10,%esp
   1e61d:	89 c2                	mov    %eax,%edx
   1e61f:	8b 45 08             	mov    0x8(%ebp),%eax
   1e622:	89 10                	mov    %edx,(%eax)
   1e624:	c7 45 f0 00 00 00 00 	movl   $0x0,-0x10(%ebp)
   1e62b:	8b 45 f0             	mov    -0x10(%ebp),%eax
   1e62e:	3b 45 f4             	cmp    -0xc(%ebp),%eax
   1e631:	73 3b                	jae    1e66e <_ZN6stringC1EPKc+0x90>
   1e633:	8b 45 08             	mov    0x8(%ebp),%eax
   1e636:	8b 10                	mov    (%eax),%edx
   1e638:	8b 45 f0             	mov    -0x10(%ebp),%eax
   1e63b:	01 c2                	add    %eax,%edx
   1e63d:	8b 4d 0c             	mov    0xc(%ebp),%ecx
   1e640:	8b 45 f0             	mov    -0x10(%ebp),%eax
   1e643:	01 c8                	add    %ecx,%eax
   1e645:	0f b6 00             	movzbl (%eax),%eax
   1e648:	88 02                	mov    %al,(%edx)
   1e64a:	83 45 f0 01          	addl   $0x1,-0x10(%ebp)
   1e64e:	eb db                	jmp    1e62b <_ZN6stringC1EPKc+0x4d>
   1e650:	8b 45 08             	mov    0x8(%ebp),%eax
   1e653:	c7 40 04 00 00 00 00 	movl   $0x0,0x4(%eax)
   1e65a:	83 ec 0c             	sub    $0xc,%esp
   1e65d:	6a 00                	push   $0x0
   1e65f:	e8 e0 a4 ff ff       	call   18b44 <kmalloc>
   1e664:	83 c4 10             	add    $0x10,%esp
   1e667:	89 c2                	mov    %eax,%edx
   1e669:	8b 45 08             	mov    0x8(%ebp),%eax
   1e66c:	89 10                	mov    %edx,(%eax)
   1e66e:	90                   	nop
   1e66f:	c9                   	leave  
   1e670:	c3                   	ret    
   1e671:	90                   	nop

0001e672 <_ZN6stringC1ERKS_>:
   1e672:	55                   	push   %ebp
   1e673:	89 e5                	mov    %esp,%ebp
   1e675:	53                   	push   %ebx
   1e676:	83 ec 14             	sub    $0x14,%esp
   1e679:	83 ec 0c             	sub    $0xc,%esp
   1e67c:	ff 75 0c             	pushl  0xc(%ebp)
   1e67f:	e8 84 00 00 00       	call   1e708 <_ZNK6string3lenEv>
   1e684:	83 c4 10             	add    $0x10,%esp
   1e687:	89 c2                	mov    %eax,%edx
   1e689:	8b 45 08             	mov    0x8(%ebp),%eax
   1e68c:	89 50 04             	mov    %edx,0x4(%eax)
   1e68f:	8b 45 08             	mov    0x8(%ebp),%eax
   1e692:	8b 40 04             	mov    0x4(%eax),%eax
   1e695:	83 ec 0c             	sub    $0xc,%esp
   1e698:	50                   	push   %eax
   1e699:	e8 a6 a4 ff ff       	call   18b44 <kmalloc>
   1e69e:	83 c4 10             	add    $0x10,%esp
   1e6a1:	89 c2                	mov    %eax,%edx
   1e6a3:	8b 45 08             	mov    0x8(%ebp),%eax
   1e6a6:	89 10                	mov    %edx,(%eax)
   1e6a8:	c7 45 f4 00 00 00 00 	movl   $0x0,-0xc(%ebp)
   1e6af:	8b 45 08             	mov    0x8(%ebp),%eax
   1e6b2:	8b 40 04             	mov    0x4(%eax),%eax
   1e6b5:	3b 45 f4             	cmp    -0xc(%ebp),%eax
   1e6b8:	76 24                	jbe    1e6de <_ZN6stringC1ERKS_+0x6c>
   1e6ba:	8b 45 08             	mov    0x8(%ebp),%eax
   1e6bd:	8b 10                	mov    (%eax),%edx
   1e6bf:	8b 45 f4             	mov    -0xc(%ebp),%eax
   1e6c2:	8d 1c 02             	lea    (%edx,%eax,1),%ebx
   1e6c5:	83 ec 08             	sub    $0x8,%esp
   1e6c8:	ff 75 f4             	pushl  -0xc(%ebp)
   1e6cb:	ff 75 0c             	pushl  0xc(%ebp)
   1e6ce:	e8 41 00 00 00       	call   1e714 <_ZNK6stringixEj>
   1e6d3:	83 c4 10             	add    $0x10,%esp
   1e6d6:	88 03                	mov    %al,(%ebx)
   1e6d8:	83 45 f4 01          	addl   $0x1,-0xc(%ebp)
   1e6dc:	eb d1                	jmp    1e6af <_ZN6stringC1ERKS_+0x3d>
   1e6de:	90                   	nop
   1e6df:	8b 5d fc             	mov    -0x4(%ebp),%ebx
   1e6e2:	c9                   	leave  
   1e6e3:	c3                   	ret    

0001e6e4 <_ZN6stringD1Ev>:
   1e6e4:	55                   	push   %ebp
   1e6e5:	89 e5                	mov    %esp,%ebp
   1e6e7:	83 ec 08             	sub    $0x8,%esp
   1e6ea:	8b 45 08             	mov    0x8(%ebp),%eax
   1e6ed:	8b 00                	mov    (%eax),%eax
   1e6ef:	83 ec 0c             	sub    $0xc,%esp
   1e6f2:	50                   	push   %eax
   1e6f3:	e8 8b ab ff ff       	call   19283 <kfree>
   1e6f8:	83 c4 10             	add    $0x10,%esp
   1e6fb:	90                   	nop
   1e6fc:	c9                   	leave  
   1e6fd:	c3                   	ret    

0001e6fe <_ZNK6string5c_strEv>:
   1e6fe:	55                   	push   %ebp
   1e6ff:	89 e5                	mov    %esp,%ebp
   1e701:	8b 45 08             	mov    0x8(%ebp),%eax
   1e704:	8b 00                	mov    (%eax),%eax
   1e706:	5d                   	pop    %ebp
   1e707:	c3                   	ret    

0001e708 <_ZNK6string3lenEv>:
   1e708:	55                   	push   %ebp
   1e709:	89 e5                	mov    %esp,%ebp
   1e70b:	8b 45 08             	mov    0x8(%ebp),%eax
   1e70e:	8b 40 04             	mov    0x4(%eax),%eax
   1e711:	5d                   	pop    %ebp
   1e712:	c3                   	ret    
   1e713:	90                   	nop

0001e714 <_ZNK6stringixEj>:
   1e714:	55                   	push   %ebp
   1e715:	89 e5                	mov    %esp,%ebp
   1e717:	8b 45 08             	mov    0x8(%ebp),%eax
   1e71a:	8b 40 04             	mov    0x4(%eax),%eax
   1e71d:	3b 45 0c             	cmp    0xc(%ebp),%eax
   1e720:	77 07                	ja     1e729 <_ZNK6stringixEj+0x15>
   1e722:	b8 00 00 00 00       	mov    $0x0,%eax
   1e727:	eb 0d                	jmp    1e736 <_ZNK6stringixEj+0x22>
   1e729:	8b 45 08             	mov    0x8(%ebp),%eax
   1e72c:	8b 10                	mov    (%eax),%edx
   1e72e:	8b 45 0c             	mov    0xc(%ebp),%eax
   1e731:	01 d0                	add    %edx,%eax
   1e733:	0f b6 00             	movzbl (%eax),%eax
   1e736:	5d                   	pop    %ebp
   1e737:	c3                   	ret    

0001e738 <_ZN6stringixEj>:
   1e738:	55                   	push   %ebp
   1e739:	89 e5                	mov    %esp,%ebp
   1e73b:	8b 45 08             	mov    0x8(%ebp),%eax
   1e73e:	8b 40 04             	mov    0x4(%eax),%eax
   1e741:	3b 45 0c             	cmp    0xc(%ebp),%eax
   1e744:	77 07                	ja     1e74d <_ZN6stringixEj+0x15>
   1e746:	8b 45 08             	mov    0x8(%ebp),%eax
   1e749:	8b 00                	mov    (%eax),%eax
   1e74b:	eb 0a                	jmp    1e757 <_ZN6stringixEj+0x1f>
   1e74d:	8b 45 08             	mov    0x8(%ebp),%eax
   1e750:	8b 10                	mov    (%eax),%edx
   1e752:	8b 45 0c             	mov    0xc(%ebp),%eax
   1e755:	01 d0                	add    %edx,%eax
   1e757:	5d                   	pop    %ebp
   1e758:	c3                   	ret    
   1e759:	90                   	nop

0001e75a <_ZN6stringaSERKS_>:
   1e75a:	55                   	push   %ebp
   1e75b:	89 e5                	mov    %esp,%ebp
   1e75d:	53                   	push   %ebx
   1e75e:	83 ec 14             	sub    $0x14,%esp
   1e761:	8b 45 08             	mov    0x8(%ebp),%eax
   1e764:	3b 45 0c             	cmp    0xc(%ebp),%eax
   1e767:	75 05                	jne    1e76e <_ZN6stringaSERKS_+0x14>
   1e769:	8b 45 08             	mov    0x8(%ebp),%eax
   1e76c:	eb 79                	jmp    1e7e7 <_ZN6stringaSERKS_+0x8d>
   1e76e:	8b 45 08             	mov    0x8(%ebp),%eax
   1e771:	8b 00                	mov    (%eax),%eax
   1e773:	83 ec 0c             	sub    $0xc,%esp
   1e776:	50                   	push   %eax
   1e777:	e8 07 ab ff ff       	call   19283 <kfree>
   1e77c:	83 c4 10             	add    $0x10,%esp
   1e77f:	83 ec 0c             	sub    $0xc,%esp
   1e782:	ff 75 0c             	pushl  0xc(%ebp)
   1e785:	e8 7e ff ff ff       	call   1e708 <_ZNK6string3lenEv>
   1e78a:	83 c4 10             	add    $0x10,%esp
   1e78d:	89 c2                	mov    %eax,%edx
   1e78f:	8b 45 08             	mov    0x8(%ebp),%eax
   1e792:	89 50 04             	mov    %edx,0x4(%eax)
   1e795:	8b 45 08             	mov    0x8(%ebp),%eax
   1e798:	8b 40 04             	mov    0x4(%eax),%eax
   1e79b:	83 ec 0c             	sub    $0xc,%esp
   1e79e:	50                   	push   %eax
   1e79f:	e8 a0 a3 ff ff       	call   18b44 <kmalloc>
   1e7a4:	83 c4 10             	add    $0x10,%esp
   1e7a7:	89 c2                	mov    %eax,%edx
   1e7a9:	8b 45 08             	mov    0x8(%ebp),%eax
   1e7ac:	89 10                	mov    %edx,(%eax)
   1e7ae:	c7 45 f4 00 00 00 00 	movl   $0x0,-0xc(%ebp)
   1e7b5:	8b 45 08             	mov    0x8(%ebp),%eax
   1e7b8:	8b 40 04             	mov    0x4(%eax),%eax
   1e7bb:	3b 45 f4             	cmp    -0xc(%ebp),%eax
   1e7be:	76 24                	jbe    1e7e4 <_ZN6stringaSERKS_+0x8a>
   1e7c0:	8b 45 08             	mov    0x8(%ebp),%eax
   1e7c3:	8b 10                	mov    (%eax),%edx
   1e7c5:	8b 45 f4             	mov    -0xc(%ebp),%eax
   1e7c8:	8d 1c 02             	lea    (%edx,%eax,1),%ebx
   1e7cb:	83 ec 08             	sub    $0x8,%esp
   1e7ce:	ff 75 f4             	pushl  -0xc(%ebp)
   1e7d1:	ff 75 0c             	pushl  0xc(%ebp)
   1e7d4:	e8 3b ff ff ff       	call   1e714 <_ZNK6stringixEj>
   1e7d9:	83 c4 10             	add    $0x10,%esp
   1e7dc:	88 03                	mov    %al,(%ebx)
   1e7de:	83 45 f4 01          	addl   $0x1,-0xc(%ebp)
   1e7e2:	eb d1                	jmp    1e7b5 <_ZN6stringaSERKS_+0x5b>
   1e7e4:	8b 45 08             	mov    0x8(%ebp),%eax
   1e7e7:	8b 5d fc             	mov    -0x4(%ebp),%ebx
   1e7ea:	c9                   	leave  
   1e7eb:	c3                   	ret    

0001e7ec <_ZN6stringpLERKS_>:
   1e7ec:	55                   	push   %ebp
   1e7ed:	89 e5                	mov    %esp,%ebp
   1e7ef:	53                   	push   %ebx
   1e7f0:	83 ec 14             	sub    $0x14,%esp
   1e7f3:	8b 45 08             	mov    0x8(%ebp),%eax
   1e7f6:	8b 58 04             	mov    0x4(%eax),%ebx
   1e7f9:	ff 75 0c             	pushl  0xc(%ebp)
   1e7fc:	e8 07 ff ff ff       	call   1e708 <_ZNK6string3lenEv>
   1e801:	83 c4 04             	add    $0x4,%esp
   1e804:	01 d8                	add    %ebx,%eax
   1e806:	89 45 ec             	mov    %eax,-0x14(%ebp)
   1e809:	83 ec 0c             	sub    $0xc,%esp
   1e80c:	ff 75 ec             	pushl  -0x14(%ebp)
   1e80f:	e8 30 a3 ff ff       	call   18b44 <kmalloc>
   1e814:	83 c4 10             	add    $0x10,%esp
   1e817:	89 45 e8             	mov    %eax,-0x18(%ebp)
   1e81a:	c7 45 f4 00 00 00 00 	movl   $0x0,-0xc(%ebp)
   1e821:	8b 45 08             	mov    0x8(%ebp),%eax
   1e824:	8b 40 04             	mov    0x4(%eax),%eax
   1e827:	3b 45 f4             	cmp    -0xc(%ebp),%eax
   1e82a:	76 1d                	jbe    1e849 <_ZN6stringpLERKS_+0x5d>
   1e82c:	8b 55 e8             	mov    -0x18(%ebp),%edx
   1e82f:	8b 45 f4             	mov    -0xc(%ebp),%eax
   1e832:	01 c2                	add    %eax,%edx
   1e834:	8b 45 08             	mov    0x8(%ebp),%eax
   1e837:	8b 08                	mov    (%eax),%ecx
   1e839:	8b 45 f4             	mov    -0xc(%ebp),%eax
   1e83c:	01 c8                	add    %ecx,%eax
   1e83e:	0f b6 00             	movzbl (%eax),%eax
   1e841:	88 02                	mov    %al,(%edx)
   1e843:	83 45 f4 01          	addl   $0x1,-0xc(%ebp)
   1e847:	eb d8                	jmp    1e821 <_ZN6stringpLERKS_+0x35>
   1e849:	c7 45 f0 00 00 00 00 	movl   $0x0,-0x10(%ebp)
   1e850:	83 ec 0c             	sub    $0xc,%esp
   1e853:	ff 75 0c             	pushl  0xc(%ebp)
   1e856:	e8 ad fe ff ff       	call   1e708 <_ZNK6string3lenEv>
   1e85b:	83 c4 10             	add    $0x10,%esp
   1e85e:	3b 45 f0             	cmp    -0x10(%ebp),%eax
   1e861:	0f 97 c0             	seta   %al
   1e864:	84 c0                	test   %al,%al
   1e866:	74 50                	je     1e8b8 <_ZN6stringpLERKS_+0xcc>
   1e868:	8b 45 08             	mov    0x8(%ebp),%eax
   1e86b:	8b 50 04             	mov    0x4(%eax),%edx
   1e86e:	8b 45 f0             	mov    -0x10(%ebp),%eax
   1e871:	01 c2                	add    %eax,%edx
   1e873:	8b 45 e8             	mov    -0x18(%ebp),%eax
   1e876:	8d 1c 02             	lea    (%edx,%eax,1),%ebx
   1e879:	83 ec 08             	sub    $0x8,%esp
   1e87c:	ff 75 f0             	pushl  -0x10(%ebp)
   1e87f:	ff 75 0c             	pushl  0xc(%ebp)
   1e882:	e8 8d fe ff ff       	call   1e714 <_ZNK6stringixEj>
   1e887:	83 c4 10             	add    $0x10,%esp
   1e88a:	88 03                	mov    %al,(%ebx)
   1e88c:	8b 45 08             	mov    0x8(%ebp),%eax
   1e88f:	8b 10                	mov    (%eax),%edx
   1e891:	8b 45 08             	mov    0x8(%ebp),%eax
   1e894:	8b 48 04             	mov    0x4(%eax),%ecx
   1e897:	8b 45 f0             	mov    -0x10(%ebp),%eax
   1e89a:	01 c8                	add    %ecx,%eax
   1e89c:	8d 1c 02             	lea    (%edx,%eax,1),%ebx
   1e89f:	83 ec 08             	sub    $0x8,%esp
   1e8a2:	ff 75 f0             	pushl  -0x10(%ebp)
   1e8a5:	ff 75 0c             	pushl  0xc(%ebp)
   1e8a8:	e8 67 fe ff ff       	call   1e714 <_ZNK6stringixEj>
   1e8ad:	83 c4 10             	add    $0x10,%esp
   1e8b0:	88 03                	mov    %al,(%ebx)
   1e8b2:	83 45 f0 01          	addl   $0x1,-0x10(%ebp)
   1e8b6:	eb 98                	jmp    1e850 <_ZN6stringpLERKS_+0x64>
   1e8b8:	8b 45 08             	mov    0x8(%ebp),%eax
   1e8bb:	8b 55 ec             	mov    -0x14(%ebp),%edx
   1e8be:	89 50 04             	mov    %edx,0x4(%eax)
   1e8c1:	8b 45 08             	mov    0x8(%ebp),%eax
   1e8c4:	8b 00                	mov    (%eax),%eax
   1e8c6:	83 ec 0c             	sub    $0xc,%esp
   1e8c9:	50                   	push   %eax
   1e8ca:	e8 b4 a9 ff ff       	call   19283 <kfree>
   1e8cf:	83 c4 10             	add    $0x10,%esp
   1e8d2:	8b 45 08             	mov    0x8(%ebp),%eax
   1e8d5:	8b 55 e8             	mov    -0x18(%ebp),%edx
   1e8d8:	89 10                	mov    %edx,(%eax)
   1e8da:	8b 45 08             	mov    0x8(%ebp),%eax
   1e8dd:	8b 5d fc             	mov    -0x4(%ebp),%ebx
   1e8e0:	c9                   	leave  
   1e8e1:	c3                   	ret    

0001e8e2 <_ZplRK6stringS1_>:
   1e8e2:	55                   	push   %ebp
   1e8e3:	89 e5                	mov    %esp,%ebp
   1e8e5:	83 ec 18             	sub    $0x18,%esp
   1e8e8:	83 ec 08             	sub    $0x8,%esp
   1e8eb:	ff 75 0c             	pushl  0xc(%ebp)
   1e8ee:	8d 45 f0             	lea    -0x10(%ebp),%eax
   1e8f1:	50                   	push   %eax
   1e8f2:	e8 7b fd ff ff       	call   1e672 <_ZN6stringC1ERKS_>
   1e8f7:	83 c4 10             	add    $0x10,%esp
   1e8fa:	83 ec 08             	sub    $0x8,%esp
   1e8fd:	ff 75 10             	pushl  0x10(%ebp)
   1e900:	8d 45 f0             	lea    -0x10(%ebp),%eax
   1e903:	50                   	push   %eax
   1e904:	e8 e3 fe ff ff       	call   1e7ec <_ZN6stringpLERKS_>
   1e909:	83 c4 10             	add    $0x10,%esp
   1e90c:	83 ec 08             	sub    $0x8,%esp
   1e90f:	50                   	push   %eax
   1e910:	ff 75 08             	pushl  0x8(%ebp)
   1e913:	e8 5a fd ff ff       	call   1e672 <_ZN6stringC1ERKS_>
   1e918:	83 c4 10             	add    $0x10,%esp
   1e91b:	83 ec 0c             	sub    $0xc,%esp
   1e91e:	8d 45 f0             	lea    -0x10(%ebp),%eax
   1e921:	50                   	push   %eax
   1e922:	e8 bd fd ff ff       	call   1e6e4 <_ZN6stringD1Ev>
   1e927:	83 c4 10             	add    $0x10,%esp
   1e92a:	90                   	nop
   1e92b:	8b 45 08             	mov    0x8(%ebp),%eax
   1e92e:	c9                   	leave  
   1e92f:	c2 04 00             	ret    $0x4

0001e932 <_ZplRK6stringc>:
   1e932:	55                   	push   %ebp
   1e933:	89 e5                	mov    %esp,%ebp
   1e935:	83 ec 28             	sub    $0x28,%esp
   1e938:	8b 45 10             	mov    0x10(%ebp),%eax
   1e93b:	88 45 e4             	mov    %al,-0x1c(%ebp)
   1e93e:	0f be 45 e4          	movsbl -0x1c(%ebp),%eax
   1e942:	83 ec 08             	sub    $0x8,%esp
   1e945:	50                   	push   %eax
   1e946:	8d 45 e8             	lea    -0x18(%ebp),%eax
   1e949:	50                   	push   %eax
   1e94a:	e8 57 fc ff ff       	call   1e5a6 <_ZN6stringC1Ec>
   1e94f:	83 c4 10             	add    $0x10,%esp
   1e952:	83 ec 08             	sub    $0x8,%esp
   1e955:	ff 75 0c             	pushl  0xc(%ebp)
   1e958:	8d 45 f0             	lea    -0x10(%ebp),%eax
   1e95b:	50                   	push   %eax
   1e95c:	e8 11 fd ff ff       	call   1e672 <_ZN6stringC1ERKS_>
   1e961:	83 c4 10             	add    $0x10,%esp
   1e964:	83 ec 08             	sub    $0x8,%esp
   1e967:	8d 45 e8             	lea    -0x18(%ebp),%eax
   1e96a:	50                   	push   %eax
   1e96b:	8d 45 f0             	lea    -0x10(%ebp),%eax
   1e96e:	50                   	push   %eax
   1e96f:	e8 78 fe ff ff       	call   1e7ec <_ZN6stringpLERKS_>
   1e974:	83 c4 10             	add    $0x10,%esp
   1e977:	83 ec 08             	sub    $0x8,%esp
   1e97a:	50                   	push   %eax
   1e97b:	ff 75 08             	pushl  0x8(%ebp)
   1e97e:	e8 ef fc ff ff       	call   1e672 <_ZN6stringC1ERKS_>
   1e983:	83 c4 10             	add    $0x10,%esp
   1e986:	83 ec 0c             	sub    $0xc,%esp
   1e989:	8d 45 f0             	lea    -0x10(%ebp),%eax
   1e98c:	50                   	push   %eax
   1e98d:	e8 52 fd ff ff       	call   1e6e4 <_ZN6stringD1Ev>
   1e992:	83 c4 10             	add    $0x10,%esp
   1e995:	83 ec 0c             	sub    $0xc,%esp
   1e998:	8d 45 e8             	lea    -0x18(%ebp),%eax
   1e99b:	50                   	push   %eax
   1e99c:	e8 43 fd ff ff       	call   1e6e4 <_ZN6stringD1Ev>
   1e9a1:	83 c4 10             	add    $0x10,%esp
   1e9a4:	90                   	nop
   1e9a5:	8b 45 08             	mov    0x8(%ebp),%eax
   1e9a8:	c9                   	leave  
   1e9a9:	c2 04 00             	ret    $0x4

0001e9ac <_ZplRK6stringPKc>:
   1e9ac:	55                   	push   %ebp
   1e9ad:	89 e5                	mov    %esp,%ebp
   1e9af:	83 ec 18             	sub    $0x18,%esp
   1e9b2:	83 ec 08             	sub    $0x8,%esp
   1e9b5:	ff 75 10             	pushl  0x10(%ebp)
   1e9b8:	8d 45 e8             	lea    -0x18(%ebp),%eax
   1e9bb:	50                   	push   %eax
   1e9bc:	e8 1d fc ff ff       	call   1e5de <_ZN6stringC1EPKc>
   1e9c1:	83 c4 10             	add    $0x10,%esp
   1e9c4:	83 ec 08             	sub    $0x8,%esp
   1e9c7:	ff 75 0c             	pushl  0xc(%ebp)
   1e9ca:	8d 45 f0             	lea    -0x10(%ebp),%eax
   1e9cd:	50                   	push   %eax
   1e9ce:	e8 9f fc ff ff       	call   1e672 <_ZN6stringC1ERKS_>
   1e9d3:	83 c4 10             	add    $0x10,%esp
   1e9d6:	83 ec 08             	sub    $0x8,%esp
   1e9d9:	8d 45 e8             	lea    -0x18(%ebp),%eax
   1e9dc:	50                   	push   %eax
   1e9dd:	8d 45 f0             	lea    -0x10(%ebp),%eax
   1e9e0:	50                   	push   %eax
   1e9e1:	e8 06 fe ff ff       	call   1e7ec <_ZN6stringpLERKS_>
   1e9e6:	83 c4 10             	add    $0x10,%esp
   1e9e9:	83 ec 08             	sub    $0x8,%esp
   1e9ec:	50                   	push   %eax
   1e9ed:	ff 75 08             	pushl  0x8(%ebp)
   1e9f0:	e8 7d fc ff ff       	call   1e672 <_ZN6stringC1ERKS_>
   1e9f5:	83 c4 10             	add    $0x10,%esp
   1e9f8:	83 ec 0c             	sub    $0xc,%esp
   1e9fb:	8d 45 f0             	lea    -0x10(%ebp),%eax
   1e9fe:	50                   	push   %eax
   1e9ff:	e8 e0 fc ff ff       	call   1e6e4 <_ZN6stringD1Ev>
   1ea04:	83 c4 10             	add    $0x10,%esp
   1ea07:	83 ec 0c             	sub    $0xc,%esp
   1ea0a:	8d 45 e8             	lea    -0x18(%ebp),%eax
   1ea0d:	50                   	push   %eax
   1ea0e:	e8 d1 fc ff ff       	call   1e6e4 <_ZN6stringD1Ev>
   1ea13:	83 c4 10             	add    $0x10,%esp
   1ea16:	90                   	nop
   1ea17:	8b 45 08             	mov    0x8(%ebp),%eax
   1ea1a:	c9                   	leave  
   1ea1b:	c2 04 00             	ret    $0x4

0001ea1e <_ZplcRK6string>:
   1ea1e:	55                   	push   %ebp
   1ea1f:	89 e5                	mov    %esp,%ebp
   1ea21:	83 ec 28             	sub    $0x28,%esp
   1ea24:	8b 45 0c             	mov    0xc(%ebp),%eax
   1ea27:	88 45 e4             	mov    %al,-0x1c(%ebp)
   1ea2a:	0f be 45 e4          	movsbl -0x1c(%ebp),%eax
   1ea2e:	83 ec 08             	sub    $0x8,%esp
   1ea31:	50                   	push   %eax
   1ea32:	8d 45 f0             	lea    -0x10(%ebp),%eax
   1ea35:	50                   	push   %eax
   1ea36:	e8 6b fb ff ff       	call   1e5a6 <_ZN6stringC1Ec>
   1ea3b:	83 c4 10             	add    $0x10,%esp
   1ea3e:	83 ec 08             	sub    $0x8,%esp
   1ea41:	ff 75 10             	pushl  0x10(%ebp)
   1ea44:	8d 45 f0             	lea    -0x10(%ebp),%eax
   1ea47:	50                   	push   %eax
   1ea48:	e8 9f fd ff ff       	call   1e7ec <_ZN6stringpLERKS_>
   1ea4d:	83 c4 10             	add    $0x10,%esp
   1ea50:	83 ec 08             	sub    $0x8,%esp
   1ea53:	50                   	push   %eax
   1ea54:	ff 75 08             	pushl  0x8(%ebp)
   1ea57:	e8 16 fc ff ff       	call   1e672 <_ZN6stringC1ERKS_>
   1ea5c:	83 c4 10             	add    $0x10,%esp
   1ea5f:	83 ec 0c             	sub    $0xc,%esp
   1ea62:	8d 45 f0             	lea    -0x10(%ebp),%eax
   1ea65:	50                   	push   %eax
   1ea66:	e8 79 fc ff ff       	call   1e6e4 <_ZN6stringD1Ev>
   1ea6b:	83 c4 10             	add    $0x10,%esp
   1ea6e:	90                   	nop
   1ea6f:	8b 45 08             	mov    0x8(%ebp),%eax
   1ea72:	c9                   	leave  
   1ea73:	c2 04 00             	ret    $0x4

0001ea76 <_ZplPKcRK6string>:
   1ea76:	55                   	push   %ebp
   1ea77:	89 e5                	mov    %esp,%ebp
   1ea79:	83 ec 18             	sub    $0x18,%esp
   1ea7c:	83 ec 08             	sub    $0x8,%esp
   1ea7f:	ff 75 0c             	pushl  0xc(%ebp)
   1ea82:	8d 45 f0             	lea    -0x10(%ebp),%eax
   1ea85:	50                   	push   %eax
   1ea86:	e8 53 fb ff ff       	call   1e5de <_ZN6stringC1EPKc>
   1ea8b:	83 c4 10             	add    $0x10,%esp
   1ea8e:	83 ec 08             	sub    $0x8,%esp
   1ea91:	ff 75 10             	pushl  0x10(%ebp)
   1ea94:	8d 45 f0             	lea    -0x10(%ebp),%eax
   1ea97:	50                   	push   %eax
   1ea98:	e8 4f fd ff ff       	call   1e7ec <_ZN6stringpLERKS_>
   1ea9d:	83 c4 10             	add    $0x10,%esp
   1eaa0:	83 ec 08             	sub    $0x8,%esp
   1eaa3:	50                   	push   %eax
   1eaa4:	ff 75 08             	pushl  0x8(%ebp)
   1eaa7:	e8 c6 fb ff ff       	call   1e672 <_ZN6stringC1ERKS_>
   1eaac:	83 c4 10             	add    $0x10,%esp
   1eaaf:	83 ec 0c             	sub    $0xc,%esp
   1eab2:	8d 45 f0             	lea    -0x10(%ebp),%eax
   1eab5:	50                   	push   %eax
   1eab6:	e8 29 fc ff ff       	call   1e6e4 <_ZN6stringD1Ev>
   1eabb:	83 c4 10             	add    $0x10,%esp
   1eabe:	90                   	nop
   1eabf:	8b 45 08             	mov    0x8(%ebp),%eax
   1eac2:	c9                   	leave  
   1eac3:	c2 04 00             	ret    $0x4

0001eac6 <strcat>:
   1eac6:	55                   	push   %ebp
   1eac7:	89 e5                	mov    %esp,%ebp
   1eac9:	83 ec 10             	sub    $0x10,%esp
   1eacc:	c7 45 fc 00 00 00 00 	movl   $0x0,-0x4(%ebp)
   1ead3:	8b 55 08             	mov    0x8(%ebp),%edx
   1ead6:	8b 45 fc             	mov    -0x4(%ebp),%eax
   1ead9:	01 d0                	add    %edx,%eax
   1eadb:	0f b6 00             	movzbl (%eax),%eax
   1eade:	84 c0                	test   %al,%al
   1eae0:	74 06                	je     1eae8 <strcat+0x22>
   1eae2:	83 45 fc 01          	addl   $0x1,-0x4(%ebp)
   1eae6:	eb eb                	jmp    1ead3 <strcat+0xd>
   1eae8:	c7 45 f8 00 00 00 00 	movl   $0x0,-0x8(%ebp)
   1eaef:	8b 55 0c             	mov    0xc(%ebp),%edx
   1eaf2:	8b 45 f8             	mov    -0x8(%ebp),%eax
   1eaf5:	01 d0                	add    %edx,%eax
   1eaf7:	0f b6 00             	movzbl (%eax),%eax
   1eafa:	84 c0                	test   %al,%al
   1eafc:	74 20                	je     1eb1e <strcat+0x58>
   1eafe:	8b 55 fc             	mov    -0x4(%ebp),%edx
   1eb01:	8b 45 f8             	mov    -0x8(%ebp),%eax
   1eb04:	01 c2                	add    %eax,%edx
   1eb06:	8b 45 08             	mov    0x8(%ebp),%eax
   1eb09:	01 c2                	add    %eax,%edx
   1eb0b:	8b 4d 0c             	mov    0xc(%ebp),%ecx
   1eb0e:	8b 45 f8             	mov    -0x8(%ebp),%eax
   1eb11:	01 c8                	add    %ecx,%eax
   1eb13:	0f b6 00             	movzbl (%eax),%eax
   1eb16:	88 02                	mov    %al,(%edx)
   1eb18:	83 45 f8 01          	addl   $0x1,-0x8(%ebp)
   1eb1c:	eb d1                	jmp    1eaef <strcat+0x29>
   1eb1e:	8b 55 fc             	mov    -0x4(%ebp),%edx
   1eb21:	8b 45 f8             	mov    -0x8(%ebp),%eax
   1eb24:	01 c2                	add    %eax,%edx
   1eb26:	8b 45 08             	mov    0x8(%ebp),%eax
   1eb29:	01 d0                	add    %edx,%eax
   1eb2b:	c6 00 00             	movb   $0x0,(%eax)
   1eb2e:	8b 45 08             	mov    0x8(%ebp),%eax
   1eb31:	c9                   	leave  
   1eb32:	c3                   	ret    

0001eb33 <_Z7strncatPciPKc>:
   1eb33:	55                   	push   %ebp
   1eb34:	89 e5                	mov    %esp,%ebp
   1eb36:	83 ec 10             	sub    $0x10,%esp
   1eb39:	c7 45 fc 00 00 00 00 	movl   $0x0,-0x4(%ebp)
   1eb40:	8b 45 fc             	mov    -0x4(%ebp),%eax
   1eb43:	3b 45 0c             	cmp    0xc(%ebp),%eax
   1eb46:	7d 06                	jge    1eb4e <_Z7strncatPciPKc+0x1b>
   1eb48:	83 45 fc 01          	addl   $0x1,-0x4(%ebp)
   1eb4c:	eb f2                	jmp    1eb40 <_Z7strncatPciPKc+0xd>
   1eb4e:	c7 45 f8 00 00 00 00 	movl   $0x0,-0x8(%ebp)
   1eb55:	8b 45 f8             	mov    -0x8(%ebp),%eax
   1eb58:	3b 45 0c             	cmp    0xc(%ebp),%eax
   1eb5b:	7d 22                	jge    1eb7f <_Z7strncatPciPKc+0x4c>
   1eb5d:	8b 55 fc             	mov    -0x4(%ebp),%edx
   1eb60:	8b 45 f8             	mov    -0x8(%ebp),%eax
   1eb63:	01 d0                	add    %edx,%eax
   1eb65:	89 c2                	mov    %eax,%edx
   1eb67:	8b 45 08             	mov    0x8(%ebp),%eax
   1eb6a:	01 c2                	add    %eax,%edx
   1eb6c:	8b 4d f8             	mov    -0x8(%ebp),%ecx
   1eb6f:	8b 45 10             	mov    0x10(%ebp),%eax
   1eb72:	01 c8                	add    %ecx,%eax
   1eb74:	0f b6 00             	movzbl (%eax),%eax
   1eb77:	88 02                	mov    %al,(%edx)
   1eb79:	83 45 f8 01          	addl   $0x1,-0x8(%ebp)
   1eb7d:	eb d6                	jmp    1eb55 <_Z7strncatPciPKc+0x22>
   1eb7f:	8b 55 fc             	mov    -0x4(%ebp),%edx
   1eb82:	8b 45 f8             	mov    -0x8(%ebp),%eax
   1eb85:	01 d0                	add    %edx,%eax
   1eb87:	89 c2                	mov    %eax,%edx
   1eb89:	8b 45 08             	mov    0x8(%ebp),%eax
   1eb8c:	01 d0                	add    %edx,%eax
   1eb8e:	c6 00 00             	movb   $0x0,(%eax)
   1eb91:	8b 45 08             	mov    0x8(%ebp),%eax
   1eb94:	c9                   	leave  
   1eb95:	c3                   	ret    

0001eb96 <_Z7reversePci>:
   1eb96:	55                   	push   %ebp
   1eb97:	89 e5                	mov    %esp,%ebp
   1eb99:	83 ec 10             	sub    $0x10,%esp
   1eb9c:	8b 45 08             	mov    0x8(%ebp),%eax
   1eb9f:	89 45 f8             	mov    %eax,-0x8(%ebp)
   1eba2:	8b 45 08             	mov    0x8(%ebp),%eax
   1eba5:	89 45 f4             	mov    %eax,-0xc(%ebp)
   1eba8:	c7 45 fc 00 00 00 00 	movl   $0x0,-0x4(%ebp)
   1ebaf:	8b 45 0c             	mov    0xc(%ebp),%eax
   1ebb2:	83 e8 01             	sub    $0x1,%eax
   1ebb5:	3b 45 fc             	cmp    -0x4(%ebp),%eax
   1ebb8:	7e 0a                	jle    1ebc4 <_Z7reversePci+0x2e>
   1ebba:	83 45 f4 01          	addl   $0x1,-0xc(%ebp)
   1ebbe:	83 45 fc 01          	addl   $0x1,-0x4(%ebp)
   1ebc2:	eb eb                	jmp    1ebaf <_Z7reversePci+0x19>
   1ebc4:	c7 45 fc 00 00 00 00 	movl   $0x0,-0x4(%ebp)
   1ebcb:	8b 45 0c             	mov    0xc(%ebp),%eax
   1ebce:	89 c2                	mov    %eax,%edx
   1ebd0:	c1 ea 1f             	shr    $0x1f,%edx
   1ebd3:	01 d0                	add    %edx,%eax
   1ebd5:	d1 f8                	sar    %eax
   1ebd7:	3b 45 fc             	cmp    -0x4(%ebp),%eax
   1ebda:	7e 2b                	jle    1ec07 <_Z7reversePci+0x71>
   1ebdc:	8b 45 f4             	mov    -0xc(%ebp),%eax
   1ebdf:	0f b6 00             	movzbl (%eax),%eax
   1ebe2:	88 45 f3             	mov    %al,-0xd(%ebp)
   1ebe5:	8b 45 f8             	mov    -0x8(%ebp),%eax
   1ebe8:	0f b6 10             	movzbl (%eax),%edx
   1ebeb:	8b 45 f4             	mov    -0xc(%ebp),%eax
   1ebee:	88 10                	mov    %dl,(%eax)
   1ebf0:	8b 45 f8             	mov    -0x8(%ebp),%eax
   1ebf3:	0f b6 55 f3          	movzbl -0xd(%ebp),%edx
   1ebf7:	88 10                	mov    %dl,(%eax)
   1ebf9:	83 45 f8 01          	addl   $0x1,-0x8(%ebp)
   1ebfd:	83 6d f4 01          	subl   $0x1,-0xc(%ebp)
   1ec01:	83 45 fc 01          	addl   $0x1,-0x4(%ebp)
   1ec05:	eb c4                	jmp    1ebcb <_Z7reversePci+0x35>
   1ec07:	90                   	nop
   1ec08:	c9                   	leave  
   1ec09:	c3                   	ret    

0001ec0a <_Z6strlenPc>:
   1ec0a:	55                   	push   %ebp
   1ec0b:	89 e5                	mov    %esp,%ebp
   1ec0d:	83 ec 10             	sub    $0x10,%esp
   1ec10:	c7 45 fc 00 00 00 00 	movl   $0x0,-0x4(%ebp)
   1ec17:	8b 55 fc             	mov    -0x4(%ebp),%edx
   1ec1a:	8b 45 08             	mov    0x8(%ebp),%eax
   1ec1d:	01 d0                	add    %edx,%eax
   1ec1f:	0f b6 00             	movzbl (%eax),%eax
   1ec22:	84 c0                	test   %al,%al
   1ec24:	74 06                	je     1ec2c <_Z6strlenPc+0x22>
   1ec26:	83 45 fc 01          	addl   $0x1,-0x4(%ebp)
   1ec2a:	eb eb                	jmp    1ec17 <_Z6strlenPc+0xd>
   1ec2c:	8b 45 fc             	mov    -0x4(%ebp),%eax
   1ec2f:	c9                   	leave  
   1ec30:	c3                   	ret    

0001ec31 <_Z8strindexcPc>:
   1ec31:	55                   	push   %ebp
   1ec32:	89 e5                	mov    %esp,%ebp
   1ec34:	83 ec 14             	sub    $0x14,%esp
   1ec37:	8b 45 08             	mov    0x8(%ebp),%eax
   1ec3a:	88 45 ec             	mov    %al,-0x14(%ebp)
   1ec3d:	c7 45 fc 00 00 00 00 	movl   $0x0,-0x4(%ebp)
   1ec44:	8b 55 fc             	mov    -0x4(%ebp),%edx
   1ec47:	8b 45 0c             	mov    0xc(%ebp),%eax
   1ec4a:	01 d0                	add    %edx,%eax
   1ec4c:	0f b6 00             	movzbl (%eax),%eax
   1ec4f:	84 c0                	test   %al,%al
   1ec51:	74 1b                	je     1ec6e <_Z8strindexcPc+0x3d>
   1ec53:	8b 55 fc             	mov    -0x4(%ebp),%edx
   1ec56:	8b 45 0c             	mov    0xc(%ebp),%eax
   1ec59:	01 d0                	add    %edx,%eax
   1ec5b:	0f b6 00             	movzbl (%eax),%eax
   1ec5e:	3a 45 ec             	cmp    -0x14(%ebp),%al
   1ec61:	75 05                	jne    1ec68 <_Z8strindexcPc+0x37>
   1ec63:	8b 45 fc             	mov    -0x4(%ebp),%eax
   1ec66:	eb 11                	jmp    1ec79 <_Z8strindexcPc+0x48>
   1ec68:	83 45 fc 01          	addl   $0x1,-0x4(%ebp)
   1ec6c:	eb d6                	jmp    1ec44 <_Z8strindexcPc+0x13>
   1ec6e:	ff 75 0c             	pushl  0xc(%ebp)
   1ec71:	e8 94 ff ff ff       	call   1ec0a <_Z6strlenPc>
   1ec76:	83 c4 04             	add    $0x4,%esp
   1ec79:	c9                   	leave  
   1ec7a:	c3                   	ret    

0001ec7b <_Z6strchrPKci>:
   1ec7b:	55                   	push   %ebp
   1ec7c:	89 e5                	mov    %esp,%ebp
   1ec7e:	8b 45 08             	mov    0x8(%ebp),%eax
   1ec81:	0f b6 00             	movzbl (%eax),%eax
   1ec84:	8b 55 0c             	mov    0xc(%ebp),%edx
   1ec87:	38 d0                	cmp    %dl,%al
   1ec89:	74 1c                	je     1eca7 <_Z6strchrPKci+0x2c>
   1ec8b:	8b 45 08             	mov    0x8(%ebp),%eax
   1ec8e:	8d 50 01             	lea    0x1(%eax),%edx
   1ec91:	89 55 08             	mov    %edx,0x8(%ebp)
   1ec94:	0f b6 00             	movzbl (%eax),%eax
   1ec97:	84 c0                	test   %al,%al
   1ec99:	0f 94 c0             	sete   %al
   1ec9c:	84 c0                	test   %al,%al
   1ec9e:	74 de                	je     1ec7e <_Z6strchrPKci+0x3>
   1eca0:	b8 00 00 00 00       	mov    $0x0,%eax
   1eca5:	eb 03                	jmp    1ecaa <_Z6strchrPKci+0x2f>
   1eca7:	8b 45 08             	mov    0x8(%ebp),%eax
   1ecaa:	5d                   	pop    %ebp
   1ecab:	c3                   	ret    

0001ecac <_Z6strspnPKcS0_>:
   1ecac:	55                   	push   %ebp
   1ecad:	89 e5                	mov    %esp,%ebp
   1ecaf:	83 ec 10             	sub    $0x10,%esp
   1ecb2:	c7 45 fc 00 00 00 00 	movl   $0x0,-0x4(%ebp)
   1ecb9:	8b 45 08             	mov    0x8(%ebp),%eax
   1ecbc:	0f b6 00             	movzbl (%eax),%eax
   1ecbf:	84 c0                	test   %al,%al
   1ecc1:	74 26                	je     1ece9 <_Z6strspnPKcS0_+0x3d>
   1ecc3:	8b 45 08             	mov    0x8(%ebp),%eax
   1ecc6:	8d 50 01             	lea    0x1(%eax),%edx
   1ecc9:	89 55 08             	mov    %edx,0x8(%ebp)
   1eccc:	0f b6 00             	movzbl (%eax),%eax
   1eccf:	0f be c0             	movsbl %al,%eax
   1ecd2:	50                   	push   %eax
   1ecd3:	ff 75 0c             	pushl  0xc(%ebp)
   1ecd6:	e8 a0 ff ff ff       	call   1ec7b <_Z6strchrPKci>
   1ecdb:	83 c4 08             	add    $0x8,%esp
   1ecde:	85 c0                	test   %eax,%eax
   1ece0:	74 07                	je     1ece9 <_Z6strspnPKcS0_+0x3d>
   1ece2:	b8 01 00 00 00       	mov    $0x1,%eax
   1ece7:	eb 05                	jmp    1ecee <_Z6strspnPKcS0_+0x42>
   1ece9:	b8 00 00 00 00       	mov    $0x0,%eax
   1ecee:	84 c0                	test   %al,%al
   1ecf0:	74 06                	je     1ecf8 <_Z6strspnPKcS0_+0x4c>
   1ecf2:	83 45 fc 01          	addl   $0x1,-0x4(%ebp)
   1ecf6:	eb c1                	jmp    1ecb9 <_Z6strspnPKcS0_+0xd>
   1ecf8:	8b 45 fc             	mov    -0x4(%ebp),%eax
   1ecfb:	c9                   	leave  
   1ecfc:	c3                   	ret    

0001ecfd <_Z7strcspnPKcS0_>:
   1ecfd:	55                   	push   %ebp
   1ecfe:	89 e5                	mov    %esp,%ebp
   1ed00:	83 ec 10             	sub    $0x10,%esp
   1ed03:	c7 45 fc 00 00 00 00 	movl   $0x0,-0x4(%ebp)
   1ed0a:	8b 45 08             	mov    0x8(%ebp),%eax
   1ed0d:	0f b6 00             	movzbl (%eax),%eax
   1ed10:	84 c0                	test   %al,%al
   1ed12:	74 2d                	je     1ed41 <_Z7strcspnPKcS0_+0x44>
   1ed14:	8b 45 08             	mov    0x8(%ebp),%eax
   1ed17:	0f b6 00             	movzbl (%eax),%eax
   1ed1a:	0f be c0             	movsbl %al,%eax
   1ed1d:	50                   	push   %eax
   1ed1e:	ff 75 0c             	pushl  0xc(%ebp)
   1ed21:	e8 55 ff ff ff       	call   1ec7b <_Z6strchrPKci>
   1ed26:	83 c4 08             	add    $0x8,%esp
   1ed29:	85 c0                	test   %eax,%eax
   1ed2b:	0f 95 c0             	setne  %al
   1ed2e:	84 c0                	test   %al,%al
   1ed30:	74 05                	je     1ed37 <_Z7strcspnPKcS0_+0x3a>
   1ed32:	8b 45 fc             	mov    -0x4(%ebp),%eax
   1ed35:	eb 0d                	jmp    1ed44 <_Z7strcspnPKcS0_+0x47>
   1ed37:	83 45 08 01          	addl   $0x1,0x8(%ebp)
   1ed3b:	83 45 fc 01          	addl   $0x1,-0x4(%ebp)
   1ed3f:	eb c9                	jmp    1ed0a <_Z7strcspnPKcS0_+0xd>
   1ed41:	8b 45 fc             	mov    -0x4(%ebp),%eax
   1ed44:	c9                   	leave  
   1ed45:	c3                   	ret    

0001ed46 <_Z6strtokPcPKc>:
   1ed46:	55                   	push   %ebp
   1ed47:	89 e5                	mov    %esp,%ebp
   1ed49:	53                   	push   %ebx
   1ed4a:	83 7d 08 00          	cmpl   $0x0,0x8(%ebp)
   1ed4e:	74 0a                	je     1ed5a <_Z6strtokPcPKc+0x14>
   1ed50:	8b 45 08             	mov    0x8(%ebp),%eax
   1ed53:	a3 64 82 44 00       	mov    %eax,0x448264
   1ed58:	eb 10                	jmp    1ed6a <_Z6strtokPcPKc+0x24>
   1ed5a:	a1 64 82 44 00       	mov    0x448264,%eax
   1ed5f:	85 c0                	test   %eax,%eax
   1ed61:	75 07                	jne    1ed6a <_Z6strtokPcPKc+0x24>
   1ed63:	b8 00 00 00 00       	mov    $0x0,%eax
   1ed68:	eb 7c                	jmp    1ede6 <_Z6strtokPcPKc+0xa0>
   1ed6a:	8b 1d 64 82 44 00    	mov    0x448264,%ebx
   1ed70:	a1 64 82 44 00       	mov    0x448264,%eax
   1ed75:	ff 75 0c             	pushl  0xc(%ebp)
   1ed78:	50                   	push   %eax
   1ed79:	e8 2e ff ff ff       	call   1ecac <_Z6strspnPKcS0_>
   1ed7e:	83 c4 08             	add    $0x8,%esp
   1ed81:	01 d8                	add    %ebx,%eax
   1ed83:	89 45 08             	mov    %eax,0x8(%ebp)
   1ed86:	ff 75 0c             	pushl  0xc(%ebp)
   1ed89:	ff 75 08             	pushl  0x8(%ebp)
   1ed8c:	e8 6c ff ff ff       	call   1ecfd <_Z7strcspnPKcS0_>
   1ed91:	83 c4 08             	add    $0x8,%esp
   1ed94:	89 c2                	mov    %eax,%edx
   1ed96:	8b 45 08             	mov    0x8(%ebp),%eax
   1ed99:	01 d0                	add    %edx,%eax
   1ed9b:	a3 64 82 44 00       	mov    %eax,0x448264
   1eda0:	a1 64 82 44 00       	mov    0x448264,%eax
   1eda5:	3b 45 08             	cmp    0x8(%ebp),%eax
   1eda8:	75 11                	jne    1edbb <_Z6strtokPcPKc+0x75>
   1edaa:	c7 05 64 82 44 00 00 	movl   $0x0,0x448264
   1edb1:	00 00 00 
   1edb4:	a1 64 82 44 00       	mov    0x448264,%eax
   1edb9:	eb 2b                	jmp    1ede6 <_Z6strtokPcPKc+0xa0>
   1edbb:	a1 64 82 44 00       	mov    0x448264,%eax
   1edc0:	0f b6 00             	movzbl (%eax),%eax
   1edc3:	84 c0                	test   %al,%al
   1edc5:	74 12                	je     1edd9 <_Z6strtokPcPKc+0x93>
   1edc7:	a1 64 82 44 00       	mov    0x448264,%eax
   1edcc:	c6 00 00             	movb   $0x0,(%eax)
   1edcf:	a1 64 82 44 00       	mov    0x448264,%eax
   1edd4:	83 c0 01             	add    $0x1,%eax
   1edd7:	eb 05                	jmp    1edde <_Z6strtokPcPKc+0x98>
   1edd9:	b8 00 00 00 00       	mov    $0x0,%eax
   1edde:	a3 64 82 44 00       	mov    %eax,0x448264
   1ede3:	8b 45 08             	mov    0x8(%ebp),%eax
   1ede6:	8b 5d fc             	mov    -0x4(%ebp),%ebx
   1ede9:	c9                   	leave  
   1edea:	c3                   	ret    

0001edeb <_Z6strcmpPcS_>:
   1edeb:	55                   	push   %ebp
   1edec:	89 e5                	mov    %esp,%ebp
   1edee:	83 ec 10             	sub    $0x10,%esp
   1edf1:	c7 45 fc 00 00 00 00 	movl   $0x0,-0x4(%ebp)
   1edf8:	8b 55 fc             	mov    -0x4(%ebp),%edx
   1edfb:	8b 45 08             	mov    0x8(%ebp),%eax
   1edfe:	01 d0                	add    %edx,%eax
   1ee00:	0f b6 10             	movzbl (%eax),%edx
   1ee03:	8b 4d fc             	mov    -0x4(%ebp),%ecx
   1ee06:	8b 45 0c             	mov    0xc(%ebp),%eax
   1ee09:	01 c8                	add    %ecx,%eax
   1ee0b:	0f b6 00             	movzbl (%eax),%eax
   1ee0e:	38 c2                	cmp    %al,%dl
   1ee10:	74 28                	je     1ee3a <_Z6strcmpPcS_+0x4f>
   1ee12:	8b 55 fc             	mov    -0x4(%ebp),%edx
   1ee15:	8b 45 08             	mov    0x8(%ebp),%eax
   1ee18:	01 d0                	add    %edx,%eax
   1ee1a:	0f b6 10             	movzbl (%eax),%edx
   1ee1d:	8b 4d fc             	mov    -0x4(%ebp),%ecx
   1ee20:	8b 45 0c             	mov    0xc(%ebp),%eax
   1ee23:	01 c8                	add    %ecx,%eax
   1ee25:	0f b6 00             	movzbl (%eax),%eax
   1ee28:	38 c2                	cmp    %al,%dl
   1ee2a:	7d 07                	jge    1ee33 <_Z6strcmpPcS_+0x48>
   1ee2c:	b8 ff ff ff ff       	mov    $0xffffffff,%eax
   1ee31:	eb 23                	jmp    1ee56 <_Z6strcmpPcS_+0x6b>
   1ee33:	b8 01 00 00 00       	mov    $0x1,%eax
   1ee38:	eb 1c                	jmp    1ee56 <_Z6strcmpPcS_+0x6b>
   1ee3a:	8b 55 fc             	mov    -0x4(%ebp),%edx
   1ee3d:	8b 45 08             	mov    0x8(%ebp),%eax
   1ee40:	01 d0                	add    %edx,%eax
   1ee42:	0f b6 00             	movzbl (%eax),%eax
   1ee45:	84 c0                	test   %al,%al
   1ee47:	75 07                	jne    1ee50 <_Z6strcmpPcS_+0x65>
   1ee49:	b8 00 00 00 00       	mov    $0x0,%eax
   1ee4e:	eb 06                	jmp    1ee56 <_Z6strcmpPcS_+0x6b>
   1ee50:	83 45 fc 01          	addl   $0x1,-0x4(%ebp)
   1ee54:	eb a2                	jmp    1edf8 <_Z6strcmpPcS_+0xd>
   1ee56:	c9                   	leave  
   1ee57:	c3                   	ret    

0001ee58 <_Z6substriPcS_>:
   1ee58:	55                   	push   %ebp
   1ee59:	89 e5                	mov    %esp,%ebp
   1ee5b:	83 ec 08             	sub    $0x8,%esp
   1ee5e:	8b 45 08             	mov    0x8(%ebp),%eax
   1ee61:	83 ec 04             	sub    $0x4,%esp
   1ee64:	50                   	push   %eax
   1ee65:	ff 75 0c             	pushl  0xc(%ebp)
   1ee68:	ff 75 10             	pushl  0x10(%ebp)
   1ee6b:	e8 38 c0 ff ff       	call   1aea8 <_Z6memcpyPvS_j>
   1ee70:	83 c4 10             	add    $0x10,%esp
   1ee73:	8b 55 08             	mov    0x8(%ebp),%edx
   1ee76:	8b 45 10             	mov    0x10(%ebp),%eax
   1ee79:	01 d0                	add    %edx,%eax
   1ee7b:	c6 00 00             	movb   $0x0,(%eax)
   1ee7e:	90                   	nop
   1ee7f:	c9                   	leave  
   1ee80:	c3                   	ret    

0001ee81 <_Z6substriiPcS_>:
   1ee81:	55                   	push   %ebp
   1ee82:	89 e5                	mov    %esp,%ebp
   1ee84:	83 ec 08             	sub    $0x8,%esp
   1ee87:	8b 45 0c             	mov    0xc(%ebp),%eax
   1ee8a:	2b 45 08             	sub    0x8(%ebp),%eax
   1ee8d:	89 c1                	mov    %eax,%ecx
   1ee8f:	8b 55 08             	mov    0x8(%ebp),%edx
   1ee92:	8b 45 10             	mov    0x10(%ebp),%eax
   1ee95:	01 d0                	add    %edx,%eax
   1ee97:	83 ec 04             	sub    $0x4,%esp
   1ee9a:	51                   	push   %ecx
   1ee9b:	50                   	push   %eax
   1ee9c:	ff 75 14             	pushl  0x14(%ebp)
   1ee9f:	e8 04 c0 ff ff       	call   1aea8 <_Z6memcpyPvS_j>
   1eea4:	83 c4 10             	add    $0x10,%esp
   1eea7:	8b 45 0c             	mov    0xc(%ebp),%eax
   1eeaa:	2b 45 08             	sub    0x8(%ebp),%eax
   1eead:	89 c2                	mov    %eax,%edx
   1eeaf:	8b 45 14             	mov    0x14(%ebp),%eax
   1eeb2:	01 d0                	add    %edx,%eax
   1eeb4:	c6 00 00             	movb   $0x0,(%eax)
   1eeb7:	90                   	nop
   1eeb8:	c9                   	leave  
   1eeb9:	c3                   	ret    

0001eeba <_Z4itoamPci>:
   1eeba:	55                   	push   %ebp
   1eebb:	89 e5                	mov    %esp,%ebp
   1eebd:	83 ec 10             	sub    $0x10,%esp
   1eec0:	c7 45 fc 00 00 00 00 	movl   $0x0,-0x4(%ebp)
   1eec7:	c6 45 fb 00          	movb   $0x0,-0x5(%ebp)
   1eecb:	83 7d 08 00          	cmpl   $0x0,0x8(%ebp)
   1eecf:	75 26                	jne    1eef7 <_Z4itoamPci+0x3d>
   1eed1:	8b 45 fc             	mov    -0x4(%ebp),%eax
   1eed4:	8d 50 01             	lea    0x1(%eax),%edx
   1eed7:	89 55 fc             	mov    %edx,-0x4(%ebp)
   1eeda:	89 c2                	mov    %eax,%edx
   1eedc:	8b 45 0c             	mov    0xc(%ebp),%eax
   1eedf:	01 d0                	add    %edx,%eax
   1eee1:	c6 00 30             	movb   $0x30,(%eax)
   1eee4:	8b 55 fc             	mov    -0x4(%ebp),%edx
   1eee7:	8b 45 0c             	mov    0xc(%ebp),%eax
   1eeea:	01 d0                	add    %edx,%eax
   1eeec:	c6 00 00             	movb   $0x0,(%eax)
   1eeef:	8b 45 0c             	mov    0xc(%ebp),%eax
   1eef2:	e9 85 00 00 00       	jmp    1ef7c <_Z4itoamPci+0xc2>
   1eef7:	83 7d 08 00          	cmpl   $0x0,0x8(%ebp)
   1eefb:	74 4a                	je     1ef47 <_Z4itoamPci+0x8d>
   1eefd:	8b 4d 10             	mov    0x10(%ebp),%ecx
   1ef00:	8b 45 08             	mov    0x8(%ebp),%eax
   1ef03:	ba 00 00 00 00       	mov    $0x0,%edx
   1ef08:	f7 f1                	div    %ecx
   1ef0a:	89 d0                	mov    %edx,%eax
   1ef0c:	89 45 f4             	mov    %eax,-0xc(%ebp)
   1ef0f:	8b 45 fc             	mov    -0x4(%ebp),%eax
   1ef12:	8d 50 01             	lea    0x1(%eax),%edx
   1ef15:	89 55 fc             	mov    %edx,-0x4(%ebp)
   1ef18:	89 c2                	mov    %eax,%edx
   1ef1a:	8b 45 0c             	mov    0xc(%ebp),%eax
   1ef1d:	01 d0                	add    %edx,%eax
   1ef1f:	83 7d f4 09          	cmpl   $0x9,-0xc(%ebp)
   1ef23:	7e 08                	jle    1ef2d <_Z4itoamPci+0x73>
   1ef25:	8b 55 f4             	mov    -0xc(%ebp),%edx
   1ef28:	83 c2 57             	add    $0x57,%edx
   1ef2b:	eb 06                	jmp    1ef33 <_Z4itoamPci+0x79>
   1ef2d:	8b 55 f4             	mov    -0xc(%ebp),%edx
   1ef30:	83 c2 30             	add    $0x30,%edx
   1ef33:	88 10                	mov    %dl,(%eax)
   1ef35:	8b 4d 10             	mov    0x10(%ebp),%ecx
   1ef38:	8b 45 08             	mov    0x8(%ebp),%eax
   1ef3b:	ba 00 00 00 00       	mov    $0x0,%edx
   1ef40:	f7 f1                	div    %ecx
   1ef42:	89 45 08             	mov    %eax,0x8(%ebp)
   1ef45:	eb b0                	jmp    1eef7 <_Z4itoamPci+0x3d>
   1ef47:	80 7d fb 00          	cmpb   $0x0,-0x5(%ebp)
   1ef4b:	74 13                	je     1ef60 <_Z4itoamPci+0xa6>
   1ef4d:	8b 45 fc             	mov    -0x4(%ebp),%eax
   1ef50:	8d 50 01             	lea    0x1(%eax),%edx
   1ef53:	89 55 fc             	mov    %edx,-0x4(%ebp)
   1ef56:	89 c2                	mov    %eax,%edx
   1ef58:	8b 45 0c             	mov    0xc(%ebp),%eax
   1ef5b:	01 d0                	add    %edx,%eax
   1ef5d:	c6 00 2d             	movb   $0x2d,(%eax)
   1ef60:	8b 55 fc             	mov    -0x4(%ebp),%edx
   1ef63:	8b 45 0c             	mov    0xc(%ebp),%eax
   1ef66:	01 d0                	add    %edx,%eax
   1ef68:	c6 00 00             	movb   $0x0,(%eax)
   1ef6b:	ff 75 fc             	pushl  -0x4(%ebp)
   1ef6e:	ff 75 0c             	pushl  0xc(%ebp)
   1ef71:	e8 20 fc ff ff       	call   1eb96 <_Z7reversePci>
   1ef76:	83 c4 08             	add    $0x8,%esp
   1ef79:	8b 45 0c             	mov    0xc(%ebp),%eax
   1ef7c:	c9                   	leave  
   1ef7d:	c3                   	ret    

0001ef7e <_Z4itoajPci>:
   1ef7e:	55                   	push   %ebp
   1ef7f:	89 e5                	mov    %esp,%ebp
   1ef81:	83 ec 10             	sub    $0x10,%esp
   1ef84:	c7 45 fc 00 00 00 00 	movl   $0x0,-0x4(%ebp)
   1ef8b:	83 7d 08 00          	cmpl   $0x0,0x8(%ebp)
   1ef8f:	75 23                	jne    1efb4 <_Z4itoajPci+0x36>
   1ef91:	8b 45 fc             	mov    -0x4(%ebp),%eax
   1ef94:	8d 50 01             	lea    0x1(%eax),%edx
   1ef97:	89 55 fc             	mov    %edx,-0x4(%ebp)
   1ef9a:	89 c2                	mov    %eax,%edx
   1ef9c:	8b 45 0c             	mov    0xc(%ebp),%eax
   1ef9f:	01 d0                	add    %edx,%eax
   1efa1:	c6 00 30             	movb   $0x30,(%eax)
   1efa4:	8b 55 fc             	mov    -0x4(%ebp),%edx
   1efa7:	8b 45 0c             	mov    0xc(%ebp),%eax
   1efaa:	01 d0                	add    %edx,%eax
   1efac:	c6 00 00             	movb   $0x0,(%eax)
   1efaf:	8b 45 0c             	mov    0xc(%ebp),%eax
   1efb2:	eb 6c                	jmp    1f020 <_Z4itoajPci+0xa2>
   1efb4:	83 7d 08 00          	cmpl   $0x0,0x8(%ebp)
   1efb8:	74 4a                	je     1f004 <_Z4itoajPci+0x86>
   1efba:	8b 4d 10             	mov    0x10(%ebp),%ecx
   1efbd:	8b 45 08             	mov    0x8(%ebp),%eax
   1efc0:	ba 00 00 00 00       	mov    $0x0,%edx
   1efc5:	f7 f1                	div    %ecx
   1efc7:	89 d0                	mov    %edx,%eax
   1efc9:	89 45 f8             	mov    %eax,-0x8(%ebp)
   1efcc:	8b 45 fc             	mov    -0x4(%ebp),%eax
   1efcf:	8d 50 01             	lea    0x1(%eax),%edx
   1efd2:	89 55 fc             	mov    %edx,-0x4(%ebp)
   1efd5:	89 c2                	mov    %eax,%edx
   1efd7:	8b 45 0c             	mov    0xc(%ebp),%eax
   1efda:	01 d0                	add    %edx,%eax
   1efdc:	83 7d f8 09          	cmpl   $0x9,-0x8(%ebp)
   1efe0:	7e 08                	jle    1efea <_Z4itoajPci+0x6c>
   1efe2:	8b 55 f8             	mov    -0x8(%ebp),%edx
   1efe5:	83 c2 57             	add    $0x57,%edx
   1efe8:	eb 06                	jmp    1eff0 <_Z4itoajPci+0x72>
   1efea:	8b 55 f8             	mov    -0x8(%ebp),%edx
   1efed:	83 c2 30             	add    $0x30,%edx
   1eff0:	88 10                	mov    %dl,(%eax)
   1eff2:	8b 4d 10             	mov    0x10(%ebp),%ecx
   1eff5:	8b 45 08             	mov    0x8(%ebp),%eax
   1eff8:	ba 00 00 00 00       	mov    $0x0,%edx
   1effd:	f7 f1                	div    %ecx
   1efff:	89 45 08             	mov    %eax,0x8(%ebp)
   1f002:	eb b0                	jmp    1efb4 <_Z4itoajPci+0x36>
   1f004:	8b 55 fc             	mov    -0x4(%ebp),%edx
   1f007:	8b 45 0c             	mov    0xc(%ebp),%eax
   1f00a:	01 d0                	add    %edx,%eax
   1f00c:	c6 00 00             	movb   $0x0,(%eax)
   1f00f:	ff 75 fc             	pushl  -0x4(%ebp)
   1f012:	ff 75 0c             	pushl  0xc(%ebp)
   1f015:	e8 7c fb ff ff       	call   1eb96 <_Z7reversePci>
   1f01a:	83 c4 08             	add    $0x8,%esp
   1f01d:	8b 45 0c             	mov    0xc(%ebp),%eax
   1f020:	c9                   	leave  
   1f021:	c3                   	ret    

0001f022 <_Z6strcpyPcPKc>:
   1f022:	55                   	push   %ebp
   1f023:	89 e5                	mov    %esp,%ebp
   1f025:	83 ec 10             	sub    $0x10,%esp
   1f028:	c7 45 fc 00 00 00 00 	movl   $0x0,-0x4(%ebp)
   1f02f:	8b 55 fc             	mov    -0x4(%ebp),%edx
   1f032:	8b 45 0c             	mov    0xc(%ebp),%eax
   1f035:	01 d0                	add    %edx,%eax
   1f037:	0f b6 00             	movzbl (%eax),%eax
   1f03a:	84 c0                	test   %al,%al
   1f03c:	74 1b                	je     1f059 <_Z6strcpyPcPKc+0x37>
   1f03e:	8b 55 fc             	mov    -0x4(%ebp),%edx
   1f041:	8b 45 08             	mov    0x8(%ebp),%eax
   1f044:	01 c2                	add    %eax,%edx
   1f046:	8b 4d fc             	mov    -0x4(%ebp),%ecx
   1f049:	8b 45 0c             	mov    0xc(%ebp),%eax
   1f04c:	01 c8                	add    %ecx,%eax
   1f04e:	0f b6 00             	movzbl (%eax),%eax
   1f051:	88 02                	mov    %al,(%edx)
   1f053:	83 45 fc 01          	addl   $0x1,-0x4(%ebp)
   1f057:	eb d6                	jmp    1f02f <_Z6strcpyPcPKc+0xd>
   1f059:	90                   	nop
   1f05a:	c9                   	leave  
   1f05b:	c3                   	ret    

0001f05c <_Z12test_syscallP8regs32_t>:
   1f05c:	55                   	push   %ebp
   1f05d:	89 e5                	mov    %esp,%ebp
   1f05f:	83 ec 08             	sub    $0x8,%esp
   1f062:	8b 45 08             	mov    0x8(%ebp),%eax
   1f065:	8b 40 20             	mov    0x20(%eax),%eax
   1f068:	83 ec 0c             	sub    $0xc,%esp
   1f06b:	50                   	push   %eax
   1f06c:	e8 b7 dd ff ff       	call   1ce28 <_Z19write_serial_stringPc>
   1f071:	83 c4 10             	add    $0x10,%esp
   1f074:	90                   	nop
   1f075:	c9                   	leave  
   1f076:	c3                   	ret    

0001f077 <_Z13syscalls_initv>:
   1f077:	55                   	push   %ebp
   1f078:	89 e5                	mov    %esp,%ebp
   1f07a:	83 ec 08             	sub    $0x8,%esp
   1f07d:	83 ec 08             	sub    $0x8,%esp
   1f080:	68 92 f0 01 00       	push   $0x1f092
   1f085:	6a 69                	push   $0x69
   1f087:	e8 d7 b6 ff ff       	call   1a763 <interrupt_register_handler>
   1f08c:	83 c4 10             	add    $0x10,%esp
   1f08f:	90                   	nop
   1f090:	c9                   	leave  
   1f091:	c3                   	ret    

0001f092 <_Z15syscall_handlerP8regs32_t>:
   1f092:	55                   	push   %ebp
   1f093:	89 e5                	mov    %esp,%ebp
   1f095:	83 ec 08             	sub    $0x8,%esp
   1f098:	8b 45 08             	mov    0x8(%ebp),%eax
   1f09b:	8b 40 2c             	mov    0x2c(%eax),%eax
   1f09e:	85 c0                	test   %eax,%eax
   1f0a0:	75 1a                	jne    1f0bc <_Z15syscall_handlerP8regs32_t+0x2a>
   1f0a2:	8b 45 08             	mov    0x8(%ebp),%eax
   1f0a5:	8b 40 2c             	mov    0x2c(%eax),%eax
   1f0a8:	8b 04 85 28 18 02 00 	mov    0x21828(,%eax,4),%eax
   1f0af:	83 ec 0c             	sub    $0xc,%esp
   1f0b2:	ff 75 08             	pushl  0x8(%ebp)
   1f0b5:	ff d0                	call   *%eax
   1f0b7:	83 c4 10             	add    $0x10,%esp
   1f0ba:	eb 01                	jmp    1f0bd <_Z15syscall_handlerP8regs32_t+0x2b>
   1f0bc:	90                   	nop
   1f0bd:	c9                   	leave  
   1f0be:	c3                   	ret    

0001f0bf <_Z8outportbth>:
   1f0bf:	55                   	push   %ebp
   1f0c0:	89 e5                	mov    %esp,%ebp
   1f0c2:	83 ec 08             	sub    $0x8,%esp
   1f0c5:	8b 55 08             	mov    0x8(%ebp),%edx
   1f0c8:	8b 45 0c             	mov    0xc(%ebp),%eax
   1f0cb:	66 89 55 fc          	mov    %dx,-0x4(%ebp)
   1f0cf:	88 45 f8             	mov    %al,-0x8(%ebp)
   1f0d2:	0f b7 55 fc          	movzwl -0x4(%ebp),%edx
   1f0d6:	0f b6 45 f8          	movzbl -0x8(%ebp),%eax
   1f0da:	ee                   	out    %al,(%dx)
   1f0db:	90                   	nop
   1f0dc:	c9                   	leave  
   1f0dd:	c3                   	ret    

0001f0de <_Z7inportbt>:
   1f0de:	55                   	push   %ebp
   1f0df:	89 e5                	mov    %esp,%ebp
   1f0e1:	83 ec 14             	sub    $0x14,%esp
   1f0e4:	8b 45 08             	mov    0x8(%ebp),%eax
   1f0e7:	66 89 45 ec          	mov    %ax,-0x14(%ebp)
   1f0eb:	0f b7 45 ec          	movzwl -0x14(%ebp),%eax
   1f0ef:	89 c2                	mov    %eax,%edx
   1f0f1:	ec                   	in     (%dx),%al
   1f0f2:	88 45 ff             	mov    %al,-0x1(%ebp)
   1f0f5:	0f b6 45 ff          	movzbl -0x1(%ebp),%eax
   1f0f9:	c9                   	leave  
   1f0fa:	c3                   	ret    

0001f0fb <_Z7inportwt>:
   1f0fb:	55                   	push   %ebp
   1f0fc:	89 e5                	mov    %esp,%ebp
   1f0fe:	83 ec 14             	sub    $0x14,%esp
   1f101:	8b 45 08             	mov    0x8(%ebp),%eax
   1f104:	66 89 45 ec          	mov    %ax,-0x14(%ebp)
   1f108:	0f b7 45 ec          	movzwl -0x14(%ebp),%eax
   1f10c:	89 c2                	mov    %eax,%edx
   1f10e:	66 ed                	in     (%dx),%ax
   1f110:	66 89 45 fe          	mov    %ax,-0x2(%ebp)
   1f114:	0f b7 45 fe          	movzwl -0x2(%ebp),%eax
   1f118:	c9                   	leave  
   1f119:	c3                   	ret    

0001f11a <_Z18get_uptime_secondsv>:
   1f11a:	55                   	push   %ebp
   1f11b:	89 e5                	mov    %esp,%ebp
   1f11d:	83 ec 10             	sub    $0x10,%esp
   1f120:	d9 05 84 82 44 00    	flds   0x448284
   1f126:	d9 7d fe             	fnstcw -0x2(%ebp)
   1f129:	0f b7 45 fe          	movzwl -0x2(%ebp),%eax
   1f12d:	b4 0c                	mov    $0xc,%ah
   1f12f:	66 89 45 fc          	mov    %ax,-0x4(%ebp)
   1f133:	d9 6d fc             	fldcw  -0x4(%ebp)
   1f136:	df 7d f0             	fistpll -0x10(%ebp)
   1f139:	d9 6d fe             	fldcw  -0x2(%ebp)
   1f13c:	8b 45 f0             	mov    -0x10(%ebp),%eax
   1f13f:	8b 55 f4             	mov    -0xc(%ebp),%edx
   1f142:	c9                   	leave  
   1f143:	c3                   	ret    

0001f144 <_Z18get_uptime_minutesv>:
   1f144:	55                   	push   %ebp
   1f145:	89 e5                	mov    %esp,%ebp
   1f147:	0f b6 05 88 82 44 00 	movzbl 0x448288,%eax
   1f14e:	0f b6 c0             	movzbl %al,%eax
   1f151:	5d                   	pop    %ebp
   1f152:	c3                   	ret    

0001f153 <_Z16get_uptime_hoursv>:
   1f153:	55                   	push   %ebp
   1f154:	89 e5                	mov    %esp,%ebp
   1f156:	a1 8c 82 44 00       	mov    0x44828c,%eax
   1f15b:	5d                   	pop    %ebp
   1f15c:	c3                   	ret    

0001f15d <_Z23timer_register_callbackPFvtE>:
   1f15d:	55                   	push   %ebp
   1f15e:	89 e5                	mov    %esp,%ebp
   1f160:	0f b6 05 a0 86 44 00 	movzbl 0x4486a0,%eax
   1f167:	8d 50 01             	lea    0x1(%eax),%edx
   1f16a:	88 15 a0 86 44 00    	mov    %dl,0x4486a0
   1f170:	0f b6 c0             	movzbl %al,%eax
   1f173:	8b 55 08             	mov    0x8(%ebp),%edx
   1f176:	89 14 85 a0 82 44 00 	mov    %edx,0x4482a0(,%eax,4)
   1f17d:	90                   	nop
   1f17e:	5d                   	pop    %ebp
   1f17f:	c3                   	ret    

0001f180 <_Z13timer_handlerP8regs32_t>:
   1f180:	55                   	push   %ebp
   1f181:	89 e5                	mov    %esp,%ebp
   1f183:	83 ec 08             	sub    $0x8,%esp
   1f186:	e8 d8 c1 ff ff       	call   1b363 <_Z14scheduler_tickv>
   1f18b:	90                   	nop
   1f18c:	c9                   	leave  
   1f18d:	c3                   	ret    

0001f18e <_Z13timer_installv>:
   1f18e:	55                   	push   %ebp
   1f18f:	89 e5                	mov    %esp,%ebp
   1f191:	83 ec 08             	sub    $0x8,%esp
   1f194:	83 ec 08             	sub    $0x8,%esp
   1f197:	68 80 f1 01 00       	push   $0x1f180
   1f19c:	6a 20                	push   $0x20
   1f19e:	e8 c0 b5 ff ff       	call   1a763 <interrupt_register_handler>
   1f1a3:	83 c4 10             	add    $0x10,%esp
   1f1a6:	90                   	nop
   1f1a7:	c9                   	leave  
   1f1a8:	c3                   	ret    

0001f1a9 <_ZN3VGA4putcEch>:
   1f1a9:	55                   	push   %ebp
   1f1aa:	89 e5                	mov    %esp,%ebp
   1f1ac:	83 ec 08             	sub    $0x8,%esp
   1f1af:	8b 55 08             	mov    0x8(%ebp),%edx
   1f1b2:	8b 45 0c             	mov    0xc(%ebp),%eax
   1f1b5:	88 55 fc             	mov    %dl,-0x4(%ebp)
   1f1b8:	88 45 f8             	mov    %al,-0x8(%ebp)
   1f1bb:	0f be 45 fc          	movsbl -0x4(%ebp),%eax
   1f1bf:	83 f8 0a             	cmp    $0xa,%eax
   1f1c2:	75 1e                	jne    1f1e2 <_ZN3VGA4putcEch+0x39>
   1f1c4:	66 c7 05 a2 86 44 00 	movw   $0x0,0x4486a2
   1f1cb:	00 00 
   1f1cd:	0f b7 05 a4 86 44 00 	movzwl 0x4486a4,%eax
   1f1d4:	83 c0 01             	add    $0x1,%eax
   1f1d7:	66 a3 a4 86 44 00    	mov    %ax,0x4486a4
   1f1dd:	e9 8e 00 00 00       	jmp    1f270 <_ZN3VGA4putcEch+0xc7>
   1f1e2:	a1 2c 18 02 00       	mov    0x2182c,%eax
   1f1e7:	0f b7 15 30 18 02 00 	movzwl 0x21830,%edx
   1f1ee:	0f b7 ca             	movzwl %dx,%ecx
   1f1f1:	0f b7 15 a4 86 44 00 	movzwl 0x4486a4,%edx
   1f1f8:	0f b7 d2             	movzwl %dx,%edx
   1f1fb:	0f af ca             	imul   %edx,%ecx
   1f1fe:	0f b7 15 a2 86 44 00 	movzwl 0x4486a2,%edx
   1f205:	0f b7 d2             	movzwl %dx,%edx
   1f208:	01 d1                	add    %edx,%ecx
   1f20a:	0f b7 15 34 18 02 00 	movzwl 0x21834,%edx
   1f211:	0f b7 d2             	movzwl %dx,%edx
   1f214:	0f af d1             	imul   %ecx,%edx
   1f217:	01 c2                	add    %eax,%edx
   1f219:	0f b6 45 fc          	movzbl -0x4(%ebp),%eax
   1f21d:	88 02                	mov    %al,(%edx)
   1f21f:	a1 2c 18 02 00       	mov    0x2182c,%eax
   1f224:	0f b7 15 30 18 02 00 	movzwl 0x21830,%edx
   1f22b:	0f b7 ca             	movzwl %dx,%ecx
   1f22e:	0f b7 15 a4 86 44 00 	movzwl 0x4486a4,%edx
   1f235:	0f b7 d2             	movzwl %dx,%edx
   1f238:	0f af ca             	imul   %edx,%ecx
   1f23b:	0f b7 15 a2 86 44 00 	movzwl 0x4486a2,%edx
   1f242:	0f b7 d2             	movzwl %dx,%edx
   1f245:	01 d1                	add    %edx,%ecx
   1f247:	0f b7 15 34 18 02 00 	movzwl 0x21834,%edx
   1f24e:	0f b7 d2             	movzwl %dx,%edx
   1f251:	0f af d1             	imul   %ecx,%edx
   1f254:	83 c2 01             	add    $0x1,%edx
   1f257:	01 c2                	add    %eax,%edx
   1f259:	0f b6 45 f8          	movzbl -0x8(%ebp),%eax
   1f25d:	88 02                	mov    %al,(%edx)
   1f25f:	0f b7 05 a2 86 44 00 	movzwl 0x4486a2,%eax
   1f266:	83 c0 01             	add    $0x1,%eax
   1f269:	66 a3 a2 86 44 00    	mov    %ax,0x4486a2
   1f26f:	90                   	nop
   1f270:	90                   	nop
   1f271:	c9                   	leave  
   1f272:	c3                   	ret    

0001f273 <_ZN3VGA4putsEPch>:
   1f273:	55                   	push   %ebp
   1f274:	89 e5                	mov    %esp,%ebp
   1f276:	83 ec 14             	sub    $0x14,%esp
   1f279:	8b 45 0c             	mov    0xc(%ebp),%eax
   1f27c:	88 45 ec             	mov    %al,-0x14(%ebp)
   1f27f:	c7 45 fc 00 00 00 00 	movl   $0x0,-0x4(%ebp)
   1f286:	8b 55 fc             	mov    -0x4(%ebp),%edx
   1f289:	8b 45 08             	mov    0x8(%ebp),%eax
   1f28c:	01 d0                	add    %edx,%eax
   1f28e:	0f b6 00             	movzbl (%eax),%eax
   1f291:	84 c0                	test   %al,%al
   1f293:	74 26                	je     1f2bb <_ZN3VGA4putsEPch+0x48>
   1f295:	0f b6 55 ec          	movzbl -0x14(%ebp),%edx
   1f299:	8b 45 fc             	mov    -0x4(%ebp),%eax
   1f29c:	8d 48 01             	lea    0x1(%eax),%ecx
   1f29f:	89 4d fc             	mov    %ecx,-0x4(%ebp)
   1f2a2:	89 c1                	mov    %eax,%ecx
   1f2a4:	8b 45 08             	mov    0x8(%ebp),%eax
   1f2a7:	01 c8                	add    %ecx,%eax
   1f2a9:	0f b6 00             	movzbl (%eax),%eax
   1f2ac:	0f be c0             	movsbl %al,%eax
   1f2af:	52                   	push   %edx
   1f2b0:	50                   	push   %eax
   1f2b1:	e8 f3 fe ff ff       	call   1f1a9 <_ZN3VGA4putcEch>
   1f2b6:	83 c4 08             	add    $0x8,%esp
   1f2b9:	eb cb                	jmp    1f286 <_ZN3VGA4putsEPch+0x13>
   1f2bb:	90                   	nop
   1f2bc:	c9                   	leave  
   1f2bd:	c3                   	ret    

0001f2be <_ZN3VGA11clearscreenEh>:
   1f2be:	55                   	push   %ebp
   1f2bf:	89 e5                	mov    %esp,%ebp
   1f2c1:	83 ec 14             	sub    $0x14,%esp
   1f2c4:	8b 45 08             	mov    0x8(%ebp),%eax
   1f2c7:	88 45 ec             	mov    %al,-0x14(%ebp)
   1f2ca:	66 c7 05 a2 86 44 00 	movw   $0x0,0x4486a2
   1f2d1:	00 00 
   1f2d3:	66 c7 05 a4 86 44 00 	movw   $0x0,0x4486a4
   1f2da:	00 00 
   1f2dc:	c7 45 fc 00 00 00 00 	movl   $0x0,-0x4(%ebp)
   1f2e3:	0f b7 05 30 18 02 00 	movzwl 0x21830,%eax
   1f2ea:	0f b7 d0             	movzwl %ax,%edx
   1f2ed:	0f b7 05 32 18 02 00 	movzwl 0x21832,%eax
   1f2f4:	0f b7 c0             	movzwl %ax,%eax
   1f2f7:	0f af c2             	imul   %edx,%eax
   1f2fa:	3b 45 fc             	cmp    -0x4(%ebp),%eax
   1f2fd:	7e 15                	jle    1f314 <_ZN3VGA11clearscreenEh+0x56>
   1f2ff:	0f b6 45 ec          	movzbl -0x14(%ebp),%eax
   1f303:	50                   	push   %eax
   1f304:	6a 20                	push   $0x20
   1f306:	e8 9e fe ff ff       	call   1f1a9 <_ZN3VGA4putcEch>
   1f30b:	83 c4 08             	add    $0x8,%esp
   1f30e:	83 45 fc 01          	addl   $0x1,-0x4(%ebp)
   1f312:	eb cf                	jmp    1f2e3 <_ZN3VGA11clearscreenEh+0x25>
   1f314:	66 c7 05 a2 86 44 00 	movw   $0x0,0x4486a2
   1f31b:	00 00 
   1f31d:	66 c7 05 a4 86 44 00 	movw   $0x0,0x4486a4
   1f324:	00 00 
   1f326:	90                   	nop
   1f327:	c9                   	leave  
   1f328:	c3                   	ret    

0001f329 <_Z16video_initialize12video_mode_t>:
   1f329:	55                   	push   %ebp
   1f32a:	89 e5                	mov    %esp,%ebp
   1f32c:	83 ec 18             	sub    $0x18,%esp
   1f32f:	8b 45 08             	mov    0x8(%ebp),%eax
   1f332:	a3 a8 86 44 00       	mov    %eax,0x4486a8
   1f337:	8b 45 0c             	mov    0xc(%ebp),%eax
   1f33a:	a3 ac 86 44 00       	mov    %eax,0x4486ac
   1f33f:	8b 45 10             	mov    0x10(%ebp),%eax
   1f342:	a3 b0 86 44 00       	mov    %eax,0x4486b0
   1f347:	8b 45 14             	mov    0x14(%ebp),%eax
   1f34a:	a3 b4 86 44 00       	mov    %eax,0x4486b4
   1f34f:	8b 45 18             	mov    0x18(%ebp),%eax
   1f352:	a3 b8 86 44 00       	mov    %eax,0x4486b8
   1f357:	8b 45 1c             	mov    0x1c(%ebp),%eax
   1f35a:	a3 bc 86 44 00       	mov    %eax,0x4486bc
   1f35f:	8b 45 1c             	mov    0x1c(%ebp),%eax
   1f362:	a3 c4 86 44 00       	mov    %eax,0x4486c4
   1f367:	8b 55 14             	mov    0x14(%ebp),%edx
   1f36a:	8b 45 0c             	mov    0xc(%ebp),%eax
   1f36d:	0f af c2             	imul   %edx,%eax
   1f370:	83 c0 08             	add    $0x8,%eax
   1f373:	83 ec 0c             	sub    $0xc,%esp
   1f376:	50                   	push   %eax
   1f377:	e8 c8 97 ff ff       	call   18b44 <kmalloc>
   1f37c:	83 c4 10             	add    $0x10,%esp
   1f37f:	a3 c0 86 44 00       	mov    %eax,0x4486c0
   1f384:	83 ec 0c             	sub    $0xc,%esp
   1f387:	68 04 1e 02 00       	push   $0x21e04
   1f38c:	e8 97 da ff ff       	call   1ce28 <_Z19write_serial_stringPc>
   1f391:	83 c4 10             	add    $0x10,%esp
   1f394:	83 ec 0c             	sub    $0xc,%esp
   1f397:	6a 10                	push   $0x10
   1f399:	e8 a6 97 ff ff       	call   18b44 <kmalloc>
   1f39e:	83 c4 10             	add    $0x10,%esp
   1f3a1:	89 45 f4             	mov    %eax,-0xc(%ebp)
   1f3a4:	a1 c0 86 44 00       	mov    0x4486c0,%eax
   1f3a9:	83 ec 04             	sub    $0x4,%esp
   1f3ac:	6a 10                	push   $0x10
   1f3ae:	ff 75 f4             	pushl  -0xc(%ebp)
   1f3b1:	50                   	push   %eax
   1f3b2:	e8 03 fb ff ff       	call   1eeba <_Z4itoamPci>
   1f3b7:	83 c4 10             	add    $0x10,%esp
   1f3ba:	83 ec 0c             	sub    $0xc,%esp
   1f3bd:	50                   	push   %eax
   1f3be:	e8 65 da ff ff       	call   1ce28 <_Z19write_serial_stringPc>
   1f3c3:	83 c4 10             	add    $0x10,%esp
   1f3c6:	90                   	nop
   1f3c7:	c9                   	leave  
   1f3c8:	c3                   	ret    

0001f3c9 <_Z12screen_clearv>:
   1f3c9:	55                   	push   %ebp
   1f3ca:	89 e5                	mov    %esp,%ebp
   1f3cc:	83 ec 18             	sub    $0x18,%esp
   1f3cf:	a1 b8 86 44 00       	mov    0x4486b8,%eax
   1f3d4:	85 c0                	test   %eax,%eax
   1f3d6:	75 0f                	jne    1f3e7 <_Z12screen_clearv+0x1e>
   1f3d8:	83 ec 0c             	sub    $0xc,%esp
   1f3db:	6a 00                	push   $0x0
   1f3dd:	e8 dc fe ff ff       	call   1f2be <_ZN3VGA11clearscreenEh>
   1f3e2:	83 c4 10             	add    $0x10,%esp
   1f3e5:	eb 38                	jmp    1f41f <_Z12screen_clearv+0x56>
   1f3e7:	a1 b8 86 44 00       	mov    0x4486b8,%eax
   1f3ec:	83 f8 01             	cmp    $0x1,%eax
   1f3ef:	75 2e                	jne    1f41f <_Z12screen_clearv+0x56>
   1f3f1:	c7 45 f4 00 00 00 00 	movl   $0x0,-0xc(%ebp)
   1f3f8:	8b 15 ac 86 44 00    	mov    0x4486ac,%edx
   1f3fe:	a1 b4 86 44 00       	mov    0x4486b4,%eax
   1f403:	0f af c2             	imul   %edx,%eax
   1f406:	3b 45 f4             	cmp    -0xc(%ebp),%eax
   1f409:	76 14                	jbe    1f41f <_Z12screen_clearv+0x56>
   1f40b:	8b 15 c0 86 44 00    	mov    0x4486c0,%edx
   1f411:	8b 45 f4             	mov    -0xc(%ebp),%eax
   1f414:	01 d0                	add    %edx,%eax
   1f416:	c6 00 00             	movb   $0x0,(%eax)
   1f419:	83 45 f4 01          	addl   $0x1,-0xc(%ebp)
   1f41d:	eb d9                	jmp    1f3f8 <_Z12screen_clearv+0x2f>
   1f41f:	90                   	nop
   1f420:	c9                   	leave  
   1f421:	c3                   	ret    

0001f422 <_Z12screen_clearhhh>:
   1f422:	55                   	push   %ebp
   1f423:	89 e5                	mov    %esp,%ebp
   1f425:	56                   	push   %esi
   1f426:	53                   	push   %ebx
   1f427:	83 ec 10             	sub    $0x10,%esp
   1f42a:	8b 4d 08             	mov    0x8(%ebp),%ecx
   1f42d:	8b 55 0c             	mov    0xc(%ebp),%edx
   1f430:	8b 45 10             	mov    0x10(%ebp),%eax
   1f433:	88 4d f4             	mov    %cl,-0xc(%ebp)
   1f436:	88 55 f0             	mov    %dl,-0x10(%ebp)
   1f439:	88 45 ec             	mov    %al,-0x14(%ebp)
   1f43c:	a1 b8 86 44 00       	mov    0x4486b8,%eax
   1f441:	83 f8 01             	cmp    $0x1,%eax
   1f444:	75 2d                	jne    1f473 <_Z12screen_clearhhh+0x51>
   1f446:	0f b6 75 ec          	movzbl -0x14(%ebp),%esi
   1f44a:	0f b6 5d f0          	movzbl -0x10(%ebp),%ebx
   1f44e:	0f b6 4d f4          	movzbl -0xc(%ebp),%ecx
   1f452:	8b 15 ac 86 44 00    	mov    0x4486ac,%edx
   1f458:	a1 a8 86 44 00       	mov    0x4486a8,%eax
   1f45d:	83 ec 04             	sub    $0x4,%esp
   1f460:	56                   	push   %esi
   1f461:	53                   	push   %ebx
   1f462:	51                   	push   %ecx
   1f463:	52                   	push   %edx
   1f464:	50                   	push   %eax
   1f465:	6a 00                	push   $0x0
   1f467:	6a 00                	push   $0x0
   1f469:	e8 10 01 00 00       	call   1f57e <_Z15screen_fillrectjjjjhhh>
   1f46e:	83 c4 20             	add    $0x20,%esp
   1f471:	eb 01                	jmp    1f474 <_Z12screen_clearhhh+0x52>
   1f473:	90                   	nop
   1f474:	8d 65 f8             	lea    -0x8(%ebp),%esp
   1f477:	5b                   	pop    %ebx
   1f478:	5e                   	pop    %esi
   1f479:	5d                   	pop    %ebp
   1f47a:	c3                   	ret    

0001f47b <_Z19screen_clear_directhhh>:
   1f47b:	55                   	push   %ebp
   1f47c:	89 e5                	mov    %esp,%ebp
   1f47e:	56                   	push   %esi
   1f47f:	53                   	push   %ebx
   1f480:	83 ec 10             	sub    $0x10,%esp
   1f483:	8b 4d 08             	mov    0x8(%ebp),%ecx
   1f486:	8b 55 0c             	mov    0xc(%ebp),%edx
   1f489:	8b 45 10             	mov    0x10(%ebp),%eax
   1f48c:	88 4d f4             	mov    %cl,-0xc(%ebp)
   1f48f:	88 55 f0             	mov    %dl,-0x10(%ebp)
   1f492:	88 45 ec             	mov    %al,-0x14(%ebp)
   1f495:	a1 b8 86 44 00       	mov    0x4486b8,%eax
   1f49a:	83 f8 01             	cmp    $0x1,%eax
   1f49d:	75 2d                	jne    1f4cc <_Z19screen_clear_directhhh+0x51>
   1f49f:	0f b6 75 ec          	movzbl -0x14(%ebp),%esi
   1f4a3:	0f b6 5d f0          	movzbl -0x10(%ebp),%ebx
   1f4a7:	0f b6 4d f4          	movzbl -0xc(%ebp),%ecx
   1f4ab:	8b 15 ac 86 44 00    	mov    0x4486ac,%edx
   1f4b1:	a1 a8 86 44 00       	mov    0x4486a8,%eax
   1f4b6:	83 ec 04             	sub    $0x4,%esp
   1f4b9:	56                   	push   %esi
   1f4ba:	53                   	push   %ebx
   1f4bb:	51                   	push   %ecx
   1f4bc:	52                   	push   %edx
   1f4bd:	50                   	push   %eax
   1f4be:	6a 00                	push   $0x0
   1f4c0:	6a 00                	push   $0x0
   1f4c2:	e8 6f 01 00 00       	call   1f636 <_Z22screen_fillrect_directjjjjhhh>
   1f4c7:	83 c4 20             	add    $0x20,%esp
   1f4ca:	eb 01                	jmp    1f4cd <_Z19screen_clear_directhhh+0x52>
   1f4cc:	90                   	nop
   1f4cd:	8d 65 f8             	lea    -0x8(%ebp),%esp
   1f4d0:	5b                   	pop    %ebx
   1f4d1:	5e                   	pop    %esi
   1f4d2:	5d                   	pop    %ebp
   1f4d3:	c3                   	ret    

0001f4d4 <_Z12screen_clearh>:
   1f4d4:	55                   	push   %ebp
   1f4d5:	89 e5                	mov    %esp,%ebp
   1f4d7:	83 ec 18             	sub    $0x18,%esp
   1f4da:	8b 45 08             	mov    0x8(%ebp),%eax
   1f4dd:	88 45 f4             	mov    %al,-0xc(%ebp)
   1f4e0:	a1 b8 86 44 00       	mov    0x4486b8,%eax
   1f4e5:	85 c0                	test   %eax,%eax
   1f4e7:	75 12                	jne    1f4fb <_Z12screen_clearh+0x27>
   1f4e9:	0f b6 45 f4          	movzbl -0xc(%ebp),%eax
   1f4ed:	83 ec 0c             	sub    $0xc,%esp
   1f4f0:	50                   	push   %eax
   1f4f1:	e8 c8 fd ff ff       	call   1f2be <_ZN3VGA11clearscreenEh>
   1f4f6:	83 c4 10             	add    $0x10,%esp
   1f4f9:	eb 01                	jmp    1f4fc <_Z12screen_clearh+0x28>
   1f4fb:	90                   	nop
   1f4fc:	c9                   	leave  
   1f4fd:	c3                   	ret    

0001f4fe <_Z15screen_putpixeljjhhh>:
   1f4fe:	55                   	push   %ebp
   1f4ff:	89 e5                	mov    %esp,%ebp
   1f501:	83 ec 1c             	sub    $0x1c,%esp
   1f504:	8b 4d 10             	mov    0x10(%ebp),%ecx
   1f507:	8b 55 14             	mov    0x14(%ebp),%edx
   1f50a:	8b 45 18             	mov    0x18(%ebp),%eax
   1f50d:	88 4d ec             	mov    %cl,-0x14(%ebp)
   1f510:	88 55 e8             	mov    %dl,-0x18(%ebp)
   1f513:	88 45 e4             	mov    %al,-0x1c(%ebp)
   1f516:	a1 b8 86 44 00       	mov    0x4486b8,%eax
   1f51b:	83 f8 01             	cmp    $0x1,%eax
   1f51e:	75 5b                	jne    1f57b <_Z15screen_putpixeljjhhh+0x7d>
   1f520:	a1 b4 86 44 00       	mov    0x4486b4,%eax
   1f525:	0f af 45 0c          	imul   0xc(%ebp),%eax
   1f529:	89 c2                	mov    %eax,%edx
   1f52b:	0f b7 05 b0 86 44 00 	movzwl 0x4486b0,%eax
   1f532:	66 c1 e8 03          	shr    $0x3,%ax
   1f536:	0f b7 c0             	movzwl %ax,%eax
   1f539:	0f af 45 08          	imul   0x8(%ebp),%eax
   1f53d:	01 d0                	add    %edx,%eax
   1f53f:	89 45 fc             	mov    %eax,-0x4(%ebp)
   1f542:	a1 c0 86 44 00       	mov    0x4486c0,%eax
   1f547:	8b 55 fc             	mov    -0x4(%ebp),%edx
   1f54a:	83 c2 02             	add    $0x2,%edx
   1f54d:	01 c2                	add    %eax,%edx
   1f54f:	0f b6 45 ec          	movzbl -0x14(%ebp),%eax
   1f553:	88 02                	mov    %al,(%edx)
   1f555:	a1 c0 86 44 00       	mov    0x4486c0,%eax
   1f55a:	8b 55 fc             	mov    -0x4(%ebp),%edx
   1f55d:	83 c2 01             	add    $0x1,%edx
   1f560:	01 c2                	add    %eax,%edx
   1f562:	0f b6 45 e8          	movzbl -0x18(%ebp),%eax
   1f566:	88 02                	mov    %al,(%edx)
   1f568:	8b 15 c0 86 44 00    	mov    0x4486c0,%edx
   1f56e:	8b 45 fc             	mov    -0x4(%ebp),%eax
   1f571:	01 c2                	add    %eax,%edx
   1f573:	0f b6 45 e4          	movzbl -0x1c(%ebp),%eax
   1f577:	88 02                	mov    %al,(%edx)
   1f579:	eb 01                	jmp    1f57c <_Z15screen_putpixeljjhhh+0x7e>
   1f57b:	90                   	nop
   1f57c:	c9                   	leave  
   1f57d:	c3                   	ret    

0001f57e <_Z15screen_fillrectjjjjhhh>:
   1f57e:	55                   	push   %ebp
   1f57f:	89 e5                	mov    %esp,%ebp
   1f581:	83 ec 1c             	sub    $0x1c,%esp
   1f584:	8b 4d 18             	mov    0x18(%ebp),%ecx
   1f587:	8b 55 1c             	mov    0x1c(%ebp),%edx
   1f58a:	8b 45 20             	mov    0x20(%ebp),%eax
   1f58d:	88 4d ec             	mov    %cl,-0x14(%ebp)
   1f590:	88 55 e8             	mov    %dl,-0x18(%ebp)
   1f593:	88 45 e4             	mov    %al,-0x1c(%ebp)
   1f596:	c7 45 f4 00 00 00 00 	movl   $0x0,-0xc(%ebp)
   1f59d:	c7 45 fc 00 00 00 00 	movl   $0x0,-0x4(%ebp)
   1f5a4:	8b 45 fc             	mov    -0x4(%ebp),%eax
   1f5a7:	3b 45 14             	cmp    0x14(%ebp),%eax
   1f5aa:	0f 83 83 00 00 00    	jae    1f633 <_Z15screen_fillrectjjjjhhh+0xb5>
   1f5b0:	c7 45 f8 00 00 00 00 	movl   $0x0,-0x8(%ebp)
   1f5b7:	8b 45 f8             	mov    -0x8(%ebp),%eax
   1f5ba:	3b 45 10             	cmp    0x10(%ebp),%eax
   1f5bd:	73 6b                	jae    1f62a <_Z15screen_fillrectjjjjhhh+0xac>
   1f5bf:	8b 55 0c             	mov    0xc(%ebp),%edx
   1f5c2:	8b 45 fc             	mov    -0x4(%ebp),%eax
   1f5c5:	01 c2                	add    %eax,%edx
   1f5c7:	a1 b4 86 44 00       	mov    0x4486b4,%eax
   1f5cc:	0f af d0             	imul   %eax,%edx
   1f5cf:	8b 4d 08             	mov    0x8(%ebp),%ecx
   1f5d2:	8b 45 f8             	mov    -0x8(%ebp),%eax
   1f5d5:	01 c1                	add    %eax,%ecx
   1f5d7:	0f b7 05 b0 86 44 00 	movzwl 0x4486b0,%eax
   1f5de:	66 c1 e8 03          	shr    $0x3,%ax
   1f5e2:	0f b7 c0             	movzwl %ax,%eax
   1f5e5:	0f af c1             	imul   %ecx,%eax
   1f5e8:	01 d0                	add    %edx,%eax
   1f5ea:	89 45 f4             	mov    %eax,-0xc(%ebp)
   1f5ed:	8b 15 c0 86 44 00    	mov    0x4486c0,%edx
   1f5f3:	8b 45 f4             	mov    -0xc(%ebp),%eax
   1f5f6:	01 c2                	add    %eax,%edx
   1f5f8:	0f b6 45 e4          	movzbl -0x1c(%ebp),%eax
   1f5fc:	88 02                	mov    %al,(%edx)
   1f5fe:	a1 c0 86 44 00       	mov    0x4486c0,%eax
   1f603:	8b 55 f4             	mov    -0xc(%ebp),%edx
   1f606:	83 c2 01             	add    $0x1,%edx
   1f609:	01 c2                	add    %eax,%edx
   1f60b:	0f b6 45 e8          	movzbl -0x18(%ebp),%eax
   1f60f:	88 02                	mov    %al,(%edx)
   1f611:	a1 c0 86 44 00       	mov    0x4486c0,%eax
   1f616:	8b 55 f4             	mov    -0xc(%ebp),%edx
   1f619:	83 c2 02             	add    $0x2,%edx
   1f61c:	01 c2                	add    %eax,%edx
   1f61e:	0f b6 45 ec          	movzbl -0x14(%ebp),%eax
   1f622:	88 02                	mov    %al,(%edx)
   1f624:	83 45 f8 01          	addl   $0x1,-0x8(%ebp)
   1f628:	eb 8d                	jmp    1f5b7 <_Z15screen_fillrectjjjjhhh+0x39>
   1f62a:	83 45 fc 01          	addl   $0x1,-0x4(%ebp)
   1f62e:	e9 71 ff ff ff       	jmp    1f5a4 <_Z15screen_fillrectjjjjhhh+0x26>
   1f633:	90                   	nop
   1f634:	c9                   	leave  
   1f635:	c3                   	ret    

0001f636 <_Z22screen_fillrect_directjjjjhhh>:
   1f636:	55                   	push   %ebp
   1f637:	89 e5                	mov    %esp,%ebp
   1f639:	83 ec 1c             	sub    $0x1c,%esp
   1f63c:	8b 4d 18             	mov    0x18(%ebp),%ecx
   1f63f:	8b 55 1c             	mov    0x1c(%ebp),%edx
   1f642:	8b 45 20             	mov    0x20(%ebp),%eax
   1f645:	88 4d ec             	mov    %cl,-0x14(%ebp)
   1f648:	88 55 e8             	mov    %dl,-0x18(%ebp)
   1f64b:	88 45 e4             	mov    %al,-0x1c(%ebp)
   1f64e:	c7 45 f4 00 00 00 00 	movl   $0x0,-0xc(%ebp)
   1f655:	c7 45 fc 00 00 00 00 	movl   $0x0,-0x4(%ebp)
   1f65c:	8b 45 fc             	mov    -0x4(%ebp),%eax
   1f65f:	3b 45 14             	cmp    0x14(%ebp),%eax
   1f662:	0f 83 83 00 00 00    	jae    1f6eb <_Z22screen_fillrect_directjjjjhhh+0xb5>
   1f668:	c7 45 f8 00 00 00 00 	movl   $0x0,-0x8(%ebp)
   1f66f:	8b 45 f8             	mov    -0x8(%ebp),%eax
   1f672:	3b 45 10             	cmp    0x10(%ebp),%eax
   1f675:	73 6b                	jae    1f6e2 <_Z22screen_fillrect_directjjjjhhh+0xac>
   1f677:	8b 55 0c             	mov    0xc(%ebp),%edx
   1f67a:	8b 45 fc             	mov    -0x4(%ebp),%eax
   1f67d:	01 c2                	add    %eax,%edx
   1f67f:	a1 b4 86 44 00       	mov    0x4486b4,%eax
   1f684:	0f af d0             	imul   %eax,%edx
   1f687:	8b 4d 08             	mov    0x8(%ebp),%ecx
   1f68a:	8b 45 f8             	mov    -0x8(%ebp),%eax
   1f68d:	01 c1                	add    %eax,%ecx
   1f68f:	0f b7 05 b0 86 44 00 	movzwl 0x4486b0,%eax
   1f696:	66 c1 e8 03          	shr    $0x3,%ax
   1f69a:	0f b7 c0             	movzwl %ax,%eax
   1f69d:	0f af c1             	imul   %ecx,%eax
   1f6a0:	01 d0                	add    %edx,%eax
   1f6a2:	89 45 f4             	mov    %eax,-0xc(%ebp)
   1f6a5:	8b 15 c4 86 44 00    	mov    0x4486c4,%edx
   1f6ab:	8b 45 f4             	mov    -0xc(%ebp),%eax
   1f6ae:	01 c2                	add    %eax,%edx
   1f6b0:	0f b6 45 e4          	movzbl -0x1c(%ebp),%eax
   1f6b4:	88 02                	mov    %al,(%edx)
   1f6b6:	a1 c4 86 44 00       	mov    0x4486c4,%eax
   1f6bb:	8b 55 f4             	mov    -0xc(%ebp),%edx
   1f6be:	83 c2 01             	add    $0x1,%edx
   1f6c1:	01 c2                	add    %eax,%edx
   1f6c3:	0f b6 45 e8          	movzbl -0x18(%ebp),%eax
   1f6c7:	88 02                	mov    %al,(%edx)
   1f6c9:	a1 c4 86 44 00       	mov    0x4486c4,%eax
   1f6ce:	8b 55 f4             	mov    -0xc(%ebp),%edx
   1f6d1:	83 c2 02             	add    $0x2,%edx
   1f6d4:	01 c2                	add    %eax,%edx
   1f6d6:	0f b6 45 ec          	movzbl -0x14(%ebp),%eax
   1f6da:	88 02                	mov    %al,(%edx)
   1f6dc:	83 45 f8 01          	addl   $0x1,-0x8(%ebp)
   1f6e0:	eb 8d                	jmp    1f66f <_Z22screen_fillrect_directjjjjhhh+0x39>
   1f6e2:	83 45 fc 01          	addl   $0x1,-0x4(%ebp)
   1f6e6:	e9 71 ff ff ff       	jmp    1f65c <_Z22screen_fillrect_directjjjjhhh+0x26>
   1f6eb:	90                   	nop
   1f6ec:	c9                   	leave  
   1f6ed:	c3                   	ret    

0001f6ee <_Z8drawcharcjjhhhi>:
   1f6ee:	55                   	push   %ebp
   1f6ef:	89 e5                	mov    %esp,%ebp
   1f6f1:	57                   	push   %edi
   1f6f2:	56                   	push   %esi
   1f6f3:	53                   	push   %ebx
   1f6f4:	83 ec 28             	sub    $0x28,%esp
   1f6f7:	8b 5d 08             	mov    0x8(%ebp),%ebx
   1f6fa:	8b 4d 14             	mov    0x14(%ebp),%ecx
   1f6fd:	8b 55 18             	mov    0x18(%ebp),%edx
   1f700:	8b 45 1c             	mov    0x1c(%ebp),%eax
   1f703:	88 5d e0             	mov    %bl,-0x20(%ebp)
   1f706:	88 4d dc             	mov    %cl,-0x24(%ebp)
   1f709:	88 55 d8             	mov    %dl,-0x28(%ebp)
   1f70c:	88 45 d4             	mov    %al,-0x2c(%ebp)
   1f70f:	c7 45 f0 00 00 00 00 	movl   $0x0,-0x10(%ebp)
   1f716:	83 7d f0 07          	cmpl   $0x7,-0x10(%ebp)
   1f71a:	0f 8f a2 00 00 00    	jg     1f7c2 <_Z8drawcharcjjhhhi+0xd4>
   1f720:	0f be 45 e0          	movsbl -0x20(%ebp),%eax
   1f724:	8d 14 c5 00 00 00 00 	lea    0x0(,%eax,8),%edx
   1f72b:	8b 45 f0             	mov    -0x10(%ebp),%eax
   1f72e:	01 d0                	add    %edx,%eax
   1f730:	05 a0 11 02 00       	add    $0x211a0,%eax
   1f735:	0f b6 00             	movzbl (%eax),%eax
   1f738:	0f b6 c0             	movzbl %al,%eax
   1f73b:	89 45 e8             	mov    %eax,-0x18(%ebp)
   1f73e:	c7 45 ec 00 00 00 00 	movl   $0x0,-0x14(%ebp)
   1f745:	83 7d ec 07          	cmpl   $0x7,-0x14(%ebp)
   1f749:	7f 6e                	jg     1f7b9 <_Z8drawcharcjjhhhi+0xcb>
   1f74b:	8b 45 ec             	mov    -0x14(%ebp),%eax
   1f74e:	ba 01 00 00 00       	mov    $0x1,%edx
   1f753:	89 c1                	mov    %eax,%ecx
   1f755:	d3 e2                	shl    %cl,%edx
   1f757:	89 d0                	mov    %edx,%eax
   1f759:	23 45 e8             	and    -0x18(%ebp),%eax
   1f75c:	89 c2                	mov    %eax,%edx
   1f75e:	8b 45 ec             	mov    -0x14(%ebp),%eax
   1f761:	89 c1                	mov    %eax,%ecx
   1f763:	d3 fa                	sar    %cl,%edx
   1f765:	89 d0                	mov    %edx,%eax
   1f767:	85 c0                	test   %eax,%eax
   1f769:	74 48                	je     1f7b3 <_Z8drawcharcjjhhhi+0xc5>
   1f76b:	0f b6 45 d4          	movzbl -0x2c(%ebp),%eax
   1f76f:	89 45 d0             	mov    %eax,-0x30(%ebp)
   1f772:	0f b6 75 d8          	movzbl -0x28(%ebp),%esi
   1f776:	89 75 cc             	mov    %esi,-0x34(%ebp)
   1f779:	0f b6 7d dc          	movzbl -0x24(%ebp),%edi
   1f77d:	8b 75 20             	mov    0x20(%ebp),%esi
   1f780:	8b 5d 20             	mov    0x20(%ebp),%ebx
   1f783:	8b 45 f0             	mov    -0x10(%ebp),%eax
   1f786:	0f af 45 20          	imul   0x20(%ebp),%eax
   1f78a:	89 c2                	mov    %eax,%edx
   1f78c:	8b 45 10             	mov    0x10(%ebp),%eax
   1f78f:	8d 0c 02             	lea    (%edx,%eax,1),%ecx
   1f792:	8b 45 ec             	mov    -0x14(%ebp),%eax
   1f795:	0f af 45 20          	imul   0x20(%ebp),%eax
   1f799:	89 c2                	mov    %eax,%edx
   1f79b:	8b 45 0c             	mov    0xc(%ebp),%eax
   1f79e:	01 d0                	add    %edx,%eax
   1f7a0:	ff 75 d0             	pushl  -0x30(%ebp)
   1f7a3:	ff 75 cc             	pushl  -0x34(%ebp)
   1f7a6:	57                   	push   %edi
   1f7a7:	56                   	push   %esi
   1f7a8:	53                   	push   %ebx
   1f7a9:	51                   	push   %ecx
   1f7aa:	50                   	push   %eax
   1f7ab:	e8 ce fd ff ff       	call   1f57e <_Z15screen_fillrectjjjjhhh>
   1f7b0:	83 c4 1c             	add    $0x1c,%esp
   1f7b3:	83 45 ec 01          	addl   $0x1,-0x14(%ebp)
   1f7b7:	eb 8c                	jmp    1f745 <_Z8drawcharcjjhhhi+0x57>
   1f7b9:	83 45 f0 01          	addl   $0x1,-0x10(%ebp)
   1f7bd:	e9 54 ff ff ff       	jmp    1f716 <_Z8drawcharcjjhhhi+0x28>
   1f7c2:	90                   	nop
   1f7c3:	8d 65 f4             	lea    -0xc(%ebp),%esp
   1f7c6:	5b                   	pop    %ebx
   1f7c7:	5e                   	pop    %esi
   1f7c8:	5f                   	pop    %edi
   1f7c9:	5d                   	pop    %ebp
   1f7ca:	c3                   	ret    

0001f7cb <_Z15drawchar_directcjjhhhi>:
   1f7cb:	55                   	push   %ebp
   1f7cc:	89 e5                	mov    %esp,%ebp
   1f7ce:	57                   	push   %edi
   1f7cf:	56                   	push   %esi
   1f7d0:	53                   	push   %ebx
   1f7d1:	83 ec 28             	sub    $0x28,%esp
   1f7d4:	8b 5d 08             	mov    0x8(%ebp),%ebx
   1f7d7:	8b 4d 14             	mov    0x14(%ebp),%ecx
   1f7da:	8b 55 18             	mov    0x18(%ebp),%edx
   1f7dd:	8b 45 1c             	mov    0x1c(%ebp),%eax
   1f7e0:	88 5d e0             	mov    %bl,-0x20(%ebp)
   1f7e3:	88 4d dc             	mov    %cl,-0x24(%ebp)
   1f7e6:	88 55 d8             	mov    %dl,-0x28(%ebp)
   1f7e9:	88 45 d4             	mov    %al,-0x2c(%ebp)
   1f7ec:	c7 45 f0 00 00 00 00 	movl   $0x0,-0x10(%ebp)
   1f7f3:	83 7d f0 07          	cmpl   $0x7,-0x10(%ebp)
   1f7f7:	0f 8f a2 00 00 00    	jg     1f89f <_Z15drawchar_directcjjhhhi+0xd4>
   1f7fd:	0f be 45 e0          	movsbl -0x20(%ebp),%eax
   1f801:	8d 14 c5 00 00 00 00 	lea    0x0(,%eax,8),%edx
   1f808:	8b 45 f0             	mov    -0x10(%ebp),%eax
   1f80b:	01 d0                	add    %edx,%eax
   1f80d:	05 a0 11 02 00       	add    $0x211a0,%eax
   1f812:	0f b6 00             	movzbl (%eax),%eax
   1f815:	0f b6 c0             	movzbl %al,%eax
   1f818:	89 45 e8             	mov    %eax,-0x18(%ebp)
   1f81b:	c7 45 ec 00 00 00 00 	movl   $0x0,-0x14(%ebp)
   1f822:	83 7d ec 07          	cmpl   $0x7,-0x14(%ebp)
   1f826:	7f 6e                	jg     1f896 <_Z15drawchar_directcjjhhhi+0xcb>
   1f828:	8b 45 ec             	mov    -0x14(%ebp),%eax
   1f82b:	ba 01 00 00 00       	mov    $0x1,%edx
   1f830:	89 c1                	mov    %eax,%ecx
   1f832:	d3 e2                	shl    %cl,%edx
   1f834:	89 d0                	mov    %edx,%eax
   1f836:	23 45 e8             	and    -0x18(%ebp),%eax
   1f839:	89 c2                	mov    %eax,%edx
   1f83b:	8b 45 ec             	mov    -0x14(%ebp),%eax
   1f83e:	89 c1                	mov    %eax,%ecx
   1f840:	d3 fa                	sar    %cl,%edx
   1f842:	89 d0                	mov    %edx,%eax
   1f844:	85 c0                	test   %eax,%eax
   1f846:	74 48                	je     1f890 <_Z15drawchar_directcjjhhhi+0xc5>
   1f848:	0f b6 45 d4          	movzbl -0x2c(%ebp),%eax
   1f84c:	89 45 d0             	mov    %eax,-0x30(%ebp)
   1f84f:	0f b6 75 d8          	movzbl -0x28(%ebp),%esi
   1f853:	89 75 cc             	mov    %esi,-0x34(%ebp)
   1f856:	0f b6 7d dc          	movzbl -0x24(%ebp),%edi
   1f85a:	8b 75 20             	mov    0x20(%ebp),%esi
   1f85d:	8b 5d 20             	mov    0x20(%ebp),%ebx
   1f860:	8b 45 f0             	mov    -0x10(%ebp),%eax
   1f863:	0f af 45 20          	imul   0x20(%ebp),%eax
   1f867:	89 c2                	mov    %eax,%edx
   1f869:	8b 45 10             	mov    0x10(%ebp),%eax
   1f86c:	8d 0c 02             	lea    (%edx,%eax,1),%ecx
   1f86f:	8b 45 ec             	mov    -0x14(%ebp),%eax
   1f872:	0f af 45 20          	imul   0x20(%ebp),%eax
   1f876:	89 c2                	mov    %eax,%edx
   1f878:	8b 45 0c             	mov    0xc(%ebp),%eax
   1f87b:	01 d0                	add    %edx,%eax
   1f87d:	ff 75 d0             	pushl  -0x30(%ebp)
   1f880:	ff 75 cc             	pushl  -0x34(%ebp)
   1f883:	57                   	push   %edi
   1f884:	56                   	push   %esi
   1f885:	53                   	push   %ebx
   1f886:	51                   	push   %ecx
   1f887:	50                   	push   %eax
   1f888:	e8 a9 fd ff ff       	call   1f636 <_Z22screen_fillrect_directjjjjhhh>
   1f88d:	83 c4 1c             	add    $0x1c,%esp
   1f890:	83 45 ec 01          	addl   $0x1,-0x14(%ebp)
   1f894:	eb 8c                	jmp    1f822 <_Z15drawchar_directcjjhhhi+0x57>
   1f896:	83 45 f0 01          	addl   $0x1,-0x10(%ebp)
   1f89a:	e9 54 ff ff ff       	jmp    1f7f3 <_Z15drawchar_directcjjhhhi+0x28>
   1f89f:	90                   	nop
   1f8a0:	8d 65 f4             	lea    -0xc(%ebp),%esp
   1f8a3:	5b                   	pop    %ebx
   1f8a4:	5e                   	pop    %esi
   1f8a5:	5f                   	pop    %edi
   1f8a6:	5d                   	pop    %ebp
   1f8a7:	c3                   	ret    

0001f8a8 <_Z10drawstringPcjjhhhi>:
   1f8a8:	55                   	push   %ebp
   1f8a9:	89 e5                	mov    %esp,%ebp
   1f8ab:	56                   	push   %esi
   1f8ac:	53                   	push   %ebx
   1f8ad:	83 ec 1c             	sub    $0x1c,%esp
   1f8b0:	8b 4d 14             	mov    0x14(%ebp),%ecx
   1f8b3:	8b 55 18             	mov    0x18(%ebp),%edx
   1f8b6:	8b 45 1c             	mov    0x1c(%ebp),%eax
   1f8b9:	88 4d e4             	mov    %cl,-0x1c(%ebp)
   1f8bc:	88 55 e0             	mov    %dl,-0x20(%ebp)
   1f8bf:	88 45 dc             	mov    %al,-0x24(%ebp)
   1f8c2:	c7 45 f4 00 00 00 00 	movl   $0x0,-0xc(%ebp)
   1f8c9:	8b 45 08             	mov    0x8(%ebp),%eax
   1f8cc:	0f b6 00             	movzbl (%eax),%eax
   1f8cf:	84 c0                	test   %al,%al
   1f8d1:	74 3f                	je     1f912 <_Z10drawstringPcjjhhhi+0x6a>
   1f8d3:	0f b6 5d dc          	movzbl -0x24(%ebp),%ebx
   1f8d7:	0f b6 4d e0          	movzbl -0x20(%ebp),%ecx
   1f8db:	0f b6 55 e4          	movzbl -0x1c(%ebp),%edx
   1f8df:	8b 75 f4             	mov    -0xc(%ebp),%esi
   1f8e2:	8b 45 0c             	mov    0xc(%ebp),%eax
   1f8e5:	01 c6                	add    %eax,%esi
   1f8e7:	8b 45 08             	mov    0x8(%ebp),%eax
   1f8ea:	0f b6 00             	movzbl (%eax),%eax
   1f8ed:	0f be c0             	movsbl %al,%eax
   1f8f0:	ff 75 20             	pushl  0x20(%ebp)
   1f8f3:	53                   	push   %ebx
   1f8f4:	51                   	push   %ecx
   1f8f5:	52                   	push   %edx
   1f8f6:	ff 75 10             	pushl  0x10(%ebp)
   1f8f9:	56                   	push   %esi
   1f8fa:	50                   	push   %eax
   1f8fb:	e8 ee fd ff ff       	call   1f6ee <_Z8drawcharcjjhhhi>
   1f900:	83 c4 1c             	add    $0x1c,%esp
   1f903:	8b 45 20             	mov    0x20(%ebp),%eax
   1f906:	c1 e0 03             	shl    $0x3,%eax
   1f909:	01 45 f4             	add    %eax,-0xc(%ebp)
   1f90c:	83 45 08 01          	addl   $0x1,0x8(%ebp)
   1f910:	eb b7                	jmp    1f8c9 <_Z10drawstringPcjjhhhi+0x21>
   1f912:	90                   	nop
   1f913:	8d 65 f8             	lea    -0x8(%ebp),%esp
   1f916:	5b                   	pop    %ebx
   1f917:	5e                   	pop    %esi
   1f918:	5d                   	pop    %ebp
   1f919:	c3                   	ret    

0001f91a <_Z17drawstring_directPcjjhhhi>:
   1f91a:	55                   	push   %ebp
   1f91b:	89 e5                	mov    %esp,%ebp
   1f91d:	56                   	push   %esi
   1f91e:	53                   	push   %ebx
   1f91f:	83 ec 1c             	sub    $0x1c,%esp
   1f922:	8b 4d 14             	mov    0x14(%ebp),%ecx
   1f925:	8b 55 18             	mov    0x18(%ebp),%edx
   1f928:	8b 45 1c             	mov    0x1c(%ebp),%eax
   1f92b:	88 4d e4             	mov    %cl,-0x1c(%ebp)
   1f92e:	88 55 e0             	mov    %dl,-0x20(%ebp)
   1f931:	88 45 dc             	mov    %al,-0x24(%ebp)
   1f934:	c7 45 f4 00 00 00 00 	movl   $0x0,-0xc(%ebp)
   1f93b:	8b 45 08             	mov    0x8(%ebp),%eax
   1f93e:	0f b6 00             	movzbl (%eax),%eax
   1f941:	84 c0                	test   %al,%al
   1f943:	74 3f                	je     1f984 <_Z17drawstring_directPcjjhhhi+0x6a>
   1f945:	0f b6 5d dc          	movzbl -0x24(%ebp),%ebx
   1f949:	0f b6 4d e0          	movzbl -0x20(%ebp),%ecx
   1f94d:	0f b6 55 e4          	movzbl -0x1c(%ebp),%edx
   1f951:	8b 75 f4             	mov    -0xc(%ebp),%esi
   1f954:	8b 45 0c             	mov    0xc(%ebp),%eax
   1f957:	01 c6                	add    %eax,%esi
   1f959:	8b 45 08             	mov    0x8(%ebp),%eax
   1f95c:	0f b6 00             	movzbl (%eax),%eax
   1f95f:	0f be c0             	movsbl %al,%eax
   1f962:	ff 75 20             	pushl  0x20(%ebp)
   1f965:	53                   	push   %ebx
   1f966:	51                   	push   %ecx
   1f967:	52                   	push   %edx
   1f968:	ff 75 10             	pushl  0x10(%ebp)
   1f96b:	56                   	push   %esi
   1f96c:	50                   	push   %eax
   1f96d:	e8 59 fe ff ff       	call   1f7cb <_Z15drawchar_directcjjhhhi>
   1f972:	83 c4 1c             	add    $0x1c,%esp
   1f975:	8b 45 20             	mov    0x20(%ebp),%eax
   1f978:	c1 e0 03             	shl    $0x3,%eax
   1f97b:	01 45 f4             	add    %eax,-0xc(%ebp)
   1f97e:	83 45 08 01          	addl   $0x1,0x8(%ebp)
   1f982:	eb b7                	jmp    1f93b <_Z17drawstring_directPcjjhhhi+0x21>
   1f984:	90                   	nop
   1f985:	8d 65 f8             	lea    -0x8(%ebp),%esp
   1f988:	5b                   	pop    %ebx
   1f989:	5e                   	pop    %esi
   1f98a:	5d                   	pop    %ebp
   1f98b:	c3                   	ret    

0001f98c <_Z19drawgrayscalebitmapjjjjPh>:
   1f98c:	55                   	push   %ebp
   1f98d:	89 e5                	mov    %esp,%ebp
   1f98f:	83 ec 10             	sub    $0x10,%esp
   1f992:	c7 45 f4 00 00 00 00 	movl   $0x0,-0xc(%ebp)
   1f999:	c7 45 fc 00 00 00 00 	movl   $0x0,-0x4(%ebp)
   1f9a0:	8b 45 fc             	mov    -0x4(%ebp),%eax
   1f9a3:	3b 45 14             	cmp    0x14(%ebp),%eax
   1f9a6:	0f 83 a9 00 00 00    	jae    1fa55 <_Z19drawgrayscalebitmapjjjjPh+0xc9>
   1f9ac:	c7 45 f8 00 00 00 00 	movl   $0x0,-0x8(%ebp)
   1f9b3:	8b 45 f8             	mov    -0x8(%ebp),%eax
   1f9b6:	3b 45 10             	cmp    0x10(%ebp),%eax
   1f9b9:	0f 83 8d 00 00 00    	jae    1fa4c <_Z19drawgrayscalebitmapjjjjPh+0xc0>
   1f9bf:	8b 55 0c             	mov    0xc(%ebp),%edx
   1f9c2:	8b 45 fc             	mov    -0x4(%ebp),%eax
   1f9c5:	01 c2                	add    %eax,%edx
   1f9c7:	a1 b4 86 44 00       	mov    0x4486b4,%eax
   1f9cc:	0f af d0             	imul   %eax,%edx
   1f9cf:	8b 4d 08             	mov    0x8(%ebp),%ecx
   1f9d2:	8b 45 f8             	mov    -0x8(%ebp),%eax
   1f9d5:	01 c1                	add    %eax,%ecx
   1f9d7:	0f b7 05 b0 86 44 00 	movzwl 0x4486b0,%eax
   1f9de:	66 c1 e8 03          	shr    $0x3,%ax
   1f9e2:	0f b7 c0             	movzwl %ax,%eax
   1f9e5:	0f af c1             	imul   %ecx,%eax
   1f9e8:	01 d0                	add    %edx,%eax
   1f9ea:	89 45 f4             	mov    %eax,-0xc(%ebp)
   1f9ed:	8b 45 fc             	mov    -0x4(%ebp),%eax
   1f9f0:	0f af 45 10          	imul   0x10(%ebp),%eax
   1f9f4:	89 c2                	mov    %eax,%edx
   1f9f6:	8b 45 f8             	mov    -0x8(%ebp),%eax
   1f9f9:	01 c2                	add    %eax,%edx
   1f9fb:	8b 45 18             	mov    0x18(%ebp),%eax
   1f9fe:	01 d0                	add    %edx,%eax
   1fa00:	0f b6 00             	movzbl (%eax),%eax
   1fa03:	88 45 f3             	mov    %al,-0xd(%ebp)
   1fa06:	80 7d f3 01          	cmpb   $0x1,-0xd(%ebp)
   1fa0a:	74 37                	je     1fa43 <_Z19drawgrayscalebitmapjjjjPh+0xb7>
   1fa0c:	8b 15 c0 86 44 00    	mov    0x4486c0,%edx
   1fa12:	8b 45 f4             	mov    -0xc(%ebp),%eax
   1fa15:	01 c2                	add    %eax,%edx
   1fa17:	0f b6 45 f3          	movzbl -0xd(%ebp),%eax
   1fa1b:	88 02                	mov    %al,(%edx)
   1fa1d:	a1 c0 86 44 00       	mov    0x4486c0,%eax
   1fa22:	8b 55 f4             	mov    -0xc(%ebp),%edx
   1fa25:	83 c2 01             	add    $0x1,%edx
   1fa28:	01 c2                	add    %eax,%edx
   1fa2a:	0f b6 45 f3          	movzbl -0xd(%ebp),%eax
   1fa2e:	88 02                	mov    %al,(%edx)
   1fa30:	a1 c0 86 44 00       	mov    0x4486c0,%eax
   1fa35:	8b 55 f4             	mov    -0xc(%ebp),%edx
   1fa38:	83 c2 02             	add    $0x2,%edx
   1fa3b:	01 c2                	add    %eax,%edx
   1fa3d:	0f b6 45 f3          	movzbl -0xd(%ebp),%eax
   1fa41:	88 02                	mov    %al,(%edx)
   1fa43:	83 45 f8 01          	addl   $0x1,-0x8(%ebp)
   1fa47:	e9 67 ff ff ff       	jmp    1f9b3 <_Z19drawgrayscalebitmapjjjjPh+0x27>
   1fa4c:	83 45 fc 01          	addl   $0x1,-0x4(%ebp)
   1fa50:	e9 4b ff ff ff       	jmp    1f9a0 <_Z19drawgrayscalebitmapjjjjPh+0x14>
   1fa55:	90                   	nop
   1fa56:	c9                   	leave  
   1fa57:	c3                   	ret    

0001fa58 <_Z14get_video_modev>:
   1fa58:	55                   	push   %ebp
   1fa59:	89 e5                	mov    %esp,%ebp
   1fa5b:	8b 45 08             	mov    0x8(%ebp),%eax
   1fa5e:	8b 15 a8 86 44 00    	mov    0x4486a8,%edx
   1fa64:	89 10                	mov    %edx,(%eax)
   1fa66:	8b 15 ac 86 44 00    	mov    0x4486ac,%edx
   1fa6c:	89 50 04             	mov    %edx,0x4(%eax)
   1fa6f:	8b 15 b0 86 44 00    	mov    0x4486b0,%edx
   1fa75:	89 50 08             	mov    %edx,0x8(%eax)
   1fa78:	8b 15 b4 86 44 00    	mov    0x4486b4,%edx
   1fa7e:	89 50 0c             	mov    %edx,0xc(%eax)
   1fa81:	8b 15 b8 86 44 00    	mov    0x4486b8,%edx
   1fa87:	89 50 10             	mov    %edx,0x10(%eax)
   1fa8a:	8b 15 bc 86 44 00    	mov    0x4486bc,%edx
   1fa90:	89 50 14             	mov    %edx,0x14(%eax)
   1fa93:	8b 45 08             	mov    0x8(%ebp),%eax
   1fa96:	5d                   	pop    %ebp
   1fa97:	c2 04 00             	ret    $0x4

0001fa9a <_Z10drawbitmapiiiiiiPhi>:
   1fa9a:	55                   	push   %ebp
   1fa9b:	89 e5                	mov    %esp,%ebp
   1fa9d:	53                   	push   %ebx
   1fa9e:	83 ec 64             	sub    $0x64,%esp
   1faa1:	8b 45 24             	mov    0x24(%ebp),%eax
   1faa4:	0f af 45 18          	imul   0x18(%ebp),%eax
   1faa8:	83 c0 1f             	add    $0x1f,%eax
   1faab:	8d 50 1f             	lea    0x1f(%eax),%edx
   1faae:	85 c0                	test   %eax,%eax
   1fab0:	0f 48 c2             	cmovs  %edx,%eax
   1fab3:	c1 f8 05             	sar    $0x5,%eax
   1fab6:	89 45 a4             	mov    %eax,-0x5c(%ebp)
   1fab9:	db 45 a4             	fildl  -0x5c(%ebp)
   1fabc:	83 ec 08             	sub    $0x8,%esp
   1fabf:	8d 64 24 f8          	lea    -0x8(%esp),%esp
   1fac3:	dd 1c 24             	fstpl  (%esp)
   1fac6:	e8 54 b3 ff ff       	call   1ae1f <_Z5floord>
   1facb:	83 c4 10             	add    $0x10,%esp
   1face:	c1 e0 02             	shl    $0x2,%eax
   1fad1:	89 45 c4             	mov    %eax,-0x3c(%ebp)
   1fad4:	8b 15 b4 86 44 00    	mov    0x4486b4,%edx
   1fada:	8b 45 0c             	mov    0xc(%ebp),%eax
   1fadd:	0f af c2             	imul   %edx,%eax
   1fae0:	89 45 c0             	mov    %eax,-0x40(%ebp)
   1fae3:	c7 45 f4 00 00 00 00 	movl   $0x0,-0xc(%ebp)
   1faea:	c7 45 f0 00 00 00 00 	movl   $0x0,-0x10(%ebp)
   1faf1:	8b 45 10             	mov    0x10(%ebp),%eax
   1faf4:	0f af 45 14          	imul   0x14(%ebp),%eax
   1faf8:	89 c2                	mov    %eax,%edx
   1fafa:	0f b7 05 b0 86 44 00 	movzwl 0x4486b0,%eax
   1fb01:	66 c1 e8 03          	shr    $0x3,%ax
   1fb05:	0f b7 c0             	movzwl %ax,%eax
   1fb08:	0f af c2             	imul   %edx,%eax
   1fb0b:	83 ec 0c             	sub    $0xc,%esp
   1fb0e:	50                   	push   %eax
   1fb0f:	e8 30 90 ff ff       	call   18b44 <kmalloc>
   1fb14:	83 c4 10             	add    $0x10,%esp
   1fb17:	89 45 bc             	mov    %eax,-0x44(%ebp)
   1fb1a:	8b 45 18             	mov    0x18(%ebp),%eax
   1fb1d:	99                   	cltd   
   1fb1e:	f7 7d 10             	idivl  0x10(%ebp)
   1fb21:	89 45 b8             	mov    %eax,-0x48(%ebp)
   1fb24:	8b 45 1c             	mov    0x1c(%ebp),%eax
   1fb27:	99                   	cltd   
   1fb28:	f7 7d 14             	idivl  0x14(%ebp)
   1fb2b:	89 45 b4             	mov    %eax,-0x4c(%ebp)
   1fb2e:	0f b7 05 b0 86 44 00 	movzwl 0x4486b0,%eax
   1fb35:	66 c1 e8 03          	shr    $0x3,%ax
   1fb39:	0f b7 c0             	movzwl %ax,%eax
   1fb3c:	89 45 b0             	mov    %eax,-0x50(%ebp)
   1fb3f:	83 7d b8 01          	cmpl   $0x1,-0x48(%ebp)
   1fb43:	75 0a                	jne    1fb4f <_Z10drawbitmapiiiiiiPhi+0xb5>
   1fb45:	83 7d b4 01          	cmpl   $0x1,-0x4c(%ebp)
   1fb49:	0f 84 fa 00 00 00    	je     1fc49 <_Z10drawbitmapiiiiiiPhi+0x1af>
   1fb4f:	c7 45 ec 00 00 00 00 	movl   $0x0,-0x14(%ebp)
   1fb56:	8b 45 ec             	mov    -0x14(%ebp),%eax
   1fb59:	3b 45 14             	cmp    0x14(%ebp),%eax
   1fb5c:	0f 8d b1 02 00 00    	jge    1fe13 <_Z10drawbitmapiiiiiiPhi+0x379>
   1fb62:	c7 45 e8 00 00 00 00 	movl   $0x0,-0x18(%ebp)
   1fb69:	8b 45 e8             	mov    -0x18(%ebp),%eax
   1fb6c:	3b 45 10             	cmp    0x10(%ebp),%eax
   1fb6f:	0f 8d b7 00 00 00    	jge    1fc2c <_Z10drawbitmapiiiiiiPhi+0x192>
   1fb75:	8b 45 e8             	mov    -0x18(%ebp),%eax
   1fb78:	0f af 45 b0          	imul   -0x50(%ebp),%eax
   1fb7c:	89 c2                	mov    %eax,%edx
   1fb7e:	8b 45 f0             	mov    -0x10(%ebp),%eax
   1fb81:	01 c2                	add    %eax,%edx
   1fb83:	8b 45 bc             	mov    -0x44(%ebp),%eax
   1fb86:	01 c2                	add    %eax,%edx
   1fb88:	8b 45 24             	mov    0x24(%ebp),%eax
   1fb8b:	8d 48 07             	lea    0x7(%eax),%ecx
   1fb8e:	85 c0                	test   %eax,%eax
   1fb90:	0f 48 c1             	cmovs  %ecx,%eax
   1fb93:	c1 f8 03             	sar    $0x3,%eax
   1fb96:	0f af 45 e8          	imul   -0x18(%ebp),%eax
   1fb9a:	89 c1                	mov    %eax,%ecx
   1fb9c:	8b 45 f4             	mov    -0xc(%ebp),%eax
   1fb9f:	01 c1                	add    %eax,%ecx
   1fba1:	8b 45 20             	mov    0x20(%ebp),%eax
   1fba4:	01 c8                	add    %ecx,%eax
   1fba6:	0f b6 00             	movzbl (%eax),%eax
   1fba9:	88 02                	mov    %al,(%edx)
   1fbab:	8b 45 e8             	mov    -0x18(%ebp),%eax
   1fbae:	0f af 45 b0          	imul   -0x50(%ebp),%eax
   1fbb2:	89 c2                	mov    %eax,%edx
   1fbb4:	8b 45 f0             	mov    -0x10(%ebp),%eax
   1fbb7:	01 d0                	add    %edx,%eax
   1fbb9:	8d 50 01             	lea    0x1(%eax),%edx
   1fbbc:	8b 45 bc             	mov    -0x44(%ebp),%eax
   1fbbf:	01 c2                	add    %eax,%edx
   1fbc1:	8b 45 24             	mov    0x24(%ebp),%eax
   1fbc4:	8d 48 07             	lea    0x7(%eax),%ecx
   1fbc7:	85 c0                	test   %eax,%eax
   1fbc9:	0f 48 c1             	cmovs  %ecx,%eax
   1fbcc:	c1 f8 03             	sar    $0x3,%eax
   1fbcf:	0f af 45 e8          	imul   -0x18(%ebp),%eax
   1fbd3:	89 c1                	mov    %eax,%ecx
   1fbd5:	8b 45 f4             	mov    -0xc(%ebp),%eax
   1fbd8:	01 c8                	add    %ecx,%eax
   1fbda:	8d 48 01             	lea    0x1(%eax),%ecx
   1fbdd:	8b 45 20             	mov    0x20(%ebp),%eax
   1fbe0:	01 c8                	add    %ecx,%eax
   1fbe2:	0f b6 00             	movzbl (%eax),%eax
   1fbe5:	88 02                	mov    %al,(%edx)
   1fbe7:	8b 45 e8             	mov    -0x18(%ebp),%eax
   1fbea:	0f af 45 b0          	imul   -0x50(%ebp),%eax
   1fbee:	89 c2                	mov    %eax,%edx
   1fbf0:	8b 45 f0             	mov    -0x10(%ebp),%eax
   1fbf3:	01 d0                	add    %edx,%eax
   1fbf5:	8d 50 02             	lea    0x2(%eax),%edx
   1fbf8:	8b 45 bc             	mov    -0x44(%ebp),%eax
   1fbfb:	01 c2                	add    %eax,%edx
   1fbfd:	8b 45 24             	mov    0x24(%ebp),%eax
   1fc00:	8d 48 07             	lea    0x7(%eax),%ecx
   1fc03:	85 c0                	test   %eax,%eax
   1fc05:	0f 48 c1             	cmovs  %ecx,%eax
   1fc08:	c1 f8 03             	sar    $0x3,%eax
   1fc0b:	0f af 45 e8          	imul   -0x18(%ebp),%eax
   1fc0f:	89 c1                	mov    %eax,%ecx
   1fc11:	8b 45 f4             	mov    -0xc(%ebp),%eax
   1fc14:	01 c8                	add    %ecx,%eax
   1fc16:	8d 48 02             	lea    0x2(%eax),%ecx
   1fc19:	8b 45 20             	mov    0x20(%ebp),%eax
   1fc1c:	01 c8                	add    %ecx,%eax
   1fc1e:	0f b6 00             	movzbl (%eax),%eax
   1fc21:	88 02                	mov    %al,(%edx)
   1fc23:	83 45 e8 01          	addl   $0x1,-0x18(%ebp)
   1fc27:	e9 3d ff ff ff       	jmp    1fb69 <_Z10drawbitmapiiiiiiPhi+0xcf>
   1fc2c:	8b 45 b4             	mov    -0x4c(%ebp),%eax
   1fc2f:	0f af 45 c4          	imul   -0x3c(%ebp),%eax
   1fc33:	01 45 f4             	add    %eax,-0xc(%ebp)
   1fc36:	8b 45 10             	mov    0x10(%ebp),%eax
   1fc39:	0f af 45 b0          	imul   -0x50(%ebp),%eax
   1fc3d:	01 45 f0             	add    %eax,-0x10(%ebp)
   1fc40:	83 45 ec 01          	addl   $0x1,-0x14(%ebp)
   1fc44:	e9 0d ff ff ff       	jmp    1fb56 <_Z10drawbitmapiiiiiiPhi+0xbc>
   1fc49:	c7 45 e4 00 00 00 00 	movl   $0x0,-0x1c(%ebp)
   1fc50:	8b 45 e4             	mov    -0x1c(%ebp),%eax
   1fc53:	3b 45 14             	cmp    0x14(%ebp),%eax
   1fc56:	0f 8d b8 01 00 00    	jge    1fe14 <_Z10drawbitmapiiiiiiPhi+0x37a>
   1fc5c:	c7 45 e0 00 00 00 00 	movl   $0x0,-0x20(%ebp)
   1fc63:	8b 45 e0             	mov    -0x20(%ebp),%eax
   1fc66:	3b 45 10             	cmp    0x10(%ebp),%eax
   1fc69:	0f 8d 8b 01 00 00    	jge    1fdfa <_Z10drawbitmapiiiiiiPhi+0x360>
   1fc6f:	66 c7 45 de 00 00    	movw   $0x0,-0x22(%ebp)
   1fc75:	66 c7 45 dc 00 00    	movw   $0x0,-0x24(%ebp)
   1fc7b:	66 c7 45 da 00 00    	movw   $0x0,-0x26(%ebp)
   1fc81:	c7 45 d4 00 00 00 00 	movl   $0x0,-0x2c(%ebp)
   1fc88:	8b 45 d4             	mov    -0x2c(%ebp),%eax
   1fc8b:	3b 45 b8             	cmp    -0x48(%ebp),%eax
   1fc8e:	0f 8d e8 00 00 00    	jge    1fd7c <_Z10drawbitmapiiiiiiPhi+0x2e2>
   1fc94:	c7 45 d0 00 00 00 00 	movl   $0x0,-0x30(%ebp)
   1fc9b:	8b 45 d0             	mov    -0x30(%ebp),%eax
   1fc9e:	3b 45 b4             	cmp    -0x4c(%ebp),%eax
   1fca1:	0f 8d cc 00 00 00    	jge    1fd73 <_Z10drawbitmapiiiiiiPhi+0x2d9>
   1fca7:	8b 45 d0             	mov    -0x30(%ebp),%eax
   1fcaa:	0f af 45 c4          	imul   -0x3c(%ebp),%eax
   1fcae:	89 c2                	mov    %eax,%edx
   1fcb0:	8b 45 e0             	mov    -0x20(%ebp),%eax
   1fcb3:	0f af 45 b8          	imul   -0x48(%ebp),%eax
   1fcb7:	89 c1                	mov    %eax,%ecx
   1fcb9:	8b 45 d4             	mov    -0x2c(%ebp),%eax
   1fcbc:	8d 1c 01             	lea    (%ecx,%eax,1),%ebx
   1fcbf:	8b 45 24             	mov    0x24(%ebp),%eax
   1fcc2:	8d 48 07             	lea    0x7(%eax),%ecx
   1fcc5:	85 c0                	test   %eax,%eax
   1fcc7:	0f 48 c1             	cmovs  %ecx,%eax
   1fcca:	c1 f8 03             	sar    $0x3,%eax
   1fccd:	0f af c3             	imul   %ebx,%eax
   1fcd0:	01 c2                	add    %eax,%edx
   1fcd2:	8b 45 f4             	mov    -0xc(%ebp),%eax
   1fcd5:	01 c2                	add    %eax,%edx
   1fcd7:	8b 45 20             	mov    0x20(%ebp),%eax
   1fcda:	01 d0                	add    %edx,%eax
   1fcdc:	0f b6 00             	movzbl (%eax),%eax
   1fcdf:	0f b6 c0             	movzbl %al,%eax
   1fce2:	66 01 45 da          	add    %ax,-0x26(%ebp)
   1fce6:	8b 45 d0             	mov    -0x30(%ebp),%eax
   1fce9:	0f af 45 c4          	imul   -0x3c(%ebp),%eax
   1fced:	89 c2                	mov    %eax,%edx
   1fcef:	8b 45 e0             	mov    -0x20(%ebp),%eax
   1fcf2:	0f af 45 b8          	imul   -0x48(%ebp),%eax
   1fcf6:	89 c1                	mov    %eax,%ecx
   1fcf8:	8b 45 d4             	mov    -0x2c(%ebp),%eax
   1fcfb:	8d 1c 01             	lea    (%ecx,%eax,1),%ebx
   1fcfe:	8b 45 24             	mov    0x24(%ebp),%eax
   1fd01:	8d 48 07             	lea    0x7(%eax),%ecx
   1fd04:	85 c0                	test   %eax,%eax
   1fd06:	0f 48 c1             	cmovs  %ecx,%eax
   1fd09:	c1 f8 03             	sar    $0x3,%eax
   1fd0c:	0f af c3             	imul   %ebx,%eax
   1fd0f:	01 c2                	add    %eax,%edx
   1fd11:	8b 45 f4             	mov    -0xc(%ebp),%eax
   1fd14:	01 d0                	add    %edx,%eax
   1fd16:	8d 50 01             	lea    0x1(%eax),%edx
   1fd19:	8b 45 20             	mov    0x20(%ebp),%eax
   1fd1c:	01 d0                	add    %edx,%eax
   1fd1e:	0f b6 00             	movzbl (%eax),%eax
   1fd21:	0f b6 c0             	movzbl %al,%eax
   1fd24:	66 01 45 dc          	add    %ax,-0x24(%ebp)
   1fd28:	8b 45 d0             	mov    -0x30(%ebp),%eax
   1fd2b:	0f af 45 c4          	imul   -0x3c(%ebp),%eax
   1fd2f:	89 c2                	mov    %eax,%edx
   1fd31:	8b 45 e0             	mov    -0x20(%ebp),%eax
   1fd34:	0f af 45 b8          	imul   -0x48(%ebp),%eax
   1fd38:	89 c1                	mov    %eax,%ecx
   1fd3a:	8b 45 d4             	mov    -0x2c(%ebp),%eax
   1fd3d:	8d 1c 01             	lea    (%ecx,%eax,1),%ebx
   1fd40:	8b 45 24             	mov    0x24(%ebp),%eax
   1fd43:	8d 48 07             	lea    0x7(%eax),%ecx
   1fd46:	85 c0                	test   %eax,%eax
   1fd48:	0f 48 c1             	cmovs  %ecx,%eax
   1fd4b:	c1 f8 03             	sar    $0x3,%eax
   1fd4e:	0f af c3             	imul   %ebx,%eax
   1fd51:	01 c2                	add    %eax,%edx
   1fd53:	8b 45 f4             	mov    -0xc(%ebp),%eax
   1fd56:	01 d0                	add    %edx,%eax
   1fd58:	8d 50 02             	lea    0x2(%eax),%edx
   1fd5b:	8b 45 20             	mov    0x20(%ebp),%eax
   1fd5e:	01 d0                	add    %edx,%eax
   1fd60:	0f b6 00             	movzbl (%eax),%eax
   1fd63:	0f b6 c0             	movzbl %al,%eax
   1fd66:	66 01 45 de          	add    %ax,-0x22(%ebp)
   1fd6a:	83 45 d0 01          	addl   $0x1,-0x30(%ebp)
   1fd6e:	e9 28 ff ff ff       	jmp    1fc9b <_Z10drawbitmapiiiiiiPhi+0x201>
   1fd73:	83 45 d4 01          	addl   $0x1,-0x2c(%ebp)
   1fd77:	e9 0c ff ff ff       	jmp    1fc88 <_Z10drawbitmapiiiiiiPhi+0x1ee>
   1fd7c:	0f b7 45 da          	movzwl -0x26(%ebp),%eax
   1fd80:	99                   	cltd   
   1fd81:	f7 7d b8             	idivl  -0x48(%ebp)
   1fd84:	66 89 45 da          	mov    %ax,-0x26(%ebp)
   1fd88:	0f b7 45 dc          	movzwl -0x24(%ebp),%eax
   1fd8c:	99                   	cltd   
   1fd8d:	f7 7d b8             	idivl  -0x48(%ebp)
   1fd90:	66 89 45 dc          	mov    %ax,-0x24(%ebp)
   1fd94:	0f b7 45 de          	movzwl -0x22(%ebp),%eax
   1fd98:	99                   	cltd   
   1fd99:	f7 7d b8             	idivl  -0x48(%ebp)
   1fd9c:	66 89 45 de          	mov    %ax,-0x22(%ebp)
   1fda0:	8b 45 e0             	mov    -0x20(%ebp),%eax
   1fda3:	0f af 45 b0          	imul   -0x50(%ebp),%eax
   1fda7:	89 c2                	mov    %eax,%edx
   1fda9:	8b 45 f0             	mov    -0x10(%ebp),%eax
   1fdac:	01 c2                	add    %eax,%edx
   1fdae:	8b 45 bc             	mov    -0x44(%ebp),%eax
   1fdb1:	01 d0                	add    %edx,%eax
   1fdb3:	0f b7 55 da          	movzwl -0x26(%ebp),%edx
   1fdb7:	88 10                	mov    %dl,(%eax)
   1fdb9:	8b 45 e0             	mov    -0x20(%ebp),%eax
   1fdbc:	0f af 45 b0          	imul   -0x50(%ebp),%eax
   1fdc0:	89 c2                	mov    %eax,%edx
   1fdc2:	8b 45 f0             	mov    -0x10(%ebp),%eax
   1fdc5:	01 d0                	add    %edx,%eax
   1fdc7:	8d 50 01             	lea    0x1(%eax),%edx
   1fdca:	8b 45 bc             	mov    -0x44(%ebp),%eax
   1fdcd:	01 d0                	add    %edx,%eax
   1fdcf:	0f b7 55 dc          	movzwl -0x24(%ebp),%edx
   1fdd3:	88 10                	mov    %dl,(%eax)
   1fdd5:	8b 45 e0             	mov    -0x20(%ebp),%eax
   1fdd8:	0f af 45 b0          	imul   -0x50(%ebp),%eax
   1fddc:	89 c2                	mov    %eax,%edx
   1fdde:	8b 45 f0             	mov    -0x10(%ebp),%eax
   1fde1:	01 d0                	add    %edx,%eax
   1fde3:	8d 50 02             	lea    0x2(%eax),%edx
   1fde6:	8b 45 bc             	mov    -0x44(%ebp),%eax
   1fde9:	01 d0                	add    %edx,%eax
   1fdeb:	0f b7 55 de          	movzwl -0x22(%ebp),%edx
   1fdef:	88 10                	mov    %dl,(%eax)
   1fdf1:	83 45 e0 01          	addl   $0x1,-0x20(%ebp)
   1fdf5:	e9 69 fe ff ff       	jmp    1fc63 <_Z10drawbitmapiiiiiiPhi+0x1c9>
   1fdfa:	8b 45 c4             	mov    -0x3c(%ebp),%eax
   1fdfd:	01 45 f4             	add    %eax,-0xc(%ebp)
   1fe00:	8b 45 10             	mov    0x10(%ebp),%eax
   1fe03:	0f af 45 b0          	imul   -0x50(%ebp),%eax
   1fe07:	01 45 f0             	add    %eax,-0x10(%ebp)
   1fe0a:	83 45 e4 01          	addl   $0x1,-0x1c(%ebp)
   1fe0e:	e9 3d fe ff ff       	jmp    1fc50 <_Z10drawbitmapiiiiiiPhi+0x1b6>
   1fe13:	90                   	nop
   1fe14:	c7 45 cc 00 00 00 00 	movl   $0x0,-0x34(%ebp)
   1fe1b:	8b 45 cc             	mov    -0x34(%ebp),%eax
   1fe1e:	3b 45 14             	cmp    0x14(%ebp),%eax
   1fe21:	0f 8d 8d 00 00 00    	jge    1feb4 <_Z10drawbitmapiiiiiiPhi+0x41a>
   1fe27:	c7 45 c8 00 00 00 00 	movl   $0x0,-0x38(%ebp)
   1fe2e:	0f b7 05 b0 86 44 00 	movzwl 0x4486b0,%eax
   1fe35:	66 c1 e8 03          	shr    $0x3,%ax
   1fe39:	0f b7 c0             	movzwl %ax,%eax
   1fe3c:	0f af 45 10          	imul   0x10(%ebp),%eax
   1fe40:	3b 45 c8             	cmp    -0x38(%ebp),%eax
   1fe43:	7e 66                	jle    1feab <_Z10drawbitmapiiiiiiPhi+0x411>
   1fe45:	8b 15 c0 86 44 00    	mov    0x4486c0,%edx
   1fe4b:	8b 4d 0c             	mov    0xc(%ebp),%ecx
   1fe4e:	8b 45 cc             	mov    -0x34(%ebp),%eax
   1fe51:	01 c8                	add    %ecx,%eax
   1fe53:	89 c1                	mov    %eax,%ecx
   1fe55:	a1 b4 86 44 00       	mov    0x4486b4,%eax
   1fe5a:	0f af c8             	imul   %eax,%ecx
   1fe5d:	0f b7 05 b0 86 44 00 	movzwl 0x4486b0,%eax
   1fe64:	66 c1 e8 03          	shr    $0x3,%ax
   1fe68:	0f b7 c0             	movzwl %ax,%eax
   1fe6b:	0f af 45 08          	imul   0x8(%ebp),%eax
   1fe6f:	01 c1                	add    %eax,%ecx
   1fe71:	8b 45 c8             	mov    -0x38(%ebp),%eax
   1fe74:	01 c8                	add    %ecx,%eax
   1fe76:	01 c2                	add    %eax,%edx
   1fe78:	8b 45 10             	mov    0x10(%ebp),%eax
   1fe7b:	0f af 45 14          	imul   0x14(%ebp),%eax
   1fe7f:	0f af 45 b0          	imul   -0x50(%ebp),%eax
   1fe83:	89 c1                	mov    %eax,%ecx
   1fe85:	8b 45 10             	mov    0x10(%ebp),%eax
   1fe88:	0f af 45 b0          	imul   -0x50(%ebp),%eax
   1fe8c:	89 c3                	mov    %eax,%ebx
   1fe8e:	8b 45 cc             	mov    -0x34(%ebp),%eax
   1fe91:	0f af c3             	imul   %ebx,%eax
   1fe94:	29 c1                	sub    %eax,%ecx
   1fe96:	8b 45 c8             	mov    -0x38(%ebp),%eax
   1fe99:	01 c1                	add    %eax,%ecx
   1fe9b:	8b 45 bc             	mov    -0x44(%ebp),%eax
   1fe9e:	01 c8                	add    %ecx,%eax
   1fea0:	0f b6 00             	movzbl (%eax),%eax
   1fea3:	88 02                	mov    %al,(%edx)
   1fea5:	83 45 c8 01          	addl   $0x1,-0x38(%ebp)
   1fea9:	eb 83                	jmp    1fe2e <_Z10drawbitmapiiiiiiPhi+0x394>
   1feab:	83 45 cc 01          	addl   $0x1,-0x34(%ebp)
   1feaf:	e9 67 ff ff ff       	jmp    1fe1b <_Z10drawbitmapiiiiiiPhi+0x381>
   1feb4:	90                   	nop
   1feb5:	8b 5d fc             	mov    -0x4(%ebp),%ebx
   1feb8:	c9                   	leave  
   1feb9:	c3                   	ret    

0001feba <_Z18drawbitmap_noscaleiiiiPhi>:
   1feba:	55                   	push   %ebp
   1febb:	89 e5                	mov    %esp,%ebp
   1febd:	83 ec 38             	sub    $0x38,%esp
   1fec0:	8b 45 1c             	mov    0x1c(%ebp),%eax
   1fec3:	0f af 45 10          	imul   0x10(%ebp),%eax
   1fec7:	83 c0 1f             	add    $0x1f,%eax
   1feca:	8d 50 1f             	lea    0x1f(%eax),%edx
   1fecd:	85 c0                	test   %eax,%eax
   1fecf:	0f 48 c2             	cmovs  %edx,%eax
   1fed2:	c1 f8 05             	sar    $0x5,%eax
   1fed5:	89 45 d4             	mov    %eax,-0x2c(%ebp)
   1fed8:	db 45 d4             	fildl  -0x2c(%ebp)
   1fedb:	83 ec 08             	sub    $0x8,%esp
   1fede:	8d 64 24 f8          	lea    -0x8(%esp),%esp
   1fee2:	dd 1c 24             	fstpl  (%esp)
   1fee5:	e8 35 af ff ff       	call   1ae1f <_Z5floord>
   1feea:	83 c4 10             	add    $0x10,%esp
   1feed:	c1 e0 02             	shl    $0x2,%eax
   1fef0:	89 45 e4             	mov    %eax,-0x1c(%ebp)
   1fef3:	8b 45 14             	mov    0x14(%ebp),%eax
   1fef6:	83 e8 01             	sub    $0x1,%eax
   1fef9:	0f af 45 e4          	imul   -0x1c(%ebp),%eax
   1fefd:	89 45 f4             	mov    %eax,-0xc(%ebp)
   1ff00:	c7 45 f0 00 00 00 00 	movl   $0x0,-0x10(%ebp)
   1ff07:	0f b7 05 b0 86 44 00 	movzwl 0x4486b0,%eax
   1ff0e:	66 c1 e8 03          	shr    $0x3,%ax
   1ff12:	0f b7 c0             	movzwl %ax,%eax
   1ff15:	89 45 e0             	mov    %eax,-0x20(%ebp)
   1ff18:	c7 45 ec 00 00 00 00 	movl   $0x0,-0x14(%ebp)
   1ff1f:	8b 45 ec             	mov    -0x14(%ebp),%eax
   1ff22:	3b 45 14             	cmp    0x14(%ebp),%eax
   1ff25:	0f 8d ec 00 00 00    	jge    20017 <_Z18drawbitmap_noscaleiiiiPhi+0x15d>
   1ff2b:	c7 45 e8 00 00 00 00 	movl   $0x0,-0x18(%ebp)
   1ff32:	8b 45 e8             	mov    -0x18(%ebp),%eax
   1ff35:	3b 45 10             	cmp    0x10(%ebp),%eax
   1ff38:	0f 8d c0 00 00 00    	jge    1fffe <_Z18drawbitmap_noscaleiiiiPhi+0x144>
   1ff3e:	8b 55 0c             	mov    0xc(%ebp),%edx
   1ff41:	8b 45 ec             	mov    -0x14(%ebp),%eax
   1ff44:	01 d0                	add    %edx,%eax
   1ff46:	89 c2                	mov    %eax,%edx
   1ff48:	a1 b4 86 44 00       	mov    0x4486b4,%eax
   1ff4d:	0f af d0             	imul   %eax,%edx
   1ff50:	8b 4d 08             	mov    0x8(%ebp),%ecx
   1ff53:	8b 45 e8             	mov    -0x18(%ebp),%eax
   1ff56:	01 c8                	add    %ecx,%eax
   1ff58:	0f af 45 e0          	imul   -0x20(%ebp),%eax
   1ff5c:	01 d0                	add    %edx,%eax
   1ff5e:	89 45 dc             	mov    %eax,-0x24(%ebp)
   1ff61:	8b 15 c0 86 44 00    	mov    0x4486c0,%edx
   1ff67:	8b 45 dc             	mov    -0x24(%ebp),%eax
   1ff6a:	01 c2                	add    %eax,%edx
   1ff6c:	8b 45 1c             	mov    0x1c(%ebp),%eax
   1ff6f:	8d 48 07             	lea    0x7(%eax),%ecx
   1ff72:	85 c0                	test   %eax,%eax
   1ff74:	0f 48 c1             	cmovs  %ecx,%eax
   1ff77:	c1 f8 03             	sar    $0x3,%eax
   1ff7a:	0f af 45 e8          	imul   -0x18(%ebp),%eax
   1ff7e:	89 c1                	mov    %eax,%ecx
   1ff80:	8b 45 f4             	mov    -0xc(%ebp),%eax
   1ff83:	01 c1                	add    %eax,%ecx
   1ff85:	8b 45 18             	mov    0x18(%ebp),%eax
   1ff88:	01 c8                	add    %ecx,%eax
   1ff8a:	0f b6 00             	movzbl (%eax),%eax
   1ff8d:	88 02                	mov    %al,(%edx)
   1ff8f:	a1 c0 86 44 00       	mov    0x4486c0,%eax
   1ff94:	8b 55 dc             	mov    -0x24(%ebp),%edx
   1ff97:	83 c2 01             	add    $0x1,%edx
   1ff9a:	01 c2                	add    %eax,%edx
   1ff9c:	8b 45 1c             	mov    0x1c(%ebp),%eax
   1ff9f:	8d 48 07             	lea    0x7(%eax),%ecx
   1ffa2:	85 c0                	test   %eax,%eax
   1ffa4:	0f 48 c1             	cmovs  %ecx,%eax
   1ffa7:	c1 f8 03             	sar    $0x3,%eax
   1ffaa:	0f af 45 e8          	imul   -0x18(%ebp),%eax
   1ffae:	89 c1                	mov    %eax,%ecx
   1ffb0:	8b 45 f4             	mov    -0xc(%ebp),%eax
   1ffb3:	01 c8                	add    %ecx,%eax
   1ffb5:	8d 48 01             	lea    0x1(%eax),%ecx
   1ffb8:	8b 45 18             	mov    0x18(%ebp),%eax
   1ffbb:	01 c8                	add    %ecx,%eax
   1ffbd:	0f b6 00             	movzbl (%eax),%eax
   1ffc0:	88 02                	mov    %al,(%edx)
   1ffc2:	a1 c0 86 44 00       	mov    0x4486c0,%eax
   1ffc7:	8b 55 dc             	mov    -0x24(%ebp),%edx
   1ffca:	83 c2 02             	add    $0x2,%edx
   1ffcd:	01 c2                	add    %eax,%edx
   1ffcf:	8b 45 1c             	mov    0x1c(%ebp),%eax
   1ffd2:	8d 48 07             	lea    0x7(%eax),%ecx
   1ffd5:	85 c0                	test   %eax,%eax
   1ffd7:	0f 48 c1             	cmovs  %ecx,%eax
   1ffda:	c1 f8 03             	sar    $0x3,%eax
   1ffdd:	0f af 45 e8          	imul   -0x18(%ebp),%eax
   1ffe1:	89 c1                	mov    %eax,%ecx
   1ffe3:	8b 45 f4             	mov    -0xc(%ebp),%eax
   1ffe6:	01 c8                	add    %ecx,%eax
   1ffe8:	8d 48 02             	lea    0x2(%eax),%ecx
   1ffeb:	8b 45 18             	mov    0x18(%ebp),%eax
   1ffee:	01 c8                	add    %ecx,%eax
   1fff0:	0f b6 00             	movzbl (%eax),%eax
   1fff3:	88 02                	mov    %al,(%edx)
   1fff5:	83 45 e8 01          	addl   $0x1,-0x18(%ebp)
   1fff9:	e9 34 ff ff ff       	jmp    1ff32 <_Z18drawbitmap_noscaleiiiiPhi+0x78>
   1fffe:	8b 45 e4             	mov    -0x1c(%ebp),%eax
   20001:	29 45 f4             	sub    %eax,-0xc(%ebp)
   20004:	8b 45 10             	mov    0x10(%ebp),%eax
   20007:	0f af 45 e0          	imul   -0x20(%ebp),%eax
   2000b:	01 45 f0             	add    %eax,-0x10(%ebp)
   2000e:	83 45 ec 01          	addl   $0x1,-0x14(%ebp)
   20012:	e9 08 ff ff ff       	jmp    1ff1f <_Z18drawbitmap_noscaleiiiiPhi+0x65>
   20017:	90                   	nop
   20018:	c9                   	leave  
   20019:	c3                   	ret    

0002001a <_Z13screen_updatev>:
   2001a:	55                   	push   %ebp
   2001b:	89 e5                	mov    %esp,%ebp
   2001d:	83 ec 08             	sub    $0x8,%esp
   20020:	8b 15 b4 86 44 00    	mov    0x4486b4,%edx
   20026:	a1 ac 86 44 00       	mov    0x4486ac,%eax
   2002b:	89 d1                	mov    %edx,%ecx
   2002d:	0f af c8             	imul   %eax,%ecx
   20030:	8b 15 c0 86 44 00    	mov    0x4486c0,%edx
   20036:	a1 c4 86 44 00       	mov    0x4486c4,%eax
   2003b:	83 ec 04             	sub    $0x4,%esp
   2003e:	51                   	push   %ecx
   2003f:	52                   	push   %edx
   20040:	50                   	push   %eax
   20041:	e8 a3 ae ff ff       	call   1aee9 <_Z11memcpy_sse2PvS_j>
   20046:	83 c4 10             	add    $0x10,%esp
   20049:	90                   	nop
   2004a:	c9                   	leave  
   2004b:	c3                   	ret    

0002004c <_ZN6WindowC1Etttth>:
   2004c:	55                   	push   %ebp
   2004d:	89 e5                	mov    %esp,%ebp
   2004f:	56                   	push   %esi
   20050:	53                   	push   %ebx
   20051:	83 ec 40             	sub    $0x40,%esp
   20054:	8b 75 0c             	mov    0xc(%ebp),%esi
   20057:	8b 5d 10             	mov    0x10(%ebp),%ebx
   2005a:	8b 4d 14             	mov    0x14(%ebp),%ecx
   2005d:	8b 55 18             	mov    0x18(%ebp),%edx
   20060:	8b 45 1c             	mov    0x1c(%ebp),%eax
   20063:	66 89 75 d4          	mov    %si,-0x2c(%ebp)
   20067:	66 89 5d d0          	mov    %bx,-0x30(%ebp)
   2006b:	66 89 4d cc          	mov    %cx,-0x34(%ebp)
   2006f:	66 89 55 c8          	mov    %dx,-0x38(%ebp)
   20073:	88 45 c4             	mov    %al,-0x3c(%ebp)
   20076:	8b 45 08             	mov    0x8(%ebp),%eax
   20079:	66 c7 00 00 00       	movw   $0x0,(%eax)
   2007e:	8b 45 08             	mov    0x8(%ebp),%eax
   20081:	66 c7 40 02 00 00    	movw   $0x0,0x2(%eax)
   20087:	8b 45 08             	mov    0x8(%ebp),%eax
   2008a:	66 c7 40 04 00 00    	movw   $0x0,0x4(%eax)
   20090:	8b 45 08             	mov    0x8(%ebp),%eax
   20093:	66 c7 40 06 00 00    	movw   $0x0,0x6(%eax)
   20099:	8b 45 08             	mov    0x8(%ebp),%eax
   2009c:	c7 40 24 00 00 00 00 	movl   $0x0,0x24(%eax)
   200a3:	8b 45 08             	mov    0x8(%ebp),%eax
   200a6:	c7 40 28 00 00 00 00 	movl   $0x0,0x28(%eax)
   200ad:	8b 45 08             	mov    0x8(%ebp),%eax
   200b0:	0f b7 55 d4          	movzwl -0x2c(%ebp),%edx
   200b4:	66 89 10             	mov    %dx,(%eax)
   200b7:	8b 45 08             	mov    0x8(%ebp),%eax
   200ba:	0f b7 55 d0          	movzwl -0x30(%ebp),%edx
   200be:	66 89 50 02          	mov    %dx,0x2(%eax)
   200c2:	8b 45 08             	mov    0x8(%ebp),%eax
   200c5:	0f b7 55 cc          	movzwl -0x34(%ebp),%edx
   200c9:	66 89 50 04          	mov    %dx,0x4(%eax)
   200cd:	8b 45 08             	mov    0x8(%ebp),%eax
   200d0:	0f b7 55 c8          	movzwl -0x38(%ebp),%edx
   200d4:	66 89 50 06          	mov    %dx,0x6(%eax)
   200d8:	8b 45 08             	mov    0x8(%ebp),%eax
   200db:	0f b6 55 c4          	movzbl -0x3c(%ebp),%edx
   200df:	88 50 18             	mov    %dl,0x18(%eax)
   200e2:	80 7d c4 01          	cmpb   $0x1,-0x3c(%ebp)
   200e6:	75 67                	jne    2014f <_ZN6WindowC1Etttth+0x103>
   200e8:	83 ec 0c             	sub    $0xc,%esp
   200eb:	6a 14                	push   $0x14
   200ed:	e8 52 8a ff ff       	call   18b44 <kmalloc>
   200f2:	83 c4 10             	add    $0x10,%esp
   200f5:	89 c2                	mov    %eax,%edx
   200f7:	8b 45 08             	mov    0x8(%ebp),%eax
   200fa:	89 50 1c             	mov    %edx,0x1c(%eax)
   200fd:	8b 45 08             	mov    0x8(%ebp),%eax
   20100:	8b 58 1c             	mov    0x1c(%eax),%ebx
   20103:	0f b7 45 c8          	movzwl -0x38(%ebp),%eax
   20107:	83 e8 20             	sub    $0x20,%eax
   2010a:	0f b7 f0             	movzwl %ax,%esi
   2010d:	0f b7 4d cc          	movzwl -0x34(%ebp),%ecx
   20111:	0f b7 55 d0          	movzwl -0x30(%ebp),%edx
   20115:	0f b7 45 d4          	movzwl -0x2c(%ebp),%eax
   20119:	83 c0 20             	add    $0x20,%eax
   2011c:	0f b7 c0             	movzwl %ax,%eax
   2011f:	83 ec 0c             	sub    $0xc,%esp
   20122:	56                   	push   %esi
   20123:	51                   	push   %ecx
   20124:	52                   	push   %edx
   20125:	50                   	push   %eax
   20126:	8d 45 e4             	lea    -0x1c(%ebp),%eax
   20129:	50                   	push   %eax
   2012a:	e8 cd 95 ff ff       	call   196fc <_ZN7ConsoleC1Etttt>
   2012f:	83 c4 20             	add    $0x20,%esp
   20132:	8b 45 e4             	mov    -0x1c(%ebp),%eax
   20135:	89 03                	mov    %eax,(%ebx)
   20137:	8b 45 e8             	mov    -0x18(%ebp),%eax
   2013a:	89 43 04             	mov    %eax,0x4(%ebx)
   2013d:	8b 45 ec             	mov    -0x14(%ebp),%eax
   20140:	89 43 08             	mov    %eax,0x8(%ebx)
   20143:	8b 45 f0             	mov    -0x10(%ebp),%eax
   20146:	89 43 0c             	mov    %eax,0xc(%ebx)
   20149:	8b 45 f4             	mov    -0xc(%ebp),%eax
   2014c:	89 43 10             	mov    %eax,0x10(%ebx)
   2014f:	8b 45 08             	mov    0x8(%ebp),%eax
   20152:	c7 40 08 e1 00 00 00 	movl   $0xe1,0x8(%eax)
   20159:	8b 45 08             	mov    0x8(%ebp),%eax
   2015c:	c7 40 0c e1 00 00 00 	movl   $0xe1,0xc(%eax)
   20163:	8b 45 08             	mov    0x8(%ebp),%eax
   20166:	c7 40 10 e1 00 00 00 	movl   $0xe1,0x10(%eax)
   2016d:	90                   	nop
   2016e:	8d 65 f8             	lea    -0x8(%ebp),%esp
   20171:	5b                   	pop    %ebx
   20172:	5e                   	pop    %esi
   20173:	5d                   	pop    %ebp
   20174:	c3                   	ret    
   20175:	90                   	nop

00020176 <_ZN6WindowC1Ev>:
   20176:	55                   	push   %ebp
   20177:	89 e5                	mov    %esp,%ebp
   20179:	8b 45 08             	mov    0x8(%ebp),%eax
   2017c:	66 c7 00 00 00       	movw   $0x0,(%eax)
   20181:	8b 45 08             	mov    0x8(%ebp),%eax
   20184:	66 c7 40 02 00 00    	movw   $0x0,0x2(%eax)
   2018a:	8b 45 08             	mov    0x8(%ebp),%eax
   2018d:	66 c7 40 04 00 00    	movw   $0x0,0x4(%eax)
   20193:	8b 45 08             	mov    0x8(%ebp),%eax
   20196:	66 c7 40 06 00 00    	movw   $0x0,0x6(%eax)
   2019c:	8b 45 08             	mov    0x8(%ebp),%eax
   2019f:	c7 40 24 00 00 00 00 	movl   $0x0,0x24(%eax)
   201a6:	8b 45 08             	mov    0x8(%ebp),%eax
   201a9:	c7 40 28 00 00 00 00 	movl   $0x0,0x28(%eax)
   201b0:	8b 45 08             	mov    0x8(%ebp),%eax
   201b3:	c7 40 08 e1 00 00 00 	movl   $0xe1,0x8(%eax)
   201ba:	8b 45 08             	mov    0x8(%ebp),%eax
   201bd:	c7 40 0c e1 00 00 00 	movl   $0xe1,0xc(%eax)
   201c4:	8b 45 08             	mov    0x8(%ebp),%eax
   201c7:	c7 40 10 e1 00 00 00 	movl   $0xe1,0x10(%eax)
   201ce:	8b 45 08             	mov    0x8(%ebp),%eax
   201d1:	c6 40 18 00          	movb   $0x0,0x18(%eax)
   201d5:	8b 45 08             	mov    0x8(%ebp),%eax
   201d8:	66 c7 00 00 00       	movw   $0x0,(%eax)
   201dd:	8b 45 08             	mov    0x8(%ebp),%eax
   201e0:	66 c7 40 02 00 00    	movw   $0x0,0x2(%eax)
   201e6:	8b 45 08             	mov    0x8(%ebp),%eax
   201e9:	66 c7 40 04 40 01    	movw   $0x140,0x4(%eax)
   201ef:	8b 45 08             	mov    0x8(%ebp),%eax
   201f2:	66 c7 40 06 c8 00    	movw   $0xc8,0x6(%eax)
   201f8:	90                   	nop
   201f9:	5d                   	pop    %ebp
   201fa:	c3                   	ret    
   201fb:	90                   	nop

000201fc <_ZN6Window6RenderEv>:
   201fc:	55                   	push   %ebp
   201fd:	89 e5                	mov    %esp,%ebp
   201ff:	57                   	push   %edi
   20200:	56                   	push   %esi
   20201:	53                   	push   %ebx
   20202:	83 ec 1c             	sub    $0x1c,%esp
   20205:	8b 45 08             	mov    0x8(%ebp),%eax
   20208:	0f b6 40 20          	movzbl 0x20(%eax),%eax
   2020c:	84 c0                	test   %al,%al
   2020e:	74 42                	je     20252 <_ZN6Window6RenderEv+0x56>
   20210:	8b 45 08             	mov    0x8(%ebp),%eax
   20213:	8b 40 14             	mov    0x14(%eax),%eax
   20216:	83 e0 01             	and    $0x1,%eax
   20219:	85 c0                	test   %eax,%eax
   2021b:	75 35                	jne    20252 <_ZN6Window6RenderEv+0x56>
   2021d:	8b 45 08             	mov    0x8(%ebp),%eax
   20220:	0f b7 40 04          	movzwl 0x4(%eax),%eax
   20224:	0f b7 c8             	movzwl %ax,%ecx
   20227:	8b 45 08             	mov    0x8(%ebp),%eax
   2022a:	0f b7 40 02          	movzwl 0x2(%eax),%eax
   2022e:	0f b7 d0             	movzwl %ax,%edx
   20231:	8b 45 08             	mov    0x8(%ebp),%eax
   20234:	0f b7 00             	movzwl (%eax),%eax
   20237:	0f b7 c0             	movzwl %ax,%eax
   2023a:	83 ec 04             	sub    $0x4,%esp
   2023d:	6a 40                	push   $0x40
   2023f:	6a 40                	push   $0x40
   20241:	6a 40                	push   $0x40
   20243:	6a 18                	push   $0x18
   20245:	51                   	push   %ecx
   20246:	52                   	push   %edx
   20247:	50                   	push   %eax
   20248:	e8 31 f3 ff ff       	call   1f57e <_Z15screen_fillrectjjjjhhh>
   2024d:	83 c4 20             	add    $0x20,%esp
   20250:	eb 49                	jmp    2029b <_ZN6Window6RenderEv+0x9f>
   20252:	8b 45 08             	mov    0x8(%ebp),%eax
   20255:	8b 40 14             	mov    0x14(%eax),%eax
   20258:	83 e0 01             	and    $0x1,%eax
   2025b:	85 c0                	test   %eax,%eax
   2025d:	75 3c                	jne    2029b <_ZN6Window6RenderEv+0x9f>
   2025f:	8b 45 08             	mov    0x8(%ebp),%eax
   20262:	0f b7 40 04          	movzwl 0x4(%eax),%eax
   20266:	0f b7 c8             	movzwl %ax,%ecx
   20269:	8b 45 08             	mov    0x8(%ebp),%eax
   2026c:	0f b7 40 02          	movzwl 0x2(%eax),%eax
   20270:	0f b7 d0             	movzwl %ax,%edx
   20273:	8b 45 08             	mov    0x8(%ebp),%eax
   20276:	0f b7 00             	movzwl (%eax),%eax
   20279:	0f b7 c0             	movzwl %ax,%eax
   2027c:	83 ec 04             	sub    $0x4,%esp
   2027f:	68 b4 00 00 00       	push   $0xb4
   20284:	68 b4 00 00 00       	push   $0xb4
   20289:	68 b4 00 00 00       	push   $0xb4
   2028e:	6a 18                	push   $0x18
   20290:	51                   	push   %ecx
   20291:	52                   	push   %edx
   20292:	50                   	push   %eax
   20293:	e8 e6 f2 ff ff       	call   1f57e <_Z15screen_fillrectjjjjhhh>
   20298:	83 c4 20             	add    $0x20,%esp
   2029b:	8b 45 08             	mov    0x8(%ebp),%eax
   2029e:	0f b7 40 02          	movzwl 0x2(%eax),%eax
   202a2:	0f b7 c0             	movzwl %ax,%eax
   202a5:	83 c0 04             	add    $0x4,%eax
   202a8:	89 c1                	mov    %eax,%ecx
   202aa:	8b 45 08             	mov    0x8(%ebp),%eax
   202ad:	0f b7 00             	movzwl (%eax),%eax
   202b0:	0f b7 d0             	movzwl %ax,%edx
   202b3:	8b 45 08             	mov    0x8(%ebp),%eax
   202b6:	0f b7 40 04          	movzwl 0x4(%eax),%eax
   202ba:	0f b7 c0             	movzwl %ax,%eax
   202bd:	01 d0                	add    %edx,%eax
   202bf:	83 e8 14             	sub    $0x14,%eax
   202c2:	83 ec 04             	sub    $0x4,%esp
   202c5:	6a 00                	push   $0x0
   202c7:	6a 00                	push   $0x0
   202c9:	68 ff 00 00 00       	push   $0xff
   202ce:	6a 10                	push   $0x10
   202d0:	6a 10                	push   $0x10
   202d2:	51                   	push   %ecx
   202d3:	50                   	push   %eax
   202d4:	e8 a5 f2 ff ff       	call   1f57e <_Z15screen_fillrectjjjjhhh>
   202d9:	83 c4 20             	add    $0x20,%esp
   202dc:	8b 45 08             	mov    0x8(%ebp),%eax
   202df:	0f b7 40 02          	movzwl 0x2(%eax),%eax
   202e3:	0f b7 c0             	movzwl %ax,%eax
   202e6:	83 c0 08             	add    $0x8,%eax
   202e9:	89 c1                	mov    %eax,%ecx
   202eb:	8b 45 08             	mov    0x8(%ebp),%eax
   202ee:	0f b7 00             	movzwl (%eax),%eax
   202f1:	0f b7 d0             	movzwl %ax,%edx
   202f4:	8b 45 08             	mov    0x8(%ebp),%eax
   202f7:	0f b7 40 04          	movzwl 0x4(%eax),%eax
   202fb:	0f b7 c0             	movzwl %ax,%eax
   202fe:	01 d0                	add    %edx,%eax
   20300:	83 e8 10             	sub    $0x10,%eax
   20303:	83 ec 04             	sub    $0x4,%esp
   20306:	6a 01                	push   $0x1
   20308:	68 ff 00 00 00       	push   $0xff
   2030d:	68 ff 00 00 00       	push   $0xff
   20312:	68 ff 00 00 00       	push   $0xff
   20317:	51                   	push   %ecx
   20318:	50                   	push   %eax
   20319:	6a 58                	push   $0x58
   2031b:	e8 ce f3 ff ff       	call   1f6ee <_Z8drawcharcjjhhhi>
   20320:	83 c4 20             	add    $0x20,%esp
   20323:	8b 45 08             	mov    0x8(%ebp),%eax
   20326:	0f b6 40 18          	movzbl 0x18(%eax),%eax
   2032a:	84 c0                	test   %al,%al
   2032c:	75 70                	jne    2039e <_ZN6Window6RenderEv+0x1a2>
   2032e:	8b 45 08             	mov    0x8(%ebp),%eax
   20331:	8b 40 14             	mov    0x14(%eax),%eax
   20334:	83 e0 01             	and    $0x1,%eax
   20337:	85 c0                	test   %eax,%eax
   20339:	75 63                	jne    2039e <_ZN6Window6RenderEv+0x1a2>
   2033b:	8b 45 08             	mov    0x8(%ebp),%eax
   2033e:	8b 40 10             	mov    0x10(%eax),%eax
   20341:	0f b6 f0             	movzbl %al,%esi
   20344:	8b 45 08             	mov    0x8(%ebp),%eax
   20347:	8b 40 0c             	mov    0xc(%eax),%eax
   2034a:	0f b6 d8             	movzbl %al,%ebx
   2034d:	8b 45 08             	mov    0x8(%ebp),%eax
   20350:	8b 40 08             	mov    0x8(%eax),%eax
   20353:	0f b6 c8             	movzbl %al,%ecx
   20356:	8b 45 08             	mov    0x8(%ebp),%eax
   20359:	0f b7 40 06          	movzwl 0x6(%eax),%eax
   2035d:	0f b7 c0             	movzwl %ax,%eax
   20360:	83 e8 18             	sub    $0x18,%eax
   20363:	89 45 e4             	mov    %eax,-0x1c(%ebp)
   20366:	8b 45 08             	mov    0x8(%ebp),%eax
   20369:	0f b7 40 04          	movzwl 0x4(%eax),%eax
   2036d:	0f b7 d0             	movzwl %ax,%edx
   20370:	8b 45 08             	mov    0x8(%ebp),%eax
   20373:	0f b7 40 02          	movzwl 0x2(%eax),%eax
   20377:	0f b7 c0             	movzwl %ax,%eax
   2037a:	83 c0 18             	add    $0x18,%eax
   2037d:	89 c7                	mov    %eax,%edi
   2037f:	8b 45 08             	mov    0x8(%ebp),%eax
   20382:	0f b7 00             	movzwl (%eax),%eax
   20385:	0f b7 c0             	movzwl %ax,%eax
   20388:	83 ec 04             	sub    $0x4,%esp
   2038b:	56                   	push   %esi
   2038c:	53                   	push   %ebx
   2038d:	51                   	push   %ecx
   2038e:	ff 75 e4             	pushl  -0x1c(%ebp)
   20391:	52                   	push   %edx
   20392:	57                   	push   %edi
   20393:	50                   	push   %eax
   20394:	e8 e5 f1 ff ff       	call   1f57e <_Z15screen_fillrectjjjjhhh>
   20399:	83 c4 20             	add    $0x20,%esp
   2039c:	eb 1d                	jmp    203bb <_ZN6Window6RenderEv+0x1bf>
   2039e:	8b 45 08             	mov    0x8(%ebp),%eax
   203a1:	0f b6 40 18          	movzbl 0x18(%eax),%eax
   203a5:	3c 01                	cmp    $0x1,%al
   203a7:	75 12                	jne    203bb <_ZN6Window6RenderEv+0x1bf>
   203a9:	8b 45 08             	mov    0x8(%ebp),%eax
   203ac:	8b 40 1c             	mov    0x1c(%eax),%eax
   203af:	83 ec 0c             	sub    $0xc,%esp
   203b2:	50                   	push   %eax
   203b3:	e8 ca 96 ff ff       	call   19a82 <_ZN7Console7refreshEv>
   203b8:	83 c4 10             	add    $0x10,%esp
   203bb:	8b 45 08             	mov    0x8(%ebp),%eax
   203be:	0f b7 40 06          	movzwl 0x6(%eax),%eax
   203c2:	0f b7 c8             	movzwl %ax,%ecx
   203c5:	8b 45 08             	mov    0x8(%ebp),%eax
   203c8:	0f b7 40 02          	movzwl 0x2(%eax),%eax
   203cc:	0f b7 d0             	movzwl %ax,%edx
   203cf:	8b 45 08             	mov    0x8(%ebp),%eax
   203d2:	0f b7 00             	movzwl (%eax),%eax
   203d5:	0f b7 c0             	movzwl %ax,%eax
   203d8:	83 ec 04             	sub    $0x4,%esp
   203db:	6a 00                	push   $0x0
   203dd:	6a 00                	push   $0x0
   203df:	6a 00                	push   $0x0
   203e1:	51                   	push   %ecx
   203e2:	6a 01                	push   $0x1
   203e4:	52                   	push   %edx
   203e5:	50                   	push   %eax
   203e6:	e8 93 f1 ff ff       	call   1f57e <_Z15screen_fillrectjjjjhhh>
   203eb:	83 c4 20             	add    $0x20,%esp
   203ee:	8b 45 08             	mov    0x8(%ebp),%eax
   203f1:	0f b7 40 06          	movzwl 0x6(%eax),%eax
   203f5:	0f b7 d0             	movzwl %ax,%edx
   203f8:	8b 45 08             	mov    0x8(%ebp),%eax
   203fb:	0f b7 40 02          	movzwl 0x2(%eax),%eax
   203ff:	0f b7 c0             	movzwl %ax,%eax
   20402:	8b 4d 08             	mov    0x8(%ebp),%ecx
   20405:	0f b7 09             	movzwl (%ecx),%ecx
   20408:	0f b7 d9             	movzwl %cx,%ebx
   2040b:	8b 4d 08             	mov    0x8(%ebp),%ecx
   2040e:	0f b7 49 04          	movzwl 0x4(%ecx),%ecx
   20412:	0f b7 c9             	movzwl %cx,%ecx
   20415:	01 d9                	add    %ebx,%ecx
   20417:	83 e9 01             	sub    $0x1,%ecx
   2041a:	83 ec 04             	sub    $0x4,%esp
   2041d:	6a 00                	push   $0x0
   2041f:	6a 00                	push   $0x0
   20421:	6a 00                	push   $0x0
   20423:	52                   	push   %edx
   20424:	6a 01                	push   $0x1
   20426:	50                   	push   %eax
   20427:	51                   	push   %ecx
   20428:	e8 51 f1 ff ff       	call   1f57e <_Z15screen_fillrectjjjjhhh>
   2042d:	83 c4 20             	add    $0x20,%esp
   20430:	8b 45 08             	mov    0x8(%ebp),%eax
   20433:	0f b7 40 04          	movzwl 0x4(%eax),%eax
   20437:	0f b7 c8             	movzwl %ax,%ecx
   2043a:	8b 45 08             	mov    0x8(%ebp),%eax
   2043d:	0f b7 40 02          	movzwl 0x2(%eax),%eax
   20441:	0f b7 d0             	movzwl %ax,%edx
   20444:	8b 45 08             	mov    0x8(%ebp),%eax
   20447:	0f b7 00             	movzwl (%eax),%eax
   2044a:	0f b7 c0             	movzwl %ax,%eax
   2044d:	83 ec 04             	sub    $0x4,%esp
   20450:	6a 00                	push   $0x0
   20452:	6a 00                	push   $0x0
   20454:	6a 00                	push   $0x0
   20456:	6a 01                	push   $0x1
   20458:	51                   	push   %ecx
   20459:	52                   	push   %edx
   2045a:	50                   	push   %eax
   2045b:	e8 1e f1 ff ff       	call   1f57e <_Z15screen_fillrectjjjjhhh>
   20460:	83 c4 20             	add    $0x20,%esp
   20463:	8b 45 08             	mov    0x8(%ebp),%eax
   20466:	0f b7 40 04          	movzwl 0x4(%eax),%eax
   2046a:	0f b7 d0             	movzwl %ax,%edx
   2046d:	8b 45 08             	mov    0x8(%ebp),%eax
   20470:	0f b7 40 02          	movzwl 0x2(%eax),%eax
   20474:	0f b7 c8             	movzwl %ax,%ecx
   20477:	8b 45 08             	mov    0x8(%ebp),%eax
   2047a:	0f b7 40 06          	movzwl 0x6(%eax),%eax
   2047e:	0f b7 c0             	movzwl %ax,%eax
   20481:	01 c8                	add    %ecx,%eax
   20483:	83 e8 01             	sub    $0x1,%eax
   20486:	89 c1                	mov    %eax,%ecx
   20488:	8b 45 08             	mov    0x8(%ebp),%eax
   2048b:	0f b7 00             	movzwl (%eax),%eax
   2048e:	0f b7 c0             	movzwl %ax,%eax
   20491:	83 ec 04             	sub    $0x4,%esp
   20494:	6a 00                	push   $0x0
   20496:	6a 00                	push   $0x0
   20498:	6a 00                	push   $0x0
   2049a:	6a 01                	push   $0x1
   2049c:	52                   	push   %edx
   2049d:	51                   	push   %ecx
   2049e:	50                   	push   %eax
   2049f:	e8 da f0 ff ff       	call   1f57e <_Z15screen_fillrectjjjjhhh>
   204a4:	83 c4 20             	add    $0x20,%esp
   204a7:	90                   	nop
   204a8:	8d 65 f4             	lea    -0xc(%ebp),%esp
   204ab:	5b                   	pop    %ebx
   204ac:	5e                   	pop    %esi
   204ad:	5f                   	pop    %edi
   204ae:	5d                   	pop    %ebp
   204af:	c3                   	ret    

000204b0 <_Z10fps_updatet>:
   204b0:	55                   	push   %ebp
   204b1:	89 e5                	mov    %esp,%ebp
   204b3:	83 ec 08             	sub    $0x8,%esp
   204b6:	8b 45 08             	mov    0x8(%ebp),%eax
   204b9:	66 89 45 fc          	mov    %ax,-0x4(%ebp)
   204bd:	0f b7 4d fc          	movzwl -0x4(%ebp),%ecx
   204c1:	a1 d0 86 44 00       	mov    0x4486d0,%eax
   204c6:	8b 15 d4 86 44 00    	mov    0x4486d4,%edx
   204cc:	0f af c1             	imul   %ecx,%eax
   204cf:	a3 cc 86 44 00       	mov    %eax,0x4486cc
   204d4:	c7 05 d0 86 44 00 00 	movl   $0x0,0x4486d0
   204db:	00 00 00 
   204de:	c7 05 d4 86 44 00 00 	movl   $0x0,0x4486d4
   204e5:	00 00 00 
   204e8:	90                   	nop
   204e9:	c9                   	leave  
   204ea:	c3                   	ret    
   204eb:	90                   	nop

000204ec <_ZN13WindowManagerC1EP12video_mode_t>:
   204ec:	55                   	push   %ebp
   204ed:	89 e5                	mov    %esp,%ebp
   204ef:	83 ec 08             	sub    $0x8,%esp
   204f2:	8b 45 08             	mov    0x8(%ebp),%eax
   204f5:	c7 00 fa 00 00 00    	movl   $0xfa,(%eax)
   204fb:	8b 45 08             	mov    0x8(%ebp),%eax
   204fe:	c7 40 04 fa 00 00 00 	movl   $0xfa,0x4(%eax)
   20505:	8b 45 08             	mov    0x8(%ebp),%eax
   20508:	c6 40 08 00          	movb   $0x0,0x8(%eax)
   2050c:	8b 45 08             	mov    0x8(%ebp),%eax
   2050f:	83 c0 0c             	add    $0xc,%eax
   20512:	83 ec 0c             	sub    $0xc,%esp
   20515:	50                   	push   %eax
   20516:	e8 6d 0a 00 00       	call   20f88 <_ZN4ListIP6WindowEC1Ev>
   2051b:	83 c4 10             	add    $0x10,%esp
   2051e:	8b 45 08             	mov    0x8(%ebp),%eax
   20521:	c7 40 18 00 00 00 00 	movl   $0x0,0x18(%eax)
   20528:	8b 45 08             	mov    0x8(%ebp),%eax
   2052b:	c6 40 20 00          	movb   $0x0,0x20(%eax)
   2052f:	8b 45 08             	mov    0x8(%ebp),%eax
   20532:	8b 55 0c             	mov    0xc(%ebp),%edx
   20535:	8b 0a                	mov    (%edx),%ecx
   20537:	89 48 34             	mov    %ecx,0x34(%eax)
   2053a:	8b 4a 04             	mov    0x4(%edx),%ecx
   2053d:	89 48 38             	mov    %ecx,0x38(%eax)
   20540:	8b 4a 08             	mov    0x8(%edx),%ecx
   20543:	89 48 3c             	mov    %ecx,0x3c(%eax)
   20546:	8b 4a 0c             	mov    0xc(%edx),%ecx
   20549:	89 48 40             	mov    %ecx,0x40(%eax)
   2054c:	8b 4a 10             	mov    0x10(%edx),%ecx
   2054f:	89 48 44             	mov    %ecx,0x44(%eax)
   20552:	8b 52 14             	mov    0x14(%edx),%edx
   20555:	89 50 48             	mov    %edx,0x48(%eax)
   20558:	8b 45 08             	mov    0x8(%ebp),%eax
   2055b:	8b 50 34             	mov    0x34(%eax),%edx
   2055e:	8b 45 08             	mov    0x8(%ebp),%eax
   20561:	89 50 2c             	mov    %edx,0x2c(%eax)
   20564:	8b 45 08             	mov    0x8(%ebp),%eax
   20567:	8b 50 38             	mov    0x38(%eax),%edx
   2056a:	8b 45 08             	mov    0x8(%ebp),%eax
   2056d:	89 50 30             	mov    %edx,0x30(%eax)
   20570:	0f b6 05 36 18 02 00 	movzbl 0x21836,%eax
   20577:	84 c0                	test   %al,%al
   20579:	74 10                	je     2058b <_ZN13WindowManagerC1EP12video_mode_t+0x9f>
   2057b:	83 ec 0c             	sub    $0xc,%esp
   2057e:	68 b0 04 02 00       	push   $0x204b0
   20583:	e8 d5 eb ff ff       	call   1f15d <_Z23timer_register_callbackPFvtE>
   20588:	83 c4 10             	add    $0x10,%esp
   2058b:	90                   	nop
   2058c:	c9                   	leave  
   2058d:	c3                   	ret    

0002058e <_ZN13WindowManager10Window_NewEiiiih>:
   2058e:	55                   	push   %ebp
   2058f:	89 e5                	mov    %esp,%ebp
   20591:	56                   	push   %esi
   20592:	53                   	push   %ebx
   20593:	83 ec 40             	sub    $0x40,%esp
   20596:	8b 45 1c             	mov    0x1c(%ebp),%eax
   20599:	88 45 c4             	mov    %al,-0x3c(%ebp)
   2059c:	83 ec 0c             	sub    $0xc,%esp
   2059f:	6a 2c                	push   $0x2c
   205a1:	e8 9e 85 ff ff       	call   18b44 <kmalloc>
   205a6:	83 c4 10             	add    $0x10,%esp
   205a9:	89 45 f4             	mov    %eax,-0xc(%ebp)
   205ac:	0f b6 75 c4          	movzbl -0x3c(%ebp),%esi
   205b0:	8b 45 18             	mov    0x18(%ebp),%eax
   205b3:	0f b7 d8             	movzwl %ax,%ebx
   205b6:	8b 45 14             	mov    0x14(%ebp),%eax
   205b9:	0f b7 c8             	movzwl %ax,%ecx
   205bc:	8b 45 10             	mov    0x10(%ebp),%eax
   205bf:	0f b7 d0             	movzwl %ax,%edx
   205c2:	8b 45 0c             	mov    0xc(%ebp),%eax
   205c5:	0f b7 c0             	movzwl %ax,%eax
   205c8:	83 ec 08             	sub    $0x8,%esp
   205cb:	56                   	push   %esi
   205cc:	53                   	push   %ebx
   205cd:	51                   	push   %ecx
   205ce:	52                   	push   %edx
   205cf:	50                   	push   %eax
   205d0:	8d 45 c8             	lea    -0x38(%ebp),%eax
   205d3:	50                   	push   %eax
   205d4:	e8 73 fa ff ff       	call   2004c <_ZN6WindowC1Etttth>
   205d9:	83 c4 20             	add    $0x20,%esp
   205dc:	8b 45 f4             	mov    -0xc(%ebp),%eax
   205df:	8b 55 c8             	mov    -0x38(%ebp),%edx
   205e2:	89 10                	mov    %edx,(%eax)
   205e4:	8b 55 cc             	mov    -0x34(%ebp),%edx
   205e7:	89 50 04             	mov    %edx,0x4(%eax)
   205ea:	8b 55 d0             	mov    -0x30(%ebp),%edx
   205ed:	89 50 08             	mov    %edx,0x8(%eax)
   205f0:	8b 55 d4             	mov    -0x2c(%ebp),%edx
   205f3:	89 50 0c             	mov    %edx,0xc(%eax)
   205f6:	8b 55 d8             	mov    -0x28(%ebp),%edx
   205f9:	89 50 10             	mov    %edx,0x10(%eax)
   205fc:	8b 55 dc             	mov    -0x24(%ebp),%edx
   205ff:	89 50 14             	mov    %edx,0x14(%eax)
   20602:	8b 55 e0             	mov    -0x20(%ebp),%edx
   20605:	89 50 18             	mov    %edx,0x18(%eax)
   20608:	8b 55 e4             	mov    -0x1c(%ebp),%edx
   2060b:	89 50 1c             	mov    %edx,0x1c(%eax)
   2060e:	8b 55 e8             	mov    -0x18(%ebp),%edx
   20611:	89 50 20             	mov    %edx,0x20(%eax)
   20614:	8b 55 ec             	mov    -0x14(%ebp),%edx
   20617:	89 50 24             	mov    %edx,0x24(%eax)
   2061a:	8b 55 f0             	mov    -0x10(%ebp),%edx
   2061d:	89 50 28             	mov    %edx,0x28(%eax)
   20620:	8b 45 08             	mov    0x8(%ebp),%eax
   20623:	83 c0 0c             	add    $0xc,%eax
   20626:	83 ec 08             	sub    $0x8,%esp
   20629:	ff 75 f4             	pushl  -0xc(%ebp)
   2062c:	50                   	push   %eax
   2062d:	e8 8a 09 00 00       	call   20fbc <_ZN4ListIP6WindowE8add_backES1_>
   20632:	83 c4 10             	add    $0x10,%esp
   20635:	8b 45 08             	mov    0x8(%ebp),%eax
   20638:	8b 40 18             	mov    0x18(%eax),%eax
   2063b:	8d 50 01             	lea    0x1(%eax),%edx
   2063e:	8b 45 08             	mov    0x8(%ebp),%eax
   20641:	89 50 18             	mov    %edx,0x18(%eax)
   20644:	8b 45 08             	mov    0x8(%ebp),%eax
   20647:	8b 40 1c             	mov    0x1c(%eax),%eax
   2064a:	85 c0                	test   %eax,%eax
   2064c:	74 0a                	je     20658 <_ZN13WindowManager10Window_NewEiiiih+0xca>
   2064e:	8b 45 08             	mov    0x8(%ebp),%eax
   20651:	8b 40 1c             	mov    0x1c(%eax),%eax
   20654:	c6 40 20 00          	movb   $0x0,0x20(%eax)
   20658:	8b 45 08             	mov    0x8(%ebp),%eax
   2065b:	8b 55 f4             	mov    -0xc(%ebp),%edx
   2065e:	89 50 1c             	mov    %edx,0x1c(%eax)
   20661:	8b 45 f4             	mov    -0xc(%ebp),%eax
   20664:	c6 40 20 01          	movb   $0x1,0x20(%eax)
   20668:	8b 45 f4             	mov    -0xc(%ebp),%eax
   2066b:	8d 65 f8             	lea    -0x8(%ebp),%esp
   2066e:	5b                   	pop    %ebx
   2066f:	5e                   	pop    %esi
   20670:	5d                   	pop    %ebp
   20671:	c3                   	ret    

00020672 <_ZN13WindowManager10Window_AddEP6Window>:
   20672:	55                   	push   %ebp
   20673:	89 e5                	mov    %esp,%ebp
   20675:	83 ec 08             	sub    $0x8,%esp
   20678:	8b 45 08             	mov    0x8(%ebp),%eax
   2067b:	83 c0 0c             	add    $0xc,%eax
   2067e:	83 ec 08             	sub    $0x8,%esp
   20681:	ff 75 0c             	pushl  0xc(%ebp)
   20684:	50                   	push   %eax
   20685:	e8 32 09 00 00       	call   20fbc <_ZN4ListIP6WindowE8add_backES1_>
   2068a:	83 c4 10             	add    $0x10,%esp
   2068d:	8b 45 08             	mov    0x8(%ebp),%eax
   20690:	8b 40 18             	mov    0x18(%eax),%eax
   20693:	8d 50 01             	lea    0x1(%eax),%edx
   20696:	8b 45 08             	mov    0x8(%ebp),%eax
   20699:	89 50 18             	mov    %edx,0x18(%eax)
   2069c:	90                   	nop
   2069d:	c9                   	leave  
   2069e:	c3                   	ret    
   2069f:	90                   	nop

000206a0 <_ZN13WindowManager6RenderEv>:
   206a0:	55                   	push   %ebp
   206a1:	89 e5                	mov    %esp,%ebp
   206a3:	83 ec 18             	sub    $0x18,%esp
   206a6:	c7 45 f4 00 00 00 00 	movl   $0x0,-0xc(%ebp)
   206ad:	8b 45 08             	mov    0x8(%ebp),%eax
   206b0:	8b 40 18             	mov    0x18(%eax),%eax
   206b3:	3b 45 f4             	cmp    -0xc(%ebp),%eax
   206b6:	0f 8e b4 00 00 00    	jle    20770 <_ZN13WindowManager6RenderEv+0xd0>
   206bc:	8b 45 f4             	mov    -0xc(%ebp),%eax
   206bf:	8b 55 08             	mov    0x8(%ebp),%edx
   206c2:	83 c2 0c             	add    $0xc,%edx
   206c5:	83 ec 08             	sub    $0x8,%esp
   206c8:	50                   	push   %eax
   206c9:	52                   	push   %edx
   206ca:	e8 89 09 00 00       	call   21058 <_ZN4ListIP6WindowEixEj>
   206cf:	83 c4 10             	add    $0x10,%esp
   206d2:	85 c0                	test   %eax,%eax
   206d4:	0f 95 c0             	setne  %al
   206d7:	84 c0                	test   %al,%al
   206d9:	0f 84 88 00 00 00    	je     20767 <_ZN13WindowManager6RenderEv+0xc7>
   206df:	8b 45 f4             	mov    -0xc(%ebp),%eax
   206e2:	8b 55 08             	mov    0x8(%ebp),%edx
   206e5:	83 c2 0c             	add    $0xc,%edx
   206e8:	83 ec 08             	sub    $0x8,%esp
   206eb:	50                   	push   %eax
   206ec:	52                   	push   %edx
   206ed:	e8 66 09 00 00       	call   21058 <_ZN4ListIP6WindowEixEj>
   206f2:	83 c4 10             	add    $0x10,%esp
   206f5:	83 ec 0c             	sub    $0xc,%esp
   206f8:	50                   	push   %eax
   206f9:	e8 fe fa ff ff       	call   201fc <_ZN6Window6RenderEv>
   206fe:	83 c4 10             	add    $0x10,%esp
   20701:	8b 45 f4             	mov    -0xc(%ebp),%eax
   20704:	8b 55 08             	mov    0x8(%ebp),%edx
   20707:	83 c2 0c             	add    $0xc,%edx
   2070a:	83 ec 08             	sub    $0x8,%esp
   2070d:	50                   	push   %eax
   2070e:	52                   	push   %edx
   2070f:	e8 44 09 00 00       	call   21058 <_ZN4ListIP6WindowEixEj>
   20714:	83 c4 10             	add    $0x10,%esp
   20717:	0f b6 40 18          	movzbl 0x18(%eax),%eax
   2071b:	3c 02                	cmp    $0x2,%al
   2071d:	75 24                	jne    20743 <_ZN13WindowManager6RenderEv+0xa3>
   2071f:	8b 45 f4             	mov    -0xc(%ebp),%eax
   20722:	8b 55 08             	mov    0x8(%ebp),%edx
   20725:	83 c2 0c             	add    $0xc,%edx
   20728:	83 ec 08             	sub    $0x8,%esp
   2072b:	50                   	push   %eax
   2072c:	52                   	push   %edx
   2072d:	e8 26 09 00 00       	call   21058 <_ZN4ListIP6WindowEixEj>
   20732:	83 c4 10             	add    $0x10,%esp
   20735:	8b 40 24             	mov    0x24(%eax),%eax
   20738:	85 c0                	test   %eax,%eax
   2073a:	74 07                	je     20743 <_ZN13WindowManager6RenderEv+0xa3>
   2073c:	b8 01 00 00 00       	mov    $0x1,%eax
   20741:	eb 05                	jmp    20748 <_ZN13WindowManager6RenderEv+0xa8>
   20743:	b8 00 00 00 00       	mov    $0x0,%eax
   20748:	84 c0                	test   %al,%al
   2074a:	74 1b                	je     20767 <_ZN13WindowManager6RenderEv+0xc7>
   2074c:	8b 45 f4             	mov    -0xc(%ebp),%eax
   2074f:	8b 55 08             	mov    0x8(%ebp),%edx
   20752:	83 c2 0c             	add    $0xc,%edx
   20755:	83 ec 08             	sub    $0x8,%esp
   20758:	50                   	push   %eax
   20759:	52                   	push   %edx
   2075a:	e8 f9 08 00 00       	call   21058 <_ZN4ListIP6WindowEixEj>
   2075f:	83 c4 10             	add    $0x10,%esp
   20762:	8b 40 24             	mov    0x24(%eax),%eax
   20765:	ff d0                	call   *%eax
   20767:	83 45 f4 01          	addl   $0x1,-0xc(%ebp)
   2076b:	e9 3d ff ff ff       	jmp    206ad <_ZN13WindowManager6RenderEv+0xd>
   20770:	83 ec 0c             	sub    $0xc,%esp
   20773:	ff 75 08             	pushl  0x8(%ebp)
   20776:	e8 e7 01 00 00       	call   20962 <_ZN13WindowManager15DrawMouseCursorEv>
   2077b:	83 c4 10             	add    $0x10,%esp
   2077e:	90                   	nop
   2077f:	c9                   	leave  
   20780:	c3                   	ret    
   20781:	90                   	nop

00020782 <_ZN13WindowManager6UpdateEv>:
   20782:	55                   	push   %ebp
   20783:	89 e5                	mov    %esp,%ebp
   20785:	83 ec 08             	sub    $0x8,%esp
   20788:	e8 3c a9 ff ff       	call   1b0c9 <_Z14mouse_get_datav>
   2078d:	a3 d8 86 44 00       	mov    %eax,0x4486d8
   20792:	e8 3c a9 ff ff       	call   1b0d3 <_Z18mouse_data_updatedv>
   20797:	84 c0                	test   %al,%al
   20799:	0f 84 83 00 00 00    	je     20822 <_ZN13WindowManager6UpdateEv+0xa0>
   2079f:	8b 45 08             	mov    0x8(%ebp),%eax
   207a2:	8b 00                	mov    (%eax),%eax
   207a4:	8b 15 d8 86 44 00    	mov    0x4486d8,%edx
   207aa:	83 c2 01             	add    $0x1,%edx
   207ad:	0f b6 12             	movzbl (%edx),%edx
   207b0:	0f be d2             	movsbl %dl,%edx
   207b3:	01 d2                	add    %edx,%edx
   207b5:	01 c2                	add    %eax,%edx
   207b7:	8b 45 08             	mov    0x8(%ebp),%eax
   207ba:	89 10                	mov    %edx,(%eax)
   207bc:	8b 45 08             	mov    0x8(%ebp),%eax
   207bf:	8b 40 04             	mov    0x4(%eax),%eax
   207c2:	8b 15 d8 86 44 00    	mov    0x4486d8,%edx
   207c8:	83 c2 02             	add    $0x2,%edx
   207cb:	0f b6 12             	movzbl (%edx),%edx
   207ce:	0f be d2             	movsbl %dl,%edx
   207d1:	01 d2                	add    %edx,%edx
   207d3:	29 d0                	sub    %edx,%eax
   207d5:	89 c2                	mov    %eax,%edx
   207d7:	8b 45 08             	mov    0x8(%ebp),%eax
   207da:	89 50 04             	mov    %edx,0x4(%eax)
   207dd:	a1 d8 86 44 00       	mov    0x4486d8,%eax
   207e2:	0f b6 00             	movzbl (%eax),%eax
   207e5:	0f be c0             	movsbl %al,%eax
   207e8:	83 e0 01             	and    $0x1,%eax
   207eb:	85 c0                	test   %eax,%eax
   207ed:	74 25                	je     20814 <_ZN13WindowManager6UpdateEv+0x92>
   207ef:	8b 45 08             	mov    0x8(%ebp),%eax
   207f2:	c6 40 08 01          	movb   $0x1,0x8(%eax)
   207f6:	0f b6 05 c8 86 44 00 	movzbl 0x4486c8,%eax
   207fd:	83 f0 01             	xor    $0x1,%eax
   20800:	84 c0                	test   %al,%al
   20802:	74 1e                	je     20822 <_ZN13WindowManager6UpdateEv+0xa0>
   20804:	83 ec 0c             	sub    $0xc,%esp
   20807:	ff 75 08             	pushl  0x8(%ebp)
   2080a:	e8 7d 01 00 00       	call   2098c <_ZN13WindowManager10MouseClickEv>
   2080f:	83 c4 10             	add    $0x10,%esp
   20812:	eb 0e                	jmp    20822 <_ZN13WindowManager6UpdateEv+0xa0>
   20814:	8b 45 08             	mov    0x8(%ebp),%eax
   20817:	c6 40 08 00          	movb   $0x0,0x8(%eax)
   2081b:	8b 45 08             	mov    0x8(%ebp),%eax
   2081e:	c6 40 20 00          	movb   $0x0,0x20(%eax)
   20822:	8b 45 08             	mov    0x8(%ebp),%eax
   20825:	0f b6 40 20          	movzbl 0x20(%eax),%eax
   20829:	84 c0                	test   %al,%al
   2082b:	0f 84 86 00 00 00    	je     208b7 <_ZN13WindowManager6UpdateEv+0x135>
   20831:	8b 45 08             	mov    0x8(%ebp),%eax
   20834:	8b 40 1c             	mov    0x1c(%eax),%eax
   20837:	85 c0                	test   %eax,%eax
   20839:	74 7c                	je     208b7 <_ZN13WindowManager6UpdateEv+0x135>
   2083b:	8b 45 08             	mov    0x8(%ebp),%eax
   2083e:	8b 00                	mov    (%eax),%eax
   20840:	89 c2                	mov    %eax,%edx
   20842:	8b 45 08             	mov    0x8(%ebp),%eax
   20845:	8b 40 24             	mov    0x24(%eax),%eax
   20848:	29 c2                	sub    %eax,%edx
   2084a:	89 d0                	mov    %edx,%eax
   2084c:	85 c0                	test   %eax,%eax
   2084e:	78 1c                	js     2086c <_ZN13WindowManager6UpdateEv+0xea>
   20850:	8b 45 08             	mov    0x8(%ebp),%eax
   20853:	8b 40 1c             	mov    0x1c(%eax),%eax
   20856:	8b 55 08             	mov    0x8(%ebp),%edx
   20859:	8b 12                	mov    (%edx),%edx
   2085b:	89 d1                	mov    %edx,%ecx
   2085d:	8b 55 08             	mov    0x8(%ebp),%edx
   20860:	8b 52 24             	mov    0x24(%edx),%edx
   20863:	29 d1                	sub    %edx,%ecx
   20865:	89 ca                	mov    %ecx,%edx
   20867:	66 89 10             	mov    %dx,(%eax)
   2086a:	eb 0b                	jmp    20877 <_ZN13WindowManager6UpdateEv+0xf5>
   2086c:	8b 45 08             	mov    0x8(%ebp),%eax
   2086f:	8b 40 1c             	mov    0x1c(%eax),%eax
   20872:	66 c7 00 00 00       	movw   $0x0,(%eax)
   20877:	8b 45 08             	mov    0x8(%ebp),%eax
   2087a:	8b 40 04             	mov    0x4(%eax),%eax
   2087d:	89 c2                	mov    %eax,%edx
   2087f:	8b 45 08             	mov    0x8(%ebp),%eax
   20882:	8b 40 28             	mov    0x28(%eax),%eax
   20885:	29 c2                	sub    %eax,%edx
   20887:	89 d0                	mov    %edx,%eax
   20889:	85 c0                	test   %eax,%eax
   2088b:	78 1e                	js     208ab <_ZN13WindowManager6UpdateEv+0x129>
   2088d:	8b 45 08             	mov    0x8(%ebp),%eax
   20890:	8b 40 1c             	mov    0x1c(%eax),%eax
   20893:	8b 55 08             	mov    0x8(%ebp),%edx
   20896:	8b 52 04             	mov    0x4(%edx),%edx
   20899:	89 d1                	mov    %edx,%ecx
   2089b:	8b 55 08             	mov    0x8(%ebp),%edx
   2089e:	8b 52 28             	mov    0x28(%edx),%edx
   208a1:	29 d1                	sub    %edx,%ecx
   208a3:	89 ca                	mov    %ecx,%edx
   208a5:	66 89 50 02          	mov    %dx,0x2(%eax)
   208a9:	eb 0c                	jmp    208b7 <_ZN13WindowManager6UpdateEv+0x135>
   208ab:	8b 45 08             	mov    0x8(%ebp),%eax
   208ae:	8b 40 1c             	mov    0x1c(%eax),%eax
   208b1:	66 c7 40 02 00 00    	movw   $0x0,0x2(%eax)
   208b7:	a1 d8 86 44 00       	mov    0x4486d8,%eax
   208bc:	0f b6 00             	movzbl (%eax),%eax
   208bf:	0f be c0             	movsbl %al,%eax
   208c2:	83 e0 01             	and    $0x1,%eax
   208c5:	85 c0                	test   %eax,%eax
   208c7:	0f 95 c0             	setne  %al
   208ca:	a2 c8 86 44 00       	mov    %al,0x4486c8
   208cf:	83 ec 0c             	sub    $0xc,%esp
   208d2:	ff 75 08             	pushl  0x8(%ebp)
   208d5:	e8 c6 fd ff ff       	call   206a0 <_ZN13WindowManager6RenderEv>
   208da:	83 c4 10             	add    $0x10,%esp
   208dd:	0f b6 05 36 18 02 00 	movzbl 0x21836,%eax
   208e4:	84 c0                	test   %al,%al
   208e6:	74 77                	je     2095f <_ZN13WindowManager6UpdateEv+0x1dd>
   208e8:	83 ec 04             	sub    $0x4,%esp
   208eb:	6a 01                	push   $0x1
   208ed:	68 ff 00 00 00       	push   $0xff
   208f2:	68 ff 00 00 00       	push   $0xff
   208f7:	68 ff 00 00 00       	push   $0xff
   208fc:	6a 00                	push   $0x0
   208fe:	6a 00                	push   $0x0
   20900:	68 2b 1e 02 00       	push   $0x21e2b
   20905:	e8 9e ef ff ff       	call   1f8a8 <_Z10drawstringPcjjhhhi>
   2090a:	83 c4 20             	add    $0x20,%esp
   2090d:	a1 cc 86 44 00       	mov    0x4486cc,%eax
   20912:	83 ec 04             	sub    $0x4,%esp
   20915:	6a 0a                	push   $0xa
   20917:	6a 00                	push   $0x0
   20919:	50                   	push   %eax
   2091a:	e8 9b e5 ff ff       	call   1eeba <_Z4itoamPci>
   2091f:	83 c4 10             	add    $0x10,%esp
   20922:	83 ec 04             	sub    $0x4,%esp
   20925:	6a 01                	push   $0x1
   20927:	68 ff 00 00 00       	push   $0xff
   2092c:	68 ff 00 00 00       	push   $0xff
   20931:	68 ff 00 00 00       	push   $0xff
   20936:	6a 00                	push   $0x0
   20938:	6a 28                	push   $0x28
   2093a:	50                   	push   %eax
   2093b:	e8 68 ef ff ff       	call   1f8a8 <_Z10drawstringPcjjhhhi>
   20940:	83 c4 20             	add    $0x20,%esp
   20943:	a1 d0 86 44 00       	mov    0x4486d0,%eax
   20948:	8b 15 d4 86 44 00    	mov    0x4486d4,%edx
   2094e:	83 c0 01             	add    $0x1,%eax
   20951:	83 d2 00             	adc    $0x0,%edx
   20954:	a3 d0 86 44 00       	mov    %eax,0x4486d0
   20959:	89 15 d4 86 44 00    	mov    %edx,0x4486d4
   2095f:	90                   	nop
   20960:	c9                   	leave  
   20961:	c3                   	ret    

00020962 <_ZN13WindowManager15DrawMouseCursorEv>:
   20962:	55                   	push   %ebp
   20963:	89 e5                	mov    %esp,%ebp
   20965:	83 ec 08             	sub    $0x8,%esp
   20968:	8b 45 08             	mov    0x8(%ebp),%eax
   2096b:	8b 50 04             	mov    0x4(%eax),%edx
   2096e:	8b 45 08             	mov    0x8(%ebp),%eax
   20971:	8b 00                	mov    (%eax),%eax
   20973:	83 ec 0c             	sub    $0xc,%esp
   20976:	68 a0 15 02 00       	push   $0x215a0
   2097b:	6a 12                	push   $0x12
   2097d:	6a 0b                	push   $0xb
   2097f:	52                   	push   %edx
   20980:	50                   	push   %eax
   20981:	e8 06 f0 ff ff       	call   1f98c <_Z19drawgrayscalebitmapjjjjPh>
   20986:	83 c4 20             	add    $0x20,%esp
   20989:	90                   	nop
   2098a:	c9                   	leave  
   2098b:	c3                   	ret    

0002098c <_ZN13WindowManager10MouseClickEv>:
   2098c:	55                   	push   %ebp
   2098d:	89 e5                	mov    %esp,%ebp
   2098f:	83 ec 18             	sub    $0x18,%esp
   20992:	8b 45 08             	mov    0x8(%ebp),%eax
   20995:	8b 40 18             	mov    0x18(%eax),%eax
   20998:	83 e8 01             	sub    $0x1,%eax
   2099b:	89 45 f4             	mov    %eax,-0xc(%ebp)
   2099e:	83 7d f4 00          	cmpl   $0x0,-0xc(%ebp)
   209a2:	0f 88 bf 01 00 00    	js     20b67 <_ZN13WindowManager10MouseClickEv+0x1db>
   209a8:	8b 45 f4             	mov    -0xc(%ebp),%eax
   209ab:	8b 55 08             	mov    0x8(%ebp),%edx
   209ae:	83 c2 0c             	add    $0xc,%edx
   209b1:	83 ec 08             	sub    $0x8,%esp
   209b4:	50                   	push   %eax
   209b5:	52                   	push   %edx
   209b6:	e8 9d 06 00 00       	call   21058 <_ZN4ListIP6WindowEixEj>
   209bb:	83 c4 10             	add    $0x10,%esp
   209be:	89 45 f0             	mov    %eax,-0x10(%ebp)
   209c1:	8b 45 08             	mov    0x8(%ebp),%eax
   209c4:	8b 10                	mov    (%eax),%edx
   209c6:	8b 45 f0             	mov    -0x10(%ebp),%eax
   209c9:	0f b7 00             	movzwl (%eax),%eax
   209cc:	0f b7 c0             	movzwl %ax,%eax
   209cf:	39 c2                	cmp    %eax,%edx
   209d1:	0f 82 86 01 00 00    	jb     20b5d <_ZN13WindowManager10MouseClickEv+0x1d1>
   209d7:	8b 45 08             	mov    0x8(%ebp),%eax
   209da:	8b 10                	mov    (%eax),%edx
   209dc:	8b 45 f0             	mov    -0x10(%ebp),%eax
   209df:	0f b7 00             	movzwl (%eax),%eax
   209e2:	0f b7 c8             	movzwl %ax,%ecx
   209e5:	8b 45 f0             	mov    -0x10(%ebp),%eax
   209e8:	0f b7 40 04          	movzwl 0x4(%eax),%eax
   209ec:	0f b7 c0             	movzwl %ax,%eax
   209ef:	01 c8                	add    %ecx,%eax
   209f1:	39 c2                	cmp    %eax,%edx
   209f3:	0f 83 64 01 00 00    	jae    20b5d <_ZN13WindowManager10MouseClickEv+0x1d1>
   209f9:	8b 45 08             	mov    0x8(%ebp),%eax
   209fc:	8b 50 04             	mov    0x4(%eax),%edx
   209ff:	8b 45 f0             	mov    -0x10(%ebp),%eax
   20a02:	0f b7 40 02          	movzwl 0x2(%eax),%eax
   20a06:	0f b7 c0             	movzwl %ax,%eax
   20a09:	39 c2                	cmp    %eax,%edx
   20a0b:	0f 82 4c 01 00 00    	jb     20b5d <_ZN13WindowManager10MouseClickEv+0x1d1>
   20a11:	8b 45 08             	mov    0x8(%ebp),%eax
   20a14:	8b 50 04             	mov    0x4(%eax),%edx
   20a17:	8b 45 f0             	mov    -0x10(%ebp),%eax
   20a1a:	0f b7 40 02          	movzwl 0x2(%eax),%eax
   20a1e:	0f b7 c8             	movzwl %ax,%ecx
   20a21:	8b 45 f0             	mov    -0x10(%ebp),%eax
   20a24:	0f b7 40 06          	movzwl 0x6(%eax),%eax
   20a28:	0f b7 c0             	movzwl %ax,%eax
   20a2b:	01 c8                	add    %ecx,%eax
   20a2d:	39 c2                	cmp    %eax,%edx
   20a2f:	0f 83 28 01 00 00    	jae    20b5d <_ZN13WindowManager10MouseClickEv+0x1d1>
   20a35:	8b 45 08             	mov    0x8(%ebp),%eax
   20a38:	8b 40 1c             	mov    0x1c(%eax),%eax
   20a3b:	85 c0                	test   %eax,%eax
   20a3d:	74 0a                	je     20a49 <_ZN13WindowManager10MouseClickEv+0xbd>
   20a3f:	8b 45 08             	mov    0x8(%ebp),%eax
   20a42:	8b 40 1c             	mov    0x1c(%eax),%eax
   20a45:	c6 40 20 00          	movb   $0x0,0x20(%eax)
   20a49:	8b 45 08             	mov    0x8(%ebp),%eax
   20a4c:	8b 55 f0             	mov    -0x10(%ebp),%edx
   20a4f:	89 50 1c             	mov    %edx,0x1c(%eax)
   20a52:	8b 45 f0             	mov    -0x10(%ebp),%eax
   20a55:	c6 40 20 01          	movb   $0x1,0x20(%eax)
   20a59:	8b 45 08             	mov    0x8(%ebp),%eax
   20a5c:	8b 40 18             	mov    0x18(%eax),%eax
   20a5f:	83 e8 01             	sub    $0x1,%eax
   20a62:	3b 45 f4             	cmp    -0xc(%ebp),%eax
   20a65:	74 2b                	je     20a92 <_ZN13WindowManager10MouseClickEv+0x106>
   20a67:	8b 45 f4             	mov    -0xc(%ebp),%eax
   20a6a:	8b 55 08             	mov    0x8(%ebp),%edx
   20a6d:	83 c2 0c             	add    $0xc,%edx
   20a70:	83 ec 08             	sub    $0x8,%esp
   20a73:	50                   	push   %eax
   20a74:	52                   	push   %edx
   20a75:	e8 26 06 00 00       	call   210a0 <_ZN4ListIP6WindowE9remove_atEj>
   20a7a:	83 c4 10             	add    $0x10,%esp
   20a7d:	8b 45 08             	mov    0x8(%ebp),%eax
   20a80:	83 c0 0c             	add    $0xc,%eax
   20a83:	83 ec 08             	sub    $0x8,%esp
   20a86:	ff 75 f0             	pushl  -0x10(%ebp)
   20a89:	50                   	push   %eax
   20a8a:	e8 2d 05 00 00       	call   20fbc <_ZN4ListIP6WindowE8add_backES1_>
   20a8f:	83 c4 10             	add    $0x10,%esp
   20a92:	8b 45 08             	mov    0x8(%ebp),%eax
   20a95:	8b 40 04             	mov    0x4(%eax),%eax
   20a98:	89 c2                	mov    %eax,%edx
   20a9a:	8b 45 f0             	mov    -0x10(%ebp),%eax
   20a9d:	0f b7 40 02          	movzwl 0x2(%eax),%eax
   20aa1:	0f b7 c0             	movzwl %ax,%eax
   20aa4:	83 c0 18             	add    $0x18,%eax
   20aa7:	39 c2                	cmp    %eax,%edx
   20aa9:	0f 8d 85 00 00 00    	jge    20b34 <_ZN13WindowManager10MouseClickEv+0x1a8>
   20aaf:	8b 45 08             	mov    0x8(%ebp),%eax
   20ab2:	8b 00                	mov    (%eax),%eax
   20ab4:	89 c1                	mov    %eax,%ecx
   20ab6:	8b 45 f0             	mov    -0x10(%ebp),%eax
   20ab9:	0f b7 00             	movzwl (%eax),%eax
   20abc:	0f b7 d0             	movzwl %ax,%edx
   20abf:	8b 45 f0             	mov    -0x10(%ebp),%eax
   20ac2:	0f b7 40 04          	movzwl 0x4(%eax),%eax
   20ac6:	0f b7 c0             	movzwl %ax,%eax
   20ac9:	01 d0                	add    %edx,%eax
   20acb:	83 e8 14             	sub    $0x14,%eax
   20ace:	39 c1                	cmp    %eax,%ecx
   20ad0:	7e 25                	jle    20af7 <_ZN13WindowManager10MouseClickEv+0x16b>
   20ad2:	8b 45 f4             	mov    -0xc(%ebp),%eax
   20ad5:	8b 55 08             	mov    0x8(%ebp),%edx
   20ad8:	83 c2 0c             	add    $0xc,%edx
   20adb:	83 ec 08             	sub    $0x8,%esp
   20ade:	50                   	push   %eax
   20adf:	52                   	push   %edx
   20ae0:	e8 bb 05 00 00       	call   210a0 <_ZN4ListIP6WindowE9remove_atEj>
   20ae5:	83 c4 10             	add    $0x10,%esp
   20ae8:	8b 45 08             	mov    0x8(%ebp),%eax
   20aeb:	8b 40 18             	mov    0x18(%eax),%eax
   20aee:	8d 50 ff             	lea    -0x1(%eax),%edx
   20af1:	8b 45 08             	mov    0x8(%ebp),%eax
   20af4:	89 50 18             	mov    %edx,0x18(%eax)
   20af7:	8b 45 08             	mov    0x8(%ebp),%eax
   20afa:	8b 10                	mov    (%eax),%edx
   20afc:	8b 45 f0             	mov    -0x10(%ebp),%eax
   20aff:	0f b7 00             	movzwl (%eax),%eax
   20b02:	0f b7 c0             	movzwl %ax,%eax
   20b05:	29 c2                	sub    %eax,%edx
   20b07:	89 d0                	mov    %edx,%eax
   20b09:	89 c2                	mov    %eax,%edx
   20b0b:	8b 45 08             	mov    0x8(%ebp),%eax
   20b0e:	89 50 24             	mov    %edx,0x24(%eax)
   20b11:	8b 45 08             	mov    0x8(%ebp),%eax
   20b14:	8b 50 04             	mov    0x4(%eax),%edx
   20b17:	8b 45 f0             	mov    -0x10(%ebp),%eax
   20b1a:	0f b7 40 02          	movzwl 0x2(%eax),%eax
   20b1e:	0f b7 c0             	movzwl %ax,%eax
   20b21:	29 c2                	sub    %eax,%edx
   20b23:	89 d0                	mov    %edx,%eax
   20b25:	89 c2                	mov    %eax,%edx
   20b27:	8b 45 08             	mov    0x8(%ebp),%eax
   20b2a:	89 50 28             	mov    %edx,0x28(%eax)
   20b2d:	8b 45 08             	mov    0x8(%ebp),%eax
   20b30:	c6 40 20 01          	movb   $0x1,0x20(%eax)
   20b34:	8b 45 f0             	mov    -0x10(%ebp),%eax
   20b37:	8b 40 28             	mov    0x28(%eax),%eax
   20b3a:	85 c0                	test   %eax,%eax
   20b3c:	74 28                	je     20b66 <_ZN13WindowManager10MouseClickEv+0x1da>
   20b3e:	8b 45 f0             	mov    -0x10(%ebp),%eax
   20b41:	8b 40 28             	mov    0x28(%eax),%eax
   20b44:	8b 55 08             	mov    0x8(%ebp),%edx
   20b47:	8b 52 04             	mov    0x4(%edx),%edx
   20b4a:	89 d1                	mov    %edx,%ecx
   20b4c:	8b 55 08             	mov    0x8(%ebp),%edx
   20b4f:	8b 12                	mov    (%edx),%edx
   20b51:	83 ec 08             	sub    $0x8,%esp
   20b54:	51                   	push   %ecx
   20b55:	52                   	push   %edx
   20b56:	ff d0                	call   *%eax
   20b58:	83 c4 10             	add    $0x10,%esp
   20b5b:	eb 09                	jmp    20b66 <_ZN13WindowManager10MouseClickEv+0x1da>
   20b5d:	83 6d f4 01          	subl   $0x1,-0xc(%ebp)
   20b61:	e9 38 fe ff ff       	jmp    2099e <_ZN13WindowManager10MouseClickEv+0x12>
   20b66:	90                   	nop
   20b67:	90                   	nop
   20b68:	c9                   	leave  
   20b69:	c3                   	ret    

Disassembly of section .text._ZN12cpuid_info_tC2Ev:

00020b6a <_ZN12cpuid_info_tC1Ev>:
   20b6a:	55                   	push   %ebp
   20b6b:	89 e5                	mov    %esp,%ebp
   20b6d:	8b 45 08             	mov    0x8(%ebp),%eax
   20b70:	c6 40 0c 00          	movb   $0x0,0xc(%eax)
   20b74:	90                   	nop
   20b75:	5d                   	pop    %ebp
   20b76:	c3                   	ret    

Disassembly of section .text._Z10mouse_waith:

00020b77 <_Z10mouse_waith>:
   20b77:	55                   	push   %ebp
   20b78:	89 e5                	mov    %esp,%ebp
   20b7a:	83 ec 28             	sub    $0x28,%esp
   20b7d:	8b 45 08             	mov    0x8(%ebp),%eax
   20b80:	88 45 e4             	mov    %al,-0x1c(%ebp)
   20b83:	c7 45 f4 a0 86 01 00 	movl   $0x186a0,-0xc(%ebp)
   20b8a:	80 7d e4 00          	cmpb   $0x0,-0x1c(%ebp)
   20b8e:	75 30                	jne    20bc0 <_Z10mouse_waith+0x49>
   20b90:	8b 45 f4             	mov    -0xc(%ebp),%eax
   20b93:	8d 50 ff             	lea    -0x1(%eax),%edx
   20b96:	89 55 f4             	mov    %edx,-0xc(%ebp)
   20b99:	85 c0                	test   %eax,%eax
   20b9b:	0f 95 c0             	setne  %al
   20b9e:	84 c0                	test   %al,%al
   20ba0:	74 52                	je     20bf4 <_Z10mouse_waith+0x7d>
   20ba2:	83 ec 0c             	sub    $0xc,%esp
   20ba5:	6a 64                	push   $0x64
   20ba7:	e8 32 e5 ff ff       	call   1f0de <_Z7inportbt>
   20bac:	83 c4 10             	add    $0x10,%esp
   20baf:	0f b6 c0             	movzbl %al,%eax
   20bb2:	83 e0 01             	and    $0x1,%eax
   20bb5:	85 c0                	test   %eax,%eax
   20bb7:	0f 95 c0             	setne  %al
   20bba:	84 c0                	test   %al,%al
   20bbc:	75 32                	jne    20bf0 <_Z10mouse_waith+0x79>
   20bbe:	eb d0                	jmp    20b90 <_Z10mouse_waith+0x19>
   20bc0:	8b 45 f4             	mov    -0xc(%ebp),%eax
   20bc3:	8d 50 ff             	lea    -0x1(%eax),%edx
   20bc6:	89 55 f4             	mov    %edx,-0xc(%ebp)
   20bc9:	85 c0                	test   %eax,%eax
   20bcb:	0f 95 c0             	setne  %al
   20bce:	84 c0                	test   %al,%al
   20bd0:	74 22                	je     20bf4 <_Z10mouse_waith+0x7d>
   20bd2:	83 ec 0c             	sub    $0xc,%esp
   20bd5:	6a 64                	push   $0x64
   20bd7:	e8 02 e5 ff ff       	call   1f0de <_Z7inportbt>
   20bdc:	83 c4 10             	add    $0x10,%esp
   20bdf:	0f b6 c0             	movzbl %al,%eax
   20be2:	83 e0 02             	and    $0x2,%eax
   20be5:	85 c0                	test   %eax,%eax
   20be7:	0f 94 c0             	sete   %al
   20bea:	84 c0                	test   %al,%al
   20bec:	75 05                	jne    20bf3 <_Z10mouse_waith+0x7c>
   20bee:	eb d0                	jmp    20bc0 <_Z10mouse_waith+0x49>
   20bf0:	90                   	nop
   20bf1:	eb 01                	jmp    20bf4 <_Z10mouse_waith+0x7d>
   20bf3:	90                   	nop
   20bf4:	c9                   	leave  
   20bf5:	c3                   	ret    

Disassembly of section .text._Z11mouse_writeh:

00020bf6 <_Z11mouse_writeh>:
   20bf6:	55                   	push   %ebp
   20bf7:	89 e5                	mov    %esp,%ebp
   20bf9:	83 ec 18             	sub    $0x18,%esp
   20bfc:	8b 45 08             	mov    0x8(%ebp),%eax
   20bff:	88 45 f4             	mov    %al,-0xc(%ebp)
   20c02:	83 ec 0c             	sub    $0xc,%esp
   20c05:	6a 01                	push   $0x1
   20c07:	e8 6b ff ff ff       	call   20b77 <_Z10mouse_waith>
   20c0c:	83 c4 10             	add    $0x10,%esp
   20c0f:	83 ec 08             	sub    $0x8,%esp
   20c12:	68 d4 00 00 00       	push   $0xd4
   20c17:	6a 64                	push   $0x64
   20c19:	e8 a1 e4 ff ff       	call   1f0bf <_Z8outportbth>
   20c1e:	83 c4 10             	add    $0x10,%esp
   20c21:	83 ec 0c             	sub    $0xc,%esp
   20c24:	6a 01                	push   $0x1
   20c26:	e8 4c ff ff ff       	call   20b77 <_Z10mouse_waith>
   20c2b:	83 c4 10             	add    $0x10,%esp
   20c2e:	0f b6 45 f4          	movzbl -0xc(%ebp),%eax
   20c32:	83 ec 08             	sub    $0x8,%esp
   20c35:	50                   	push   %eax
   20c36:	6a 60                	push   $0x60
   20c38:	e8 82 e4 ff ff       	call   1f0bf <_Z8outportbth>
   20c3d:	83 c4 10             	add    $0x10,%esp
   20c40:	90                   	nop
   20c41:	c9                   	leave  
   20c42:	c3                   	ret    

Disassembly of section .text._Z17physalloc_bit_setj:

00020c43 <_Z17physalloc_bit_setj>:
   20c43:	55                   	push   %ebp
   20c44:	89 e5                	mov    %esp,%ebp
   20c46:	53                   	push   %ebx
   20c47:	8b 45 08             	mov    0x8(%ebp),%eax
   20c4a:	c1 e8 05             	shr    $0x5,%eax
   20c4d:	8b 14 85 20 80 42 00 	mov    0x428020(,%eax,4),%edx
   20c54:	8b 4d 08             	mov    0x8(%ebp),%ecx
   20c57:	83 e1 1f             	and    $0x1f,%ecx
   20c5a:	bb 01 00 00 00       	mov    $0x1,%ebx
   20c5f:	d3 e3                	shl    %cl,%ebx
   20c61:	89 d9                	mov    %ebx,%ecx
   20c63:	09 ca                	or     %ecx,%edx
   20c65:	89 14 85 20 80 42 00 	mov    %edx,0x428020(,%eax,4)
   20c6c:	90                   	nop
   20c6d:	5b                   	pop    %ebx
   20c6e:	5d                   	pop    %ebp
   20c6f:	c3                   	ret    

Disassembly of section .text._Z19physalloc_bit_clearj:

00020c70 <_Z19physalloc_bit_clearj>:
   20c70:	55                   	push   %ebp
   20c71:	89 e5                	mov    %esp,%ebp
   20c73:	53                   	push   %ebx
   20c74:	8b 45 08             	mov    0x8(%ebp),%eax
   20c77:	c1 e8 05             	shr    $0x5,%eax
   20c7a:	8b 14 85 20 80 42 00 	mov    0x428020(,%eax,4),%edx
   20c81:	8b 4d 08             	mov    0x8(%ebp),%ecx
   20c84:	83 e1 1f             	and    $0x1f,%ecx
   20c87:	bb 01 00 00 00       	mov    $0x1,%ebx
   20c8c:	d3 e3                	shl    %cl,%ebx
   20c8e:	89 d9                	mov    %ebx,%ecx
   20c90:	f7 d1                	not    %ecx
   20c92:	21 ca                	and    %ecx,%edx
   20c94:	89 14 85 20 80 42 00 	mov    %edx,0x428020(,%eax,4)
   20c9b:	90                   	nop
   20c9c:	5b                   	pop    %ebx
   20c9d:	5d                   	pop    %ebp
   20c9e:	c3                   	ret    

Disassembly of section .text._ZN4ListI8Vector2iEC2Ev:

00020ca0 <_ZN4ListI8Vector2iEC1Ev>:
   20ca0:	55                   	push   %ebp
   20ca1:	89 e5                	mov    %esp,%ebp
   20ca3:	8b 45 08             	mov    0x8(%ebp),%eax
   20ca6:	c7 00 00 00 00 00    	movl   $0x0,(%eax)
   20cac:	8b 45 08             	mov    0x8(%ebp),%eax
   20caf:	c7 40 04 00 00 00 00 	movl   $0x0,0x4(%eax)
   20cb6:	90                   	nop
   20cb7:	5d                   	pop    %ebp
   20cb8:	c3                   	ret    

Disassembly of section .text._ZN8ListNodeI8Vector2iEC2Ev:

00020cba <_ZN8ListNodeI8Vector2iEC1Ev>:
   20cba:	55                   	push   %ebp
   20cbb:	89 e5                	mov    %esp,%ebp
   20cbd:	8b 45 08             	mov    0x8(%ebp),%eax
   20cc0:	c7 00 00 00 00 00    	movl   $0x0,(%eax)
   20cc6:	8b 45 08             	mov    0x8(%ebp),%eax
   20cc9:	c7 40 04 00 00 00 00 	movl   $0x0,0x4(%eax)
   20cd0:	90                   	nop
   20cd1:	5d                   	pop    %ebp
   20cd2:	c3                   	ret    

Disassembly of section .text._ZN4ListI8Vector2iE8add_backES0_:

00020cd4 <_ZN4ListI8Vector2iE8add_backES0_>:
   20cd4:	55                   	push   %ebp
   20cd5:	89 e5                	mov    %esp,%ebp
   20cd7:	83 ec 28             	sub    $0x28,%esp
   20cda:	83 ec 0c             	sub    $0xc,%esp
   20cdd:	6a 10                	push   $0x10
   20cdf:	e8 60 7e ff ff       	call   18b44 <kmalloc>
   20ce4:	83 c4 10             	add    $0x10,%esp
   20ce7:	89 45 f4             	mov    %eax,-0xc(%ebp)
   20cea:	c7 45 e4 00 00 00 00 	movl   $0x0,-0x1c(%ebp)
   20cf1:	c7 45 e8 00 00 00 00 	movl   $0x0,-0x18(%ebp)
   20cf8:	c7 45 ec 00 00 00 00 	movl   $0x0,-0x14(%ebp)
   20cff:	c7 45 f0 00 00 00 00 	movl   $0x0,-0x10(%ebp)
   20d06:	83 ec 0c             	sub    $0xc,%esp
   20d09:	8d 45 e4             	lea    -0x1c(%ebp),%eax
   20d0c:	50                   	push   %eax
   20d0d:	e8 a8 ff ff ff       	call   20cba <_ZN8ListNodeI8Vector2iEC1Ev>
   20d12:	83 c4 10             	add    $0x10,%esp
   20d15:	8b 45 f4             	mov    -0xc(%ebp),%eax
   20d18:	8b 55 e4             	mov    -0x1c(%ebp),%edx
   20d1b:	89 10                	mov    %edx,(%eax)
   20d1d:	8b 55 e8             	mov    -0x18(%ebp),%edx
   20d20:	89 50 04             	mov    %edx,0x4(%eax)
   20d23:	8b 55 ec             	mov    -0x14(%ebp),%edx
   20d26:	89 50 08             	mov    %edx,0x8(%eax)
   20d29:	8b 55 f0             	mov    -0x10(%ebp),%edx
   20d2c:	89 50 0c             	mov    %edx,0xc(%eax)
   20d2f:	8b 4d f4             	mov    -0xc(%ebp),%ecx
   20d32:	8b 45 0c             	mov    0xc(%ebp),%eax
   20d35:	8b 55 10             	mov    0x10(%ebp),%edx
   20d38:	89 41 08             	mov    %eax,0x8(%ecx)
   20d3b:	89 51 0c             	mov    %edx,0xc(%ecx)
   20d3e:	8b 45 08             	mov    0x8(%ebp),%eax
   20d41:	8b 00                	mov    (%eax),%eax
   20d43:	85 c0                	test   %eax,%eax
   20d45:	75 0a                	jne    20d51 <_ZN4ListI8Vector2iE8add_backES0_+0x7d>
   20d47:	8b 45 08             	mov    0x8(%ebp),%eax
   20d4a:	8b 55 f4             	mov    -0xc(%ebp),%edx
   20d4d:	89 10                	mov    %edx,(%eax)
   20d4f:	eb 17                	jmp    20d68 <_ZN4ListI8Vector2iE8add_backES0_+0x94>
   20d51:	8b 45 08             	mov    0x8(%ebp),%eax
   20d54:	8b 40 04             	mov    0x4(%eax),%eax
   20d57:	8b 55 f4             	mov    -0xc(%ebp),%edx
   20d5a:	89 10                	mov    %edx,(%eax)
   20d5c:	8b 45 08             	mov    0x8(%ebp),%eax
   20d5f:	8b 50 04             	mov    0x4(%eax),%edx
   20d62:	8b 45 f4             	mov    -0xc(%ebp),%eax
   20d65:	89 50 04             	mov    %edx,0x4(%eax)
   20d68:	8b 45 08             	mov    0x8(%ebp),%eax
   20d6b:	8b 55 f4             	mov    -0xc(%ebp),%edx
   20d6e:	89 50 04             	mov    %edx,0x4(%eax)
   20d71:	8b 45 08             	mov    0x8(%ebp),%eax
   20d74:	8b 40 08             	mov    0x8(%eax),%eax
   20d77:	8d 50 01             	lea    0x1(%eax),%edx
   20d7a:	8b 45 08             	mov    0x8(%ebp),%eax
   20d7d:	89 50 08             	mov    %edx,0x8(%eax)
   20d80:	90                   	nop
   20d81:	c9                   	leave  
   20d82:	c3                   	ret    

Disassembly of section .text._ZN4ListI8Vector2iE10get_lengthEv:

00020d84 <_ZN4ListI8Vector2iE10get_lengthEv>:
   20d84:	55                   	push   %ebp
   20d85:	89 e5                	mov    %esp,%ebp
   20d87:	8b 45 08             	mov    0x8(%ebp),%eax
   20d8a:	8b 40 08             	mov    0x8(%eax),%eax
   20d8d:	5d                   	pop    %ebp
   20d8e:	c3                   	ret    

Disassembly of section .text._ZN4ListI8Vector2iE9remove_atEj:

00020d90 <_ZN4ListI8Vector2iE9remove_atEj>:
   20d90:	55                   	push   %ebp
   20d91:	89 e5                	mov    %esp,%ebp
   20d93:	83 ec 18             	sub    $0x18,%esp
   20d96:	8b 45 0c             	mov    0xc(%ebp),%eax
   20d99:	8b 40 08             	mov    0x8(%eax),%eax
   20d9c:	3b 45 10             	cmp    0x10(%ebp),%eax
   20d9f:	77 17                	ja     20db8 <_ZN4ListI8Vector2iE9remove_atEj+0x28>
   20da1:	b8 00 00 00 00       	mov    $0x0,%eax
   20da6:	8b 4d 08             	mov    0x8(%ebp),%ecx
   20da9:	8b 50 04             	mov    0x4(%eax),%edx
   20dac:	8b 00                	mov    (%eax),%eax
   20dae:	89 01                	mov    %eax,(%ecx)
   20db0:	89 51 04             	mov    %edx,0x4(%ecx)
   20db3:	e9 b9 00 00 00       	jmp    20e71 <_ZN4ListI8Vector2iE9remove_atEj+0xe1>
   20db8:	8b 45 0c             	mov    0xc(%ebp),%eax
   20dbb:	8b 00                	mov    (%eax),%eax
   20dbd:	89 45 f4             	mov    %eax,-0xc(%ebp)
   20dc0:	c7 45 f0 00 00 00 00 	movl   $0x0,-0x10(%ebp)
   20dc7:	8b 45 f0             	mov    -0x10(%ebp),%eax
   20dca:	3b 45 10             	cmp    0x10(%ebp),%eax
   20dcd:	73 0e                	jae    20ddd <_ZN4ListI8Vector2iE9remove_atEj+0x4d>
   20dcf:	8b 45 f4             	mov    -0xc(%ebp),%eax
   20dd2:	8b 00                	mov    (%eax),%eax
   20dd4:	89 45 f4             	mov    %eax,-0xc(%ebp)
   20dd7:	83 45 f0 01          	addl   $0x1,-0x10(%ebp)
   20ddb:	eb ea                	jmp    20dc7 <_ZN4ListI8Vector2iE9remove_atEj+0x37>
   20ddd:	8b 45 f4             	mov    -0xc(%ebp),%eax
   20de0:	8b 50 0c             	mov    0xc(%eax),%edx
   20de3:	8b 40 08             	mov    0x8(%eax),%eax
   20de6:	89 45 e8             	mov    %eax,-0x18(%ebp)
   20de9:	89 55 ec             	mov    %edx,-0x14(%ebp)
   20dec:	8b 45 f4             	mov    -0xc(%ebp),%eax
   20def:	8b 00                	mov    (%eax),%eax
   20df1:	85 c0                	test   %eax,%eax
   20df3:	74 0e                	je     20e03 <_ZN4ListI8Vector2iE9remove_atEj+0x73>
   20df5:	8b 45 f4             	mov    -0xc(%ebp),%eax
   20df8:	8b 00                	mov    (%eax),%eax
   20dfa:	8b 55 f4             	mov    -0xc(%ebp),%edx
   20dfd:	8b 52 04             	mov    0x4(%edx),%edx
   20e00:	89 50 04             	mov    %edx,0x4(%eax)
   20e03:	8b 45 f4             	mov    -0xc(%ebp),%eax
   20e06:	8b 40 04             	mov    0x4(%eax),%eax
   20e09:	85 c0                	test   %eax,%eax
   20e0b:	74 0d                	je     20e1a <_ZN4ListI8Vector2iE9remove_atEj+0x8a>
   20e0d:	8b 45 f4             	mov    -0xc(%ebp),%eax
   20e10:	8b 40 04             	mov    0x4(%eax),%eax
   20e13:	8b 55 f4             	mov    -0xc(%ebp),%edx
   20e16:	8b 12                	mov    (%edx),%edx
   20e18:	89 10                	mov    %edx,(%eax)
   20e1a:	83 7d 10 00          	cmpl   $0x0,0x10(%ebp)
   20e1e:	75 0a                	jne    20e2a <_ZN4ListI8Vector2iE9remove_atEj+0x9a>
   20e20:	8b 45 f4             	mov    -0xc(%ebp),%eax
   20e23:	8b 10                	mov    (%eax),%edx
   20e25:	8b 45 0c             	mov    0xc(%ebp),%eax
   20e28:	89 10                	mov    %edx,(%eax)
   20e2a:	8b 45 0c             	mov    0xc(%ebp),%eax
   20e2d:	8b 40 08             	mov    0x8(%eax),%eax
   20e30:	8d 50 ff             	lea    -0x1(%eax),%edx
   20e33:	8b 45 0c             	mov    0xc(%ebp),%eax
   20e36:	89 50 08             	mov    %edx,0x8(%eax)
   20e39:	8b 45 0c             	mov    0xc(%ebp),%eax
   20e3c:	8b 40 08             	mov    0x8(%eax),%eax
   20e3f:	3b 45 10             	cmp    0x10(%ebp),%eax
   20e42:	0f 94 c0             	sete   %al
   20e45:	84 c0                	test   %al,%al
   20e47:	74 0c                	je     20e55 <_ZN4ListI8Vector2iE9remove_atEj+0xc5>
   20e49:	8b 45 f4             	mov    -0xc(%ebp),%eax
   20e4c:	8b 50 04             	mov    0x4(%eax),%edx
   20e4f:	8b 45 0c             	mov    0xc(%ebp),%eax
   20e52:	89 50 04             	mov    %edx,0x4(%eax)
   20e55:	83 ec 0c             	sub    $0xc,%esp
   20e58:	ff 75 f4             	pushl  -0xc(%ebp)
   20e5b:	e8 23 84 ff ff       	call   19283 <kfree>
   20e60:	83 c4 10             	add    $0x10,%esp
   20e63:	8b 4d 08             	mov    0x8(%ebp),%ecx
   20e66:	8b 45 e8             	mov    -0x18(%ebp),%eax
   20e69:	8b 55 ec             	mov    -0x14(%ebp),%edx
   20e6c:	89 01                	mov    %eax,(%ecx)
   20e6e:	89 51 04             	mov    %edx,0x4(%ecx)
   20e71:	8b 45 08             	mov    0x8(%ebp),%eax
   20e74:	c9                   	leave  
   20e75:	c2 04 00             	ret    $0x4

Disassembly of section .text._ZN4ListI8Vector2iEixEj:

00020e78 <_ZN4ListI8Vector2iEixEj>:
   20e78:	55                   	push   %ebp
   20e79:	89 e5                	mov    %esp,%ebp
   20e7b:	83 ec 10             	sub    $0x10,%esp
   20e7e:	8b 45 0c             	mov    0xc(%ebp),%eax
   20e81:	8b 40 08             	mov    0x8(%eax),%eax
   20e84:	3b 45 10             	cmp    0x10(%ebp),%eax
   20e87:	77 14                	ja     20e9d <_ZN4ListI8Vector2iEixEj+0x25>
   20e89:	b8 00 00 00 00       	mov    $0x0,%eax
   20e8e:	8b 4d 08             	mov    0x8(%ebp),%ecx
   20e91:	8b 50 04             	mov    0x4(%eax),%edx
   20e94:	8b 00                	mov    (%eax),%eax
   20e96:	89 01                	mov    %eax,(%ecx)
   20e98:	89 51 04             	mov    %edx,0x4(%ecx)
   20e9b:	eb 36                	jmp    20ed3 <_ZN4ListI8Vector2iEixEj+0x5b>
   20e9d:	8b 45 0c             	mov    0xc(%ebp),%eax
   20ea0:	8b 00                	mov    (%eax),%eax
   20ea2:	89 45 fc             	mov    %eax,-0x4(%ebp)
   20ea5:	c7 45 f8 00 00 00 00 	movl   $0x0,-0x8(%ebp)
   20eac:	8b 45 f8             	mov    -0x8(%ebp),%eax
   20eaf:	3b 45 10             	cmp    0x10(%ebp),%eax
   20eb2:	73 0e                	jae    20ec2 <_ZN4ListI8Vector2iEixEj+0x4a>
   20eb4:	8b 45 fc             	mov    -0x4(%ebp),%eax
   20eb7:	8b 00                	mov    (%eax),%eax
   20eb9:	89 45 fc             	mov    %eax,-0x4(%ebp)
   20ebc:	83 45 f8 01          	addl   $0x1,-0x8(%ebp)
   20ec0:	eb ea                	jmp    20eac <_ZN4ListI8Vector2iEixEj+0x34>
   20ec2:	8b 4d 08             	mov    0x8(%ebp),%ecx
   20ec5:	8b 45 fc             	mov    -0x4(%ebp),%eax
   20ec8:	8b 50 0c             	mov    0xc(%eax),%edx
   20ecb:	8b 40 08             	mov    0x8(%eax),%eax
   20ece:	89 01                	mov    %eax,(%ecx)
   20ed0:	89 51 04             	mov    %edx,0x4(%ecx)
   20ed3:	8b 45 08             	mov    0x8(%ebp),%eax
   20ed6:	c9                   	leave  
   20ed7:	c2 04 00             	ret    $0x4

Disassembly of section .text._ZN4ListI8Vector2iE9add_frontES0_:

00020eda <_ZN4ListI8Vector2iE9add_frontES0_>:
   20eda:	55                   	push   %ebp
   20edb:	89 e5                	mov    %esp,%ebp
   20edd:	83 ec 28             	sub    $0x28,%esp
   20ee0:	83 ec 0c             	sub    $0xc,%esp
   20ee3:	6a 10                	push   $0x10
   20ee5:	e8 5a 7c ff ff       	call   18b44 <kmalloc>
   20eea:	83 c4 10             	add    $0x10,%esp
   20eed:	89 45 f4             	mov    %eax,-0xc(%ebp)
   20ef0:	c7 45 e4 00 00 00 00 	movl   $0x0,-0x1c(%ebp)
   20ef7:	c7 45 e8 00 00 00 00 	movl   $0x0,-0x18(%ebp)
   20efe:	c7 45 ec 00 00 00 00 	movl   $0x0,-0x14(%ebp)
   20f05:	c7 45 f0 00 00 00 00 	movl   $0x0,-0x10(%ebp)
   20f0c:	83 ec 0c             	sub    $0xc,%esp
   20f0f:	8d 45 e4             	lea    -0x1c(%ebp),%eax
   20f12:	50                   	push   %eax
   20f13:	e8 a2 fd ff ff       	call   20cba <_ZN8ListNodeI8Vector2iEC1Ev>
   20f18:	83 c4 10             	add    $0x10,%esp
   20f1b:	8b 45 f4             	mov    -0xc(%ebp),%eax
   20f1e:	8b 55 e4             	mov    -0x1c(%ebp),%edx
   20f21:	89 10                	mov    %edx,(%eax)
   20f23:	8b 55 e8             	mov    -0x18(%ebp),%edx
   20f26:	89 50 04             	mov    %edx,0x4(%eax)
   20f29:	8b 55 ec             	mov    -0x14(%ebp),%edx
   20f2c:	89 50 08             	mov    %edx,0x8(%eax)
   20f2f:	8b 55 f0             	mov    -0x10(%ebp),%edx
   20f32:	89 50 0c             	mov    %edx,0xc(%eax)
   20f35:	8b 4d f4             	mov    -0xc(%ebp),%ecx
   20f38:	8b 45 0c             	mov    0xc(%ebp),%eax
   20f3b:	8b 55 10             	mov    0x10(%ebp),%edx
   20f3e:	89 41 08             	mov    %eax,0x8(%ecx)
   20f41:	89 51 0c             	mov    %edx,0xc(%ecx)
   20f44:	8b 45 08             	mov    0x8(%ebp),%eax
   20f47:	8b 40 04             	mov    0x4(%eax),%eax
   20f4a:	85 c0                	test   %eax,%eax
   20f4c:	75 0b                	jne    20f59 <_ZN4ListI8Vector2iE9add_frontES0_+0x7f>
   20f4e:	8b 45 08             	mov    0x8(%ebp),%eax
   20f51:	8b 55 f4             	mov    -0xc(%ebp),%edx
   20f54:	89 50 04             	mov    %edx,0x4(%eax)
   20f57:	eb 15                	jmp    20f6e <_ZN4ListI8Vector2iE9add_frontES0_+0x94>
   20f59:	8b 45 08             	mov    0x8(%ebp),%eax
   20f5c:	8b 00                	mov    (%eax),%eax
   20f5e:	8b 55 f4             	mov    -0xc(%ebp),%edx
   20f61:	89 50 04             	mov    %edx,0x4(%eax)
   20f64:	8b 45 08             	mov    0x8(%ebp),%eax
   20f67:	8b 10                	mov    (%eax),%edx
   20f69:	8b 45 f4             	mov    -0xc(%ebp),%eax
   20f6c:	89 10                	mov    %edx,(%eax)
   20f6e:	8b 45 08             	mov    0x8(%ebp),%eax
   20f71:	8b 55 f4             	mov    -0xc(%ebp),%edx
   20f74:	89 10                	mov    %edx,(%eax)
   20f76:	8b 45 08             	mov    0x8(%ebp),%eax
   20f79:	8b 40 08             	mov    0x8(%eax),%eax
   20f7c:	8d 50 01             	lea    0x1(%eax),%edx
   20f7f:	8b 45 08             	mov    0x8(%ebp),%eax
   20f82:	89 50 08             	mov    %edx,0x8(%eax)
   20f85:	90                   	nop
   20f86:	c9                   	leave  
   20f87:	c3                   	ret    

Disassembly of section .text._ZN4ListIP6WindowEC2Ev:

00020f88 <_ZN4ListIP6WindowEC1Ev>:
   20f88:	55                   	push   %ebp
   20f89:	89 e5                	mov    %esp,%ebp
   20f8b:	8b 45 08             	mov    0x8(%ebp),%eax
   20f8e:	c7 00 00 00 00 00    	movl   $0x0,(%eax)
   20f94:	8b 45 08             	mov    0x8(%ebp),%eax
   20f97:	c7 40 04 00 00 00 00 	movl   $0x0,0x4(%eax)
   20f9e:	90                   	nop
   20f9f:	5d                   	pop    %ebp
   20fa0:	c3                   	ret    

Disassembly of section .text._ZN8ListNodeIP6WindowEC2Ev:

00020fa2 <_ZN8ListNodeIP6WindowEC1Ev>:
   20fa2:	55                   	push   %ebp
   20fa3:	89 e5                	mov    %esp,%ebp
   20fa5:	8b 45 08             	mov    0x8(%ebp),%eax
   20fa8:	c7 00 00 00 00 00    	movl   $0x0,(%eax)
   20fae:	8b 45 08             	mov    0x8(%ebp),%eax
   20fb1:	c7 40 04 00 00 00 00 	movl   $0x0,0x4(%eax)
   20fb8:	90                   	nop
   20fb9:	5d                   	pop    %ebp
   20fba:	c3                   	ret    

Disassembly of section .text._ZN4ListIP6WindowE8add_backES1_:

00020fbc <_ZN4ListIP6WindowE8add_backES1_>:
   20fbc:	55                   	push   %ebp
   20fbd:	89 e5                	mov    %esp,%ebp
   20fbf:	83 ec 18             	sub    $0x18,%esp
   20fc2:	83 ec 0c             	sub    $0xc,%esp
   20fc5:	6a 0c                	push   $0xc
   20fc7:	e8 78 7b ff ff       	call   18b44 <kmalloc>
   20fcc:	83 c4 10             	add    $0x10,%esp
   20fcf:	89 45 f4             	mov    %eax,-0xc(%ebp)
   20fd2:	c7 45 e8 00 00 00 00 	movl   $0x0,-0x18(%ebp)
   20fd9:	c7 45 ec 00 00 00 00 	movl   $0x0,-0x14(%ebp)
   20fe0:	c7 45 f0 00 00 00 00 	movl   $0x0,-0x10(%ebp)
   20fe7:	83 ec 0c             	sub    $0xc,%esp
   20fea:	8d 45 e8             	lea    -0x18(%ebp),%eax
   20fed:	50                   	push   %eax
   20fee:	e8 af ff ff ff       	call   20fa2 <_ZN8ListNodeIP6WindowEC1Ev>
   20ff3:	83 c4 10             	add    $0x10,%esp
   20ff6:	8b 45 f4             	mov    -0xc(%ebp),%eax
   20ff9:	8b 55 e8             	mov    -0x18(%ebp),%edx
   20ffc:	89 10                	mov    %edx,(%eax)
   20ffe:	8b 55 ec             	mov    -0x14(%ebp),%edx
   21001:	89 50 04             	mov    %edx,0x4(%eax)
   21004:	8b 55 f0             	mov    -0x10(%ebp),%edx
   21007:	89 50 08             	mov    %edx,0x8(%eax)
   2100a:	8b 45 f4             	mov    -0xc(%ebp),%eax
   2100d:	8b 55 0c             	mov    0xc(%ebp),%edx
   21010:	89 50 08             	mov    %edx,0x8(%eax)
   21013:	8b 45 08             	mov    0x8(%ebp),%eax
   21016:	8b 00                	mov    (%eax),%eax
   21018:	85 c0                	test   %eax,%eax
   2101a:	75 0a                	jne    21026 <_ZN4ListIP6WindowE8add_backES1_+0x6a>
   2101c:	8b 45 08             	mov    0x8(%ebp),%eax
   2101f:	8b 55 f4             	mov    -0xc(%ebp),%edx
   21022:	89 10                	mov    %edx,(%eax)
   21024:	eb 17                	jmp    2103d <_ZN4ListIP6WindowE8add_backES1_+0x81>
   21026:	8b 45 08             	mov    0x8(%ebp),%eax
   21029:	8b 40 04             	mov    0x4(%eax),%eax
   2102c:	8b 55 f4             	mov    -0xc(%ebp),%edx
   2102f:	89 10                	mov    %edx,(%eax)
   21031:	8b 45 08             	mov    0x8(%ebp),%eax
   21034:	8b 50 04             	mov    0x4(%eax),%edx
   21037:	8b 45 f4             	mov    -0xc(%ebp),%eax
   2103a:	89 50 04             	mov    %edx,0x4(%eax)
   2103d:	8b 45 08             	mov    0x8(%ebp),%eax
   21040:	8b 55 f4             	mov    -0xc(%ebp),%edx
   21043:	89 50 04             	mov    %edx,0x4(%eax)
   21046:	8b 45 08             	mov    0x8(%ebp),%eax
   21049:	8b 40 08             	mov    0x8(%eax),%eax
   2104c:	8d 50 01             	lea    0x1(%eax),%edx
   2104f:	8b 45 08             	mov    0x8(%ebp),%eax
   21052:	89 50 08             	mov    %edx,0x8(%eax)
   21055:	90                   	nop
   21056:	c9                   	leave  
   21057:	c3                   	ret    

Disassembly of section .text._ZN4ListIP6WindowEixEj:

00021058 <_ZN4ListIP6WindowEixEj>:
   21058:	55                   	push   %ebp
   21059:	89 e5                	mov    %esp,%ebp
   2105b:	83 ec 10             	sub    $0x10,%esp
   2105e:	8b 45 08             	mov    0x8(%ebp),%eax
   21061:	8b 40 08             	mov    0x8(%eax),%eax
   21064:	3b 45 0c             	cmp    0xc(%ebp),%eax
   21067:	77 09                	ja     21072 <_ZN4ListIP6WindowEixEj+0x1a>
   21069:	b8 00 00 00 00       	mov    $0x0,%eax
   2106e:	8b 00                	mov    (%eax),%eax
   21070:	eb 2b                	jmp    2109d <_ZN4ListIP6WindowEixEj+0x45>
   21072:	8b 45 08             	mov    0x8(%ebp),%eax
   21075:	8b 00                	mov    (%eax),%eax
   21077:	89 45 fc             	mov    %eax,-0x4(%ebp)
   2107a:	c7 45 f8 00 00 00 00 	movl   $0x0,-0x8(%ebp)
   21081:	8b 45 f8             	mov    -0x8(%ebp),%eax
   21084:	3b 45 0c             	cmp    0xc(%ebp),%eax
   21087:	73 0e                	jae    21097 <_ZN4ListIP6WindowEixEj+0x3f>
   21089:	8b 45 fc             	mov    -0x4(%ebp),%eax
   2108c:	8b 00                	mov    (%eax),%eax
   2108e:	89 45 fc             	mov    %eax,-0x4(%ebp)
   21091:	83 45 f8 01          	addl   $0x1,-0x8(%ebp)
   21095:	eb ea                	jmp    21081 <_ZN4ListIP6WindowEixEj+0x29>
   21097:	8b 45 fc             	mov    -0x4(%ebp),%eax
   2109a:	8b 40 08             	mov    0x8(%eax),%eax
   2109d:	c9                   	leave  
   2109e:	c3                   	ret    

Disassembly of section .text._ZN4ListIP6WindowE9remove_atEj:

000210a0 <_ZN4ListIP6WindowE9remove_atEj>:
   210a0:	55                   	push   %ebp
   210a1:	89 e5                	mov    %esp,%ebp
   210a3:	83 ec 18             	sub    $0x18,%esp
   210a6:	8b 45 08             	mov    0x8(%ebp),%eax
   210a9:	8b 40 08             	mov    0x8(%eax),%eax
   210ac:	3b 45 0c             	cmp    0xc(%ebp),%eax
   210af:	77 0c                	ja     210bd <_ZN4ListIP6WindowE9remove_atEj+0x1d>
   210b1:	b8 00 00 00 00       	mov    $0x0,%eax
   210b6:	8b 00                	mov    (%eax),%eax
   210b8:	e9 a8 00 00 00       	jmp    21165 <_ZN4ListIP6WindowE9remove_atEj+0xc5>
   210bd:	8b 45 08             	mov    0x8(%ebp),%eax
   210c0:	8b 00                	mov    (%eax),%eax
   210c2:	89 45 f4             	mov    %eax,-0xc(%ebp)
   210c5:	c7 45 f0 00 00 00 00 	movl   $0x0,-0x10(%ebp)
   210cc:	8b 45 f0             	mov    -0x10(%ebp),%eax
   210cf:	3b 45 0c             	cmp    0xc(%ebp),%eax
   210d2:	73 0e                	jae    210e2 <_ZN4ListIP6WindowE9remove_atEj+0x42>
   210d4:	8b 45 f4             	mov    -0xc(%ebp),%eax
   210d7:	8b 00                	mov    (%eax),%eax
   210d9:	89 45 f4             	mov    %eax,-0xc(%ebp)
   210dc:	83 45 f0 01          	addl   $0x1,-0x10(%ebp)
   210e0:	eb ea                	jmp    210cc <_ZN4ListIP6WindowE9remove_atEj+0x2c>
   210e2:	8b 45 f4             	mov    -0xc(%ebp),%eax
   210e5:	8b 40 08             	mov    0x8(%eax),%eax
   210e8:	89 45 ec             	mov    %eax,-0x14(%ebp)
   210eb:	8b 45 f4             	mov    -0xc(%ebp),%eax
   210ee:	8b 00                	mov    (%eax),%eax
   210f0:	85 c0                	test   %eax,%eax
   210f2:	74 0e                	je     21102 <_ZN4ListIP6WindowE9remove_atEj+0x62>
   210f4:	8b 45 f4             	mov    -0xc(%ebp),%eax
   210f7:	8b 00                	mov    (%eax),%eax
   210f9:	8b 55 f4             	mov    -0xc(%ebp),%edx
   210fc:	8b 52 04             	mov    0x4(%edx),%edx
   210ff:	89 50 04             	mov    %edx,0x4(%eax)
   21102:	8b 45 f4             	mov    -0xc(%ebp),%eax
   21105:	8b 40 04             	mov    0x4(%eax),%eax
   21108:	85 c0                	test   %eax,%eax
   2110a:	74 0d                	je     21119 <_ZN4ListIP6WindowE9remove_atEj+0x79>
   2110c:	8b 45 f4             	mov    -0xc(%ebp),%eax
   2110f:	8b 40 04             	mov    0x4(%eax),%eax
   21112:	8b 55 f4             	mov    -0xc(%ebp),%edx
   21115:	8b 12                	mov    (%edx),%edx
   21117:	89 10                	mov    %edx,(%eax)
   21119:	83 7d 0c 00          	cmpl   $0x0,0xc(%ebp)
   2111d:	75 0a                	jne    21129 <_ZN4ListIP6WindowE9remove_atEj+0x89>
   2111f:	8b 45 f4             	mov    -0xc(%ebp),%eax
   21122:	8b 10                	mov    (%eax),%edx
   21124:	8b 45 08             	mov    0x8(%ebp),%eax
   21127:	89 10                	mov    %edx,(%eax)
   21129:	8b 45 08             	mov    0x8(%ebp),%eax
   2112c:	8b 40 08             	mov    0x8(%eax),%eax
   2112f:	8d 50 ff             	lea    -0x1(%eax),%edx
   21132:	8b 45 08             	mov    0x8(%ebp),%eax
   21135:	89 50 08             	mov    %edx,0x8(%eax)
   21138:	8b 45 08             	mov    0x8(%ebp),%eax
   2113b:	8b 40 08             	mov    0x8(%eax),%eax
   2113e:	3b 45 0c             	cmp    0xc(%ebp),%eax
   21141:	0f 94 c0             	sete   %al
   21144:	84 c0                	test   %al,%al
   21146:	74 0c                	je     21154 <_ZN4ListIP6WindowE9remove_atEj+0xb4>
   21148:	8b 45 f4             	mov    -0xc(%ebp),%eax
   2114b:	8b 50 04             	mov    0x4(%eax),%edx
   2114e:	8b 45 08             	mov    0x8(%ebp),%eax
   21151:	89 50 04             	mov    %edx,0x4(%eax)
   21154:	83 ec 0c             	sub    $0xc,%esp
   21157:	ff 75 f4             	pushl  -0xc(%ebp)
   2115a:	e8 24 81 ff ff       	call   19283 <kfree>
   2115f:	83 c4 10             	add    $0x10,%esp
   21162:	8b 45 ec             	mov    -0x14(%ebp),%eax
   21165:	c9                   	leave  
   21166:	c3                   	ret    
